
Pokus.elf:     file format elf32-littlearm

Sections:
Idx Name          Size      VMA       LMA       File off  Algn
  0 .isr_vector   000000c0  08000000  08000000  00010000  2**0
                  CONTENTS, ALLOC, LOAD, READONLY, DATA
  1 .text         0000436c  080000c0  080000c0  000100c0  2**2
                  CONTENTS, ALLOC, LOAD, READONLY, CODE
  2 .rodata       0000012c  0800442c  0800442c  0001442c  2**2
                  CONTENTS, ALLOC, LOAD, READONLY, DATA
  3 .ARM          00000008  08004558  08004558  00014558  2**2
                  CONTENTS, ALLOC, LOAD, READONLY, DATA
  4 .init_array   00000004  08004560  08004560  00014560  2**2
                  CONTENTS, ALLOC, LOAD, DATA
  5 .fini_array   00000004  08004564  08004564  00014564  2**2
                  CONTENTS, ALLOC, LOAD, DATA
  6 .data         00000004  20000000  08004568  00020000  2**2
                  CONTENTS, ALLOC, LOAD, DATA
  7 .bss          000002c4  20000004  0800456c  00020004  2**2
                  ALLOC
  8 ._user_heap_stack 00000600  200002c8  0800456c  000202c8  2**0
                  ALLOC
  9 .ARM.attributes 00000028  00000000  00000000  00020004  2**0
                  CONTENTS, READONLY
 10 .debug_info   0000f48d  00000000  00000000  0002002c  2**0
                  CONTENTS, READONLY, DEBUGGING
 11 .debug_abbrev 00002521  00000000  00000000  0002f4b9  2**0
                  CONTENTS, READONLY, DEBUGGING
 12 .debug_loc    00007faa  00000000  00000000  000319da  2**0
                  CONTENTS, READONLY, DEBUGGING
 13 .debug_aranges 00000c80  00000000  00000000  00039988  2**3
                  CONTENTS, READONLY, DEBUGGING
 14 .debug_ranges 00000bd8  00000000  00000000  0003a608  2**3
                  CONTENTS, READONLY, DEBUGGING
 15 .debug_macro  00014830  00000000  00000000  0003b1e0  2**0
                  CONTENTS, READONLY, DEBUGGING
 16 .debug_line   000099eb  00000000  00000000  0004fa10  2**0
                  CONTENTS, READONLY, DEBUGGING
 17 .debug_str    0007e37b  00000000  00000000  000593fb  2**0
                  CONTENTS, READONLY, DEBUGGING
 18 .comment      0000007c  00000000  00000000  000d7776  2**0
                  CONTENTS, READONLY
 19 .debug_frame  000020b8  00000000  00000000  000d77f4  2**2
                  CONTENTS, READONLY, DEBUGGING

Disassembly of section .text:

080000c0 <__do_global_dtors_aux>:
 80000c0:	b510      	push	{r4, lr}
 80000c2:	4c06      	ldr	r4, [pc, #24]	; (80000dc <__do_global_dtors_aux+0x1c>)
 80000c4:	7823      	ldrb	r3, [r4, #0]
 80000c6:	2b00      	cmp	r3, #0
 80000c8:	d107      	bne.n	80000da <__do_global_dtors_aux+0x1a>
 80000ca:	4b05      	ldr	r3, [pc, #20]	; (80000e0 <__do_global_dtors_aux+0x20>)
 80000cc:	2b00      	cmp	r3, #0
 80000ce:	d002      	beq.n	80000d6 <__do_global_dtors_aux+0x16>
 80000d0:	4804      	ldr	r0, [pc, #16]	; (80000e4 <__do_global_dtors_aux+0x24>)
 80000d2:	e000      	b.n	80000d6 <__do_global_dtors_aux+0x16>
 80000d4:	bf00      	nop
 80000d6:	2301      	movs	r3, #1
 80000d8:	7023      	strb	r3, [r4, #0]
 80000da:	bd10      	pop	{r4, pc}
 80000dc:	20000004 	.word	0x20000004
 80000e0:	00000000 	.word	0x00000000
 80000e4:	08004414 	.word	0x08004414

080000e8 <frame_dummy>:
 80000e8:	4b04      	ldr	r3, [pc, #16]	; (80000fc <frame_dummy+0x14>)
 80000ea:	b510      	push	{r4, lr}
 80000ec:	2b00      	cmp	r3, #0
 80000ee:	d003      	beq.n	80000f8 <frame_dummy+0x10>
 80000f0:	4903      	ldr	r1, [pc, #12]	; (8000100 <frame_dummy+0x18>)
 80000f2:	4804      	ldr	r0, [pc, #16]	; (8000104 <frame_dummy+0x1c>)
 80000f4:	e000      	b.n	80000f8 <frame_dummy+0x10>
 80000f6:	bf00      	nop
 80000f8:	bd10      	pop	{r4, pc}
 80000fa:	46c0      	nop			; (mov r8, r8)
 80000fc:	00000000 	.word	0x00000000
 8000100:	20000008 	.word	0x20000008
 8000104:	08004414 	.word	0x08004414

08000108 <__udivsi3>:
 8000108:	2200      	movs	r2, #0
 800010a:	0843      	lsrs	r3, r0, #1
 800010c:	428b      	cmp	r3, r1
 800010e:	d374      	bcc.n	80001fa <__udivsi3+0xf2>
 8000110:	0903      	lsrs	r3, r0, #4
 8000112:	428b      	cmp	r3, r1
 8000114:	d35f      	bcc.n	80001d6 <__udivsi3+0xce>
 8000116:	0a03      	lsrs	r3, r0, #8
 8000118:	428b      	cmp	r3, r1
 800011a:	d344      	bcc.n	80001a6 <__udivsi3+0x9e>
 800011c:	0b03      	lsrs	r3, r0, #12
 800011e:	428b      	cmp	r3, r1
 8000120:	d328      	bcc.n	8000174 <__udivsi3+0x6c>
 8000122:	0c03      	lsrs	r3, r0, #16
 8000124:	428b      	cmp	r3, r1
 8000126:	d30d      	bcc.n	8000144 <__udivsi3+0x3c>
 8000128:	22ff      	movs	r2, #255	; 0xff
 800012a:	0209      	lsls	r1, r1, #8
 800012c:	ba12      	rev	r2, r2
 800012e:	0c03      	lsrs	r3, r0, #16
 8000130:	428b      	cmp	r3, r1
 8000132:	d302      	bcc.n	800013a <__udivsi3+0x32>
 8000134:	1212      	asrs	r2, r2, #8
 8000136:	0209      	lsls	r1, r1, #8
 8000138:	d065      	beq.n	8000206 <__udivsi3+0xfe>
 800013a:	0b03      	lsrs	r3, r0, #12
 800013c:	428b      	cmp	r3, r1
 800013e:	d319      	bcc.n	8000174 <__udivsi3+0x6c>
 8000140:	e000      	b.n	8000144 <__udivsi3+0x3c>
 8000142:	0a09      	lsrs	r1, r1, #8
 8000144:	0bc3      	lsrs	r3, r0, #15
 8000146:	428b      	cmp	r3, r1
 8000148:	d301      	bcc.n	800014e <__udivsi3+0x46>
 800014a:	03cb      	lsls	r3, r1, #15
 800014c:	1ac0      	subs	r0, r0, r3
 800014e:	4152      	adcs	r2, r2
 8000150:	0b83      	lsrs	r3, r0, #14
 8000152:	428b      	cmp	r3, r1
 8000154:	d301      	bcc.n	800015a <__udivsi3+0x52>
 8000156:	038b      	lsls	r3, r1, #14
 8000158:	1ac0      	subs	r0, r0, r3
 800015a:	4152      	adcs	r2, r2
 800015c:	0b43      	lsrs	r3, r0, #13
 800015e:	428b      	cmp	r3, r1
 8000160:	d301      	bcc.n	8000166 <__udivsi3+0x5e>
 8000162:	034b      	lsls	r3, r1, #13
 8000164:	1ac0      	subs	r0, r0, r3
 8000166:	4152      	adcs	r2, r2
 8000168:	0b03      	lsrs	r3, r0, #12
 800016a:	428b      	cmp	r3, r1
 800016c:	d301      	bcc.n	8000172 <__udivsi3+0x6a>
 800016e:	030b      	lsls	r3, r1, #12
 8000170:	1ac0      	subs	r0, r0, r3
 8000172:	4152      	adcs	r2, r2
 8000174:	0ac3      	lsrs	r3, r0, #11
 8000176:	428b      	cmp	r3, r1
 8000178:	d301      	bcc.n	800017e <__udivsi3+0x76>
 800017a:	02cb      	lsls	r3, r1, #11
 800017c:	1ac0      	subs	r0, r0, r3
 800017e:	4152      	adcs	r2, r2
 8000180:	0a83      	lsrs	r3, r0, #10
 8000182:	428b      	cmp	r3, r1
 8000184:	d301      	bcc.n	800018a <__udivsi3+0x82>
 8000186:	028b      	lsls	r3, r1, #10
 8000188:	1ac0      	subs	r0, r0, r3
 800018a:	4152      	adcs	r2, r2
 800018c:	0a43      	lsrs	r3, r0, #9
 800018e:	428b      	cmp	r3, r1
 8000190:	d301      	bcc.n	8000196 <__udivsi3+0x8e>
 8000192:	024b      	lsls	r3, r1, #9
 8000194:	1ac0      	subs	r0, r0, r3
 8000196:	4152      	adcs	r2, r2
 8000198:	0a03      	lsrs	r3, r0, #8
 800019a:	428b      	cmp	r3, r1
 800019c:	d301      	bcc.n	80001a2 <__udivsi3+0x9a>
 800019e:	020b      	lsls	r3, r1, #8
 80001a0:	1ac0      	subs	r0, r0, r3
 80001a2:	4152      	adcs	r2, r2
 80001a4:	d2cd      	bcs.n	8000142 <__udivsi3+0x3a>
 80001a6:	09c3      	lsrs	r3, r0, #7
 80001a8:	428b      	cmp	r3, r1
 80001aa:	d301      	bcc.n	80001b0 <__udivsi3+0xa8>
 80001ac:	01cb      	lsls	r3, r1, #7
 80001ae:	1ac0      	subs	r0, r0, r3
 80001b0:	4152      	adcs	r2, r2
 80001b2:	0983      	lsrs	r3, r0, #6
 80001b4:	428b      	cmp	r3, r1
 80001b6:	d301      	bcc.n	80001bc <__udivsi3+0xb4>
 80001b8:	018b      	lsls	r3, r1, #6
 80001ba:	1ac0      	subs	r0, r0, r3
 80001bc:	4152      	adcs	r2, r2
 80001be:	0943      	lsrs	r3, r0, #5
 80001c0:	428b      	cmp	r3, r1
 80001c2:	d301      	bcc.n	80001c8 <__udivsi3+0xc0>
 80001c4:	014b      	lsls	r3, r1, #5
 80001c6:	1ac0      	subs	r0, r0, r3
 80001c8:	4152      	adcs	r2, r2
 80001ca:	0903      	lsrs	r3, r0, #4
 80001cc:	428b      	cmp	r3, r1
 80001ce:	d301      	bcc.n	80001d4 <__udivsi3+0xcc>
 80001d0:	010b      	lsls	r3, r1, #4
 80001d2:	1ac0      	subs	r0, r0, r3
 80001d4:	4152      	adcs	r2, r2
 80001d6:	08c3      	lsrs	r3, r0, #3
 80001d8:	428b      	cmp	r3, r1
 80001da:	d301      	bcc.n	80001e0 <__udivsi3+0xd8>
 80001dc:	00cb      	lsls	r3, r1, #3
 80001de:	1ac0      	subs	r0, r0, r3
 80001e0:	4152      	adcs	r2, r2
 80001e2:	0883      	lsrs	r3, r0, #2
 80001e4:	428b      	cmp	r3, r1
 80001e6:	d301      	bcc.n	80001ec <__udivsi3+0xe4>
 80001e8:	008b      	lsls	r3, r1, #2
 80001ea:	1ac0      	subs	r0, r0, r3
 80001ec:	4152      	adcs	r2, r2
 80001ee:	0843      	lsrs	r3, r0, #1
 80001f0:	428b      	cmp	r3, r1
 80001f2:	d301      	bcc.n	80001f8 <__udivsi3+0xf0>
 80001f4:	004b      	lsls	r3, r1, #1
 80001f6:	1ac0      	subs	r0, r0, r3
 80001f8:	4152      	adcs	r2, r2
 80001fa:	1a41      	subs	r1, r0, r1
 80001fc:	d200      	bcs.n	8000200 <__udivsi3+0xf8>
 80001fe:	4601      	mov	r1, r0
 8000200:	4152      	adcs	r2, r2
 8000202:	4610      	mov	r0, r2
 8000204:	4770      	bx	lr
 8000206:	e7ff      	b.n	8000208 <__udivsi3+0x100>
 8000208:	b501      	push	{r0, lr}
 800020a:	2000      	movs	r0, #0
 800020c:	f000 f8f0 	bl	80003f0 <__aeabi_idiv0>
 8000210:	bd02      	pop	{r1, pc}
 8000212:	46c0      	nop			; (mov r8, r8)

08000214 <__aeabi_uidivmod>:
 8000214:	2900      	cmp	r1, #0
 8000216:	d0f7      	beq.n	8000208 <__udivsi3+0x100>
 8000218:	e776      	b.n	8000108 <__udivsi3>
 800021a:	4770      	bx	lr

0800021c <__divsi3>:
 800021c:	4603      	mov	r3, r0
 800021e:	430b      	orrs	r3, r1
 8000220:	d47f      	bmi.n	8000322 <__divsi3+0x106>
 8000222:	2200      	movs	r2, #0
 8000224:	0843      	lsrs	r3, r0, #1
 8000226:	428b      	cmp	r3, r1
 8000228:	d374      	bcc.n	8000314 <__divsi3+0xf8>
 800022a:	0903      	lsrs	r3, r0, #4
 800022c:	428b      	cmp	r3, r1
 800022e:	d35f      	bcc.n	80002f0 <__divsi3+0xd4>
 8000230:	0a03      	lsrs	r3, r0, #8
 8000232:	428b      	cmp	r3, r1
 8000234:	d344      	bcc.n	80002c0 <__divsi3+0xa4>
 8000236:	0b03      	lsrs	r3, r0, #12
 8000238:	428b      	cmp	r3, r1
 800023a:	d328      	bcc.n	800028e <__divsi3+0x72>
 800023c:	0c03      	lsrs	r3, r0, #16
 800023e:	428b      	cmp	r3, r1
 8000240:	d30d      	bcc.n	800025e <__divsi3+0x42>
 8000242:	22ff      	movs	r2, #255	; 0xff
 8000244:	0209      	lsls	r1, r1, #8
 8000246:	ba12      	rev	r2, r2
 8000248:	0c03      	lsrs	r3, r0, #16
 800024a:	428b      	cmp	r3, r1
 800024c:	d302      	bcc.n	8000254 <__divsi3+0x38>
 800024e:	1212      	asrs	r2, r2, #8
 8000250:	0209      	lsls	r1, r1, #8
 8000252:	d065      	beq.n	8000320 <__divsi3+0x104>
 8000254:	0b03      	lsrs	r3, r0, #12
 8000256:	428b      	cmp	r3, r1
 8000258:	d319      	bcc.n	800028e <__divsi3+0x72>
 800025a:	e000      	b.n	800025e <__divsi3+0x42>
 800025c:	0a09      	lsrs	r1, r1, #8
 800025e:	0bc3      	lsrs	r3, r0, #15
 8000260:	428b      	cmp	r3, r1
 8000262:	d301      	bcc.n	8000268 <__divsi3+0x4c>
 8000264:	03cb      	lsls	r3, r1, #15
 8000266:	1ac0      	subs	r0, r0, r3
 8000268:	4152      	adcs	r2, r2
 800026a:	0b83      	lsrs	r3, r0, #14
 800026c:	428b      	cmp	r3, r1
 800026e:	d301      	bcc.n	8000274 <__divsi3+0x58>
 8000270:	038b      	lsls	r3, r1, #14
 8000272:	1ac0      	subs	r0, r0, r3
 8000274:	4152      	adcs	r2, r2
 8000276:	0b43      	lsrs	r3, r0, #13
 8000278:	428b      	cmp	r3, r1
 800027a:	d301      	bcc.n	8000280 <__divsi3+0x64>
 800027c:	034b      	lsls	r3, r1, #13
 800027e:	1ac0      	subs	r0, r0, r3
 8000280:	4152      	adcs	r2, r2
 8000282:	0b03      	lsrs	r3, r0, #12
 8000284:	428b      	cmp	r3, r1
 8000286:	d301      	bcc.n	800028c <__divsi3+0x70>
 8000288:	030b      	lsls	r3, r1, #12
 800028a:	1ac0      	subs	r0, r0, r3
 800028c:	4152      	adcs	r2, r2
 800028e:	0ac3      	lsrs	r3, r0, #11
 8000290:	428b      	cmp	r3, r1
 8000292:	d301      	bcc.n	8000298 <__divsi3+0x7c>
 8000294:	02cb      	lsls	r3, r1, #11
 8000296:	1ac0      	subs	r0, r0, r3
 8000298:	4152      	adcs	r2, r2
 800029a:	0a83      	lsrs	r3, r0, #10
 800029c:	428b      	cmp	r3, r1
 800029e:	d301      	bcc.n	80002a4 <__divsi3+0x88>
 80002a0:	028b      	lsls	r3, r1, #10
 80002a2:	1ac0      	subs	r0, r0, r3
 80002a4:	4152      	adcs	r2, r2
 80002a6:	0a43      	lsrs	r3, r0, #9
 80002a8:	428b      	cmp	r3, r1
 80002aa:	d301      	bcc.n	80002b0 <__divsi3+0x94>
 80002ac:	024b      	lsls	r3, r1, #9
 80002ae:	1ac0      	subs	r0, r0, r3
 80002b0:	4152      	adcs	r2, r2
 80002b2:	0a03      	lsrs	r3, r0, #8
 80002b4:	428b      	cmp	r3, r1
 80002b6:	d301      	bcc.n	80002bc <__divsi3+0xa0>
 80002b8:	020b      	lsls	r3, r1, #8
 80002ba:	1ac0      	subs	r0, r0, r3
 80002bc:	4152      	adcs	r2, r2
 80002be:	d2cd      	bcs.n	800025c <__divsi3+0x40>
 80002c0:	09c3      	lsrs	r3, r0, #7
 80002c2:	428b      	cmp	r3, r1
 80002c4:	d301      	bcc.n	80002ca <__divsi3+0xae>
 80002c6:	01cb      	lsls	r3, r1, #7
 80002c8:	1ac0      	subs	r0, r0, r3
 80002ca:	4152      	adcs	r2, r2
 80002cc:	0983      	lsrs	r3, r0, #6
 80002ce:	428b      	cmp	r3, r1
 80002d0:	d301      	bcc.n	80002d6 <__divsi3+0xba>
 80002d2:	018b      	lsls	r3, r1, #6
 80002d4:	1ac0      	subs	r0, r0, r3
 80002d6:	4152      	adcs	r2, r2
 80002d8:	0943      	lsrs	r3, r0, #5
 80002da:	428b      	cmp	r3, r1
 80002dc:	d301      	bcc.n	80002e2 <__divsi3+0xc6>
 80002de:	014b      	lsls	r3, r1, #5
 80002e0:	1ac0      	subs	r0, r0, r3
 80002e2:	4152      	adcs	r2, r2
 80002e4:	0903      	lsrs	r3, r0, #4
 80002e6:	428b      	cmp	r3, r1
 80002e8:	d301      	bcc.n	80002ee <__divsi3+0xd2>
 80002ea:	010b      	lsls	r3, r1, #4
 80002ec:	1ac0      	subs	r0, r0, r3
 80002ee:	4152      	adcs	r2, r2
 80002f0:	08c3      	lsrs	r3, r0, #3
 80002f2:	428b      	cmp	r3, r1
 80002f4:	d301      	bcc.n	80002fa <__divsi3+0xde>
 80002f6:	00cb      	lsls	r3, r1, #3
 80002f8:	1ac0      	subs	r0, r0, r3
 80002fa:	4152      	adcs	r2, r2
 80002fc:	0883      	lsrs	r3, r0, #2
 80002fe:	428b      	cmp	r3, r1
 8000300:	d301      	bcc.n	8000306 <__divsi3+0xea>
 8000302:	008b      	lsls	r3, r1, #2
 8000304:	1ac0      	subs	r0, r0, r3
 8000306:	4152      	adcs	r2, r2
 8000308:	0843      	lsrs	r3, r0, #1
 800030a:	428b      	cmp	r3, r1
 800030c:	d301      	bcc.n	8000312 <__divsi3+0xf6>
 800030e:	004b      	lsls	r3, r1, #1
 8000310:	1ac0      	subs	r0, r0, r3
 8000312:	4152      	adcs	r2, r2
 8000314:	1a41      	subs	r1, r0, r1
 8000316:	d200      	bcs.n	800031a <__divsi3+0xfe>
 8000318:	4601      	mov	r1, r0
 800031a:	4152      	adcs	r2, r2
 800031c:	4610      	mov	r0, r2
 800031e:	4770      	bx	lr
 8000320:	e05d      	b.n	80003de <__divsi3+0x1c2>
 8000322:	0fca      	lsrs	r2, r1, #31
 8000324:	d000      	beq.n	8000328 <__divsi3+0x10c>
 8000326:	4249      	negs	r1, r1
 8000328:	1003      	asrs	r3, r0, #32
 800032a:	d300      	bcc.n	800032e <__divsi3+0x112>
 800032c:	4240      	negs	r0, r0
 800032e:	4053      	eors	r3, r2
 8000330:	2200      	movs	r2, #0
 8000332:	469c      	mov	ip, r3
 8000334:	0903      	lsrs	r3, r0, #4
 8000336:	428b      	cmp	r3, r1
 8000338:	d32d      	bcc.n	8000396 <__divsi3+0x17a>
 800033a:	0a03      	lsrs	r3, r0, #8
 800033c:	428b      	cmp	r3, r1
 800033e:	d312      	bcc.n	8000366 <__divsi3+0x14a>
 8000340:	22fc      	movs	r2, #252	; 0xfc
 8000342:	0189      	lsls	r1, r1, #6
 8000344:	ba12      	rev	r2, r2
 8000346:	0a03      	lsrs	r3, r0, #8
 8000348:	428b      	cmp	r3, r1
 800034a:	d30c      	bcc.n	8000366 <__divsi3+0x14a>
 800034c:	0189      	lsls	r1, r1, #6
 800034e:	1192      	asrs	r2, r2, #6
 8000350:	428b      	cmp	r3, r1
 8000352:	d308      	bcc.n	8000366 <__divsi3+0x14a>
 8000354:	0189      	lsls	r1, r1, #6
 8000356:	1192      	asrs	r2, r2, #6
 8000358:	428b      	cmp	r3, r1
 800035a:	d304      	bcc.n	8000366 <__divsi3+0x14a>
 800035c:	0189      	lsls	r1, r1, #6
 800035e:	d03a      	beq.n	80003d6 <__divsi3+0x1ba>
 8000360:	1192      	asrs	r2, r2, #6
 8000362:	e000      	b.n	8000366 <__divsi3+0x14a>
 8000364:	0989      	lsrs	r1, r1, #6
 8000366:	09c3      	lsrs	r3, r0, #7
 8000368:	428b      	cmp	r3, r1
 800036a:	d301      	bcc.n	8000370 <__divsi3+0x154>
 800036c:	01cb      	lsls	r3, r1, #7
 800036e:	1ac0      	subs	r0, r0, r3
 8000370:	4152      	adcs	r2, r2
 8000372:	0983      	lsrs	r3, r0, #6
 8000374:	428b      	cmp	r3, r1
 8000376:	d301      	bcc.n	800037c <__divsi3+0x160>
 8000378:	018b      	lsls	r3, r1, #6
 800037a:	1ac0      	subs	r0, r0, r3
 800037c:	4152      	adcs	r2, r2
 800037e:	0943      	lsrs	r3, r0, #5
 8000380:	428b      	cmp	r3, r1
 8000382:	d301      	bcc.n	8000388 <__divsi3+0x16c>
 8000384:	014b      	lsls	r3, r1, #5
 8000386:	1ac0      	subs	r0, r0, r3
 8000388:	4152      	adcs	r2, r2
 800038a:	0903      	lsrs	r3, r0, #4
 800038c:	428b      	cmp	r3, r1
 800038e:	d301      	bcc.n	8000394 <__divsi3+0x178>
 8000390:	010b      	lsls	r3, r1, #4
 8000392:	1ac0      	subs	r0, r0, r3
 8000394:	4152      	adcs	r2, r2
 8000396:	08c3      	lsrs	r3, r0, #3
 8000398:	428b      	cmp	r3, r1
 800039a:	d301      	bcc.n	80003a0 <__divsi3+0x184>
 800039c:	00cb      	lsls	r3, r1, #3
 800039e:	1ac0      	subs	r0, r0, r3
 80003a0:	4152      	adcs	r2, r2
 80003a2:	0883      	lsrs	r3, r0, #2
 80003a4:	428b      	cmp	r3, r1
 80003a6:	d301      	bcc.n	80003ac <__divsi3+0x190>
 80003a8:	008b      	lsls	r3, r1, #2
 80003aa:	1ac0      	subs	r0, r0, r3
 80003ac:	4152      	adcs	r2, r2
 80003ae:	d2d9      	bcs.n	8000364 <__divsi3+0x148>
 80003b0:	0843      	lsrs	r3, r0, #1
 80003b2:	428b      	cmp	r3, r1
 80003b4:	d301      	bcc.n	80003ba <__divsi3+0x19e>
 80003b6:	004b      	lsls	r3, r1, #1
 80003b8:	1ac0      	subs	r0, r0, r3
 80003ba:	4152      	adcs	r2, r2
 80003bc:	1a41      	subs	r1, r0, r1
 80003be:	d200      	bcs.n	80003c2 <__divsi3+0x1a6>
 80003c0:	4601      	mov	r1, r0
 80003c2:	4663      	mov	r3, ip
 80003c4:	4152      	adcs	r2, r2
 80003c6:	105b      	asrs	r3, r3, #1
 80003c8:	4610      	mov	r0, r2
 80003ca:	d301      	bcc.n	80003d0 <__divsi3+0x1b4>
 80003cc:	4240      	negs	r0, r0
 80003ce:	2b00      	cmp	r3, #0
 80003d0:	d500      	bpl.n	80003d4 <__divsi3+0x1b8>
 80003d2:	4249      	negs	r1, r1
 80003d4:	4770      	bx	lr
 80003d6:	4663      	mov	r3, ip
 80003d8:	105b      	asrs	r3, r3, #1
 80003da:	d300      	bcc.n	80003de <__divsi3+0x1c2>
 80003dc:	4240      	negs	r0, r0
 80003de:	b501      	push	{r0, lr}
 80003e0:	2000      	movs	r0, #0
 80003e2:	f000 f805 	bl	80003f0 <__aeabi_idiv0>
 80003e6:	bd02      	pop	{r1, pc}

080003e8 <__aeabi_idivmod>:
 80003e8:	2900      	cmp	r1, #0
 80003ea:	d0f8      	beq.n	80003de <__divsi3+0x1c2>
 80003ec:	e716      	b.n	800021c <__divsi3>
 80003ee:	4770      	bx	lr

080003f0 <__aeabi_idiv0>:
 80003f0:	4770      	bx	lr
 80003f2:	46c0      	nop			; (mov r8, r8)

080003f4 <__aeabi_cfrcmple>:
 80003f4:	4684      	mov	ip, r0
 80003f6:	1c08      	adds	r0, r1, #0
 80003f8:	4661      	mov	r1, ip
 80003fa:	e7ff      	b.n	80003fc <__aeabi_cfcmpeq>

080003fc <__aeabi_cfcmpeq>:
 80003fc:	b51f      	push	{r0, r1, r2, r3, r4, lr}
 80003fe:	f000 fc53 	bl	8000ca8 <__lesf2>
 8000402:	2800      	cmp	r0, #0
 8000404:	d401      	bmi.n	800040a <__aeabi_cfcmpeq+0xe>
 8000406:	2100      	movs	r1, #0
 8000408:	42c8      	cmn	r0, r1
 800040a:	bd1f      	pop	{r0, r1, r2, r3, r4, pc}

0800040c <__aeabi_fcmpeq>:
 800040c:	b510      	push	{r4, lr}
 800040e:	f000 fbe5 	bl	8000bdc <__eqsf2>
 8000412:	4240      	negs	r0, r0
 8000414:	3001      	adds	r0, #1
 8000416:	bd10      	pop	{r4, pc}

08000418 <__aeabi_fcmplt>:
 8000418:	b510      	push	{r4, lr}
 800041a:	f000 fc45 	bl	8000ca8 <__lesf2>
 800041e:	2800      	cmp	r0, #0
 8000420:	db01      	blt.n	8000426 <__aeabi_fcmplt+0xe>
 8000422:	2000      	movs	r0, #0
 8000424:	bd10      	pop	{r4, pc}
 8000426:	2001      	movs	r0, #1
 8000428:	bd10      	pop	{r4, pc}
 800042a:	46c0      	nop			; (mov r8, r8)

0800042c <__aeabi_fcmple>:
 800042c:	b510      	push	{r4, lr}
 800042e:	f000 fc3b 	bl	8000ca8 <__lesf2>
 8000432:	2800      	cmp	r0, #0
 8000434:	dd01      	ble.n	800043a <__aeabi_fcmple+0xe>
 8000436:	2000      	movs	r0, #0
 8000438:	bd10      	pop	{r4, pc}
 800043a:	2001      	movs	r0, #1
 800043c:	bd10      	pop	{r4, pc}
 800043e:	46c0      	nop			; (mov r8, r8)

08000440 <__aeabi_fcmpgt>:
 8000440:	b510      	push	{r4, lr}
 8000442:	f000 fbf1 	bl	8000c28 <__gesf2>
 8000446:	2800      	cmp	r0, #0
 8000448:	dc01      	bgt.n	800044e <__aeabi_fcmpgt+0xe>
 800044a:	2000      	movs	r0, #0
 800044c:	bd10      	pop	{r4, pc}
 800044e:	2001      	movs	r0, #1
 8000450:	bd10      	pop	{r4, pc}
 8000452:	46c0      	nop			; (mov r8, r8)

08000454 <__aeabi_fcmpge>:
 8000454:	b510      	push	{r4, lr}
 8000456:	f000 fbe7 	bl	8000c28 <__gesf2>
 800045a:	2800      	cmp	r0, #0
 800045c:	da01      	bge.n	8000462 <__aeabi_fcmpge+0xe>
 800045e:	2000      	movs	r0, #0
 8000460:	bd10      	pop	{r4, pc}
 8000462:	2001      	movs	r0, #1
 8000464:	bd10      	pop	{r4, pc}
 8000466:	46c0      	nop			; (mov r8, r8)

08000468 <__aeabi_uldivmod>:
 8000468:	2b00      	cmp	r3, #0
 800046a:	d111      	bne.n	8000490 <__aeabi_uldivmod+0x28>
 800046c:	2a00      	cmp	r2, #0
 800046e:	d10f      	bne.n	8000490 <__aeabi_uldivmod+0x28>
 8000470:	2900      	cmp	r1, #0
 8000472:	d100      	bne.n	8000476 <__aeabi_uldivmod+0xe>
 8000474:	2800      	cmp	r0, #0
 8000476:	d002      	beq.n	800047e <__aeabi_uldivmod+0x16>
 8000478:	2100      	movs	r1, #0
 800047a:	43c9      	mvns	r1, r1
 800047c:	1c08      	adds	r0, r1, #0
 800047e:	b407      	push	{r0, r1, r2}
 8000480:	4802      	ldr	r0, [pc, #8]	; (800048c <__aeabi_uldivmod+0x24>)
 8000482:	a102      	add	r1, pc, #8	; (adr r1, 800048c <__aeabi_uldivmod+0x24>)
 8000484:	1840      	adds	r0, r0, r1
 8000486:	9002      	str	r0, [sp, #8]
 8000488:	bd03      	pop	{r0, r1, pc}
 800048a:	46c0      	nop			; (mov r8, r8)
 800048c:	ffffff65 	.word	0xffffff65
 8000490:	b403      	push	{r0, r1}
 8000492:	4668      	mov	r0, sp
 8000494:	b501      	push	{r0, lr}
 8000496:	9802      	ldr	r0, [sp, #8]
 8000498:	f000 f806 	bl	80004a8 <__udivmoddi4>
 800049c:	9b01      	ldr	r3, [sp, #4]
 800049e:	469e      	mov	lr, r3
 80004a0:	b002      	add	sp, #8
 80004a2:	bc0c      	pop	{r2, r3}
 80004a4:	4770      	bx	lr
 80004a6:	46c0      	nop			; (mov r8, r8)

080004a8 <__udivmoddi4>:
 80004a8:	b5f0      	push	{r4, r5, r6, r7, lr}
 80004aa:	4657      	mov	r7, sl
 80004ac:	464e      	mov	r6, r9
 80004ae:	4645      	mov	r5, r8
 80004b0:	46de      	mov	lr, fp
 80004b2:	b5e0      	push	{r5, r6, r7, lr}
 80004b4:	0004      	movs	r4, r0
 80004b6:	b083      	sub	sp, #12
 80004b8:	000d      	movs	r5, r1
 80004ba:	4692      	mov	sl, r2
 80004bc:	4699      	mov	r9, r3
 80004be:	428b      	cmp	r3, r1
 80004c0:	d82f      	bhi.n	8000522 <__udivmoddi4+0x7a>
 80004c2:	d02c      	beq.n	800051e <__udivmoddi4+0x76>
 80004c4:	4649      	mov	r1, r9
 80004c6:	4650      	mov	r0, sl
 80004c8:	f000 ff7a 	bl	80013c0 <__clzdi2>
 80004cc:	0029      	movs	r1, r5
 80004ce:	0006      	movs	r6, r0
 80004d0:	0020      	movs	r0, r4
 80004d2:	f000 ff75 	bl	80013c0 <__clzdi2>
 80004d6:	1a33      	subs	r3, r6, r0
 80004d8:	4698      	mov	r8, r3
 80004da:	3b20      	subs	r3, #32
 80004dc:	469b      	mov	fp, r3
 80004de:	d500      	bpl.n	80004e2 <__udivmoddi4+0x3a>
 80004e0:	e074      	b.n	80005cc <__udivmoddi4+0x124>
 80004e2:	4653      	mov	r3, sl
 80004e4:	465a      	mov	r2, fp
 80004e6:	4093      	lsls	r3, r2
 80004e8:	001f      	movs	r7, r3
 80004ea:	4653      	mov	r3, sl
 80004ec:	4642      	mov	r2, r8
 80004ee:	4093      	lsls	r3, r2
 80004f0:	001e      	movs	r6, r3
 80004f2:	42af      	cmp	r7, r5
 80004f4:	d829      	bhi.n	800054a <__udivmoddi4+0xa2>
 80004f6:	d026      	beq.n	8000546 <__udivmoddi4+0x9e>
 80004f8:	465b      	mov	r3, fp
 80004fa:	1ba4      	subs	r4, r4, r6
 80004fc:	41bd      	sbcs	r5, r7
 80004fe:	2b00      	cmp	r3, #0
 8000500:	da00      	bge.n	8000504 <__udivmoddi4+0x5c>
 8000502:	e079      	b.n	80005f8 <__udivmoddi4+0x150>
 8000504:	2200      	movs	r2, #0
 8000506:	2300      	movs	r3, #0
 8000508:	9200      	str	r2, [sp, #0]
 800050a:	9301      	str	r3, [sp, #4]
 800050c:	2301      	movs	r3, #1
 800050e:	465a      	mov	r2, fp
 8000510:	4093      	lsls	r3, r2
 8000512:	9301      	str	r3, [sp, #4]
 8000514:	2301      	movs	r3, #1
 8000516:	4642      	mov	r2, r8
 8000518:	4093      	lsls	r3, r2
 800051a:	9300      	str	r3, [sp, #0]
 800051c:	e019      	b.n	8000552 <__udivmoddi4+0xaa>
 800051e:	4282      	cmp	r2, r0
 8000520:	d9d0      	bls.n	80004c4 <__udivmoddi4+0x1c>
 8000522:	2200      	movs	r2, #0
 8000524:	2300      	movs	r3, #0
 8000526:	9200      	str	r2, [sp, #0]
 8000528:	9301      	str	r3, [sp, #4]
 800052a:	9b0c      	ldr	r3, [sp, #48]	; 0x30
 800052c:	2b00      	cmp	r3, #0
 800052e:	d001      	beq.n	8000534 <__udivmoddi4+0x8c>
 8000530:	601c      	str	r4, [r3, #0]
 8000532:	605d      	str	r5, [r3, #4]
 8000534:	9800      	ldr	r0, [sp, #0]
 8000536:	9901      	ldr	r1, [sp, #4]
 8000538:	b003      	add	sp, #12
 800053a:	bc3c      	pop	{r2, r3, r4, r5}
 800053c:	4690      	mov	r8, r2
 800053e:	4699      	mov	r9, r3
 8000540:	46a2      	mov	sl, r4
 8000542:	46ab      	mov	fp, r5
 8000544:	bdf0      	pop	{r4, r5, r6, r7, pc}
 8000546:	42a3      	cmp	r3, r4
 8000548:	d9d6      	bls.n	80004f8 <__udivmoddi4+0x50>
 800054a:	2200      	movs	r2, #0
 800054c:	2300      	movs	r3, #0
 800054e:	9200      	str	r2, [sp, #0]
 8000550:	9301      	str	r3, [sp, #4]
 8000552:	4643      	mov	r3, r8
 8000554:	2b00      	cmp	r3, #0
 8000556:	d0e8      	beq.n	800052a <__udivmoddi4+0x82>
 8000558:	07fb      	lsls	r3, r7, #31
 800055a:	0872      	lsrs	r2, r6, #1
 800055c:	431a      	orrs	r2, r3
 800055e:	4646      	mov	r6, r8
 8000560:	087b      	lsrs	r3, r7, #1
 8000562:	e00e      	b.n	8000582 <__udivmoddi4+0xda>
 8000564:	42ab      	cmp	r3, r5
 8000566:	d101      	bne.n	800056c <__udivmoddi4+0xc4>
 8000568:	42a2      	cmp	r2, r4
 800056a:	d80c      	bhi.n	8000586 <__udivmoddi4+0xde>
 800056c:	1aa4      	subs	r4, r4, r2
 800056e:	419d      	sbcs	r5, r3
 8000570:	2001      	movs	r0, #1
 8000572:	1924      	adds	r4, r4, r4
 8000574:	416d      	adcs	r5, r5
 8000576:	2100      	movs	r1, #0
 8000578:	3e01      	subs	r6, #1
 800057a:	1824      	adds	r4, r4, r0
 800057c:	414d      	adcs	r5, r1
 800057e:	2e00      	cmp	r6, #0
 8000580:	d006      	beq.n	8000590 <__udivmoddi4+0xe8>
 8000582:	42ab      	cmp	r3, r5
 8000584:	d9ee      	bls.n	8000564 <__udivmoddi4+0xbc>
 8000586:	3e01      	subs	r6, #1
 8000588:	1924      	adds	r4, r4, r4
 800058a:	416d      	adcs	r5, r5
 800058c:	2e00      	cmp	r6, #0
 800058e:	d1f8      	bne.n	8000582 <__udivmoddi4+0xda>
 8000590:	465b      	mov	r3, fp
 8000592:	9800      	ldr	r0, [sp, #0]
 8000594:	9901      	ldr	r1, [sp, #4]
 8000596:	1900      	adds	r0, r0, r4
 8000598:	4169      	adcs	r1, r5
 800059a:	2b00      	cmp	r3, #0
 800059c:	db22      	blt.n	80005e4 <__udivmoddi4+0x13c>
 800059e:	002b      	movs	r3, r5
 80005a0:	465a      	mov	r2, fp
 80005a2:	40d3      	lsrs	r3, r2
 80005a4:	002a      	movs	r2, r5
 80005a6:	4644      	mov	r4, r8
 80005a8:	40e2      	lsrs	r2, r4
 80005aa:	001c      	movs	r4, r3
 80005ac:	465b      	mov	r3, fp
 80005ae:	0015      	movs	r5, r2
 80005b0:	2b00      	cmp	r3, #0
 80005b2:	db2c      	blt.n	800060e <__udivmoddi4+0x166>
 80005b4:	0026      	movs	r6, r4
 80005b6:	409e      	lsls	r6, r3
 80005b8:	0033      	movs	r3, r6
 80005ba:	0026      	movs	r6, r4
 80005bc:	4647      	mov	r7, r8
 80005be:	40be      	lsls	r6, r7
 80005c0:	0032      	movs	r2, r6
 80005c2:	1a80      	subs	r0, r0, r2
 80005c4:	4199      	sbcs	r1, r3
 80005c6:	9000      	str	r0, [sp, #0]
 80005c8:	9101      	str	r1, [sp, #4]
 80005ca:	e7ae      	b.n	800052a <__udivmoddi4+0x82>
 80005cc:	4642      	mov	r2, r8
 80005ce:	2320      	movs	r3, #32
 80005d0:	1a9b      	subs	r3, r3, r2
 80005d2:	4652      	mov	r2, sl
 80005d4:	40da      	lsrs	r2, r3
 80005d6:	4641      	mov	r1, r8
 80005d8:	0013      	movs	r3, r2
 80005da:	464a      	mov	r2, r9
 80005dc:	408a      	lsls	r2, r1
 80005de:	0017      	movs	r7, r2
 80005e0:	431f      	orrs	r7, r3
 80005e2:	e782      	b.n	80004ea <__udivmoddi4+0x42>
 80005e4:	4642      	mov	r2, r8
 80005e6:	2320      	movs	r3, #32
 80005e8:	1a9b      	subs	r3, r3, r2
 80005ea:	002a      	movs	r2, r5
 80005ec:	4646      	mov	r6, r8
 80005ee:	409a      	lsls	r2, r3
 80005f0:	0023      	movs	r3, r4
 80005f2:	40f3      	lsrs	r3, r6
 80005f4:	4313      	orrs	r3, r2
 80005f6:	e7d5      	b.n	80005a4 <__udivmoddi4+0xfc>
 80005f8:	4642      	mov	r2, r8
 80005fa:	2320      	movs	r3, #32
 80005fc:	2100      	movs	r1, #0
 80005fe:	1a9b      	subs	r3, r3, r2
 8000600:	2200      	movs	r2, #0
 8000602:	9100      	str	r1, [sp, #0]
 8000604:	9201      	str	r2, [sp, #4]
 8000606:	2201      	movs	r2, #1
 8000608:	40da      	lsrs	r2, r3
 800060a:	9201      	str	r2, [sp, #4]
 800060c:	e782      	b.n	8000514 <__udivmoddi4+0x6c>
 800060e:	4642      	mov	r2, r8
 8000610:	2320      	movs	r3, #32
 8000612:	0026      	movs	r6, r4
 8000614:	1a9b      	subs	r3, r3, r2
 8000616:	40de      	lsrs	r6, r3
 8000618:	002f      	movs	r7, r5
 800061a:	46b4      	mov	ip, r6
 800061c:	4097      	lsls	r7, r2
 800061e:	4666      	mov	r6, ip
 8000620:	003b      	movs	r3, r7
 8000622:	4333      	orrs	r3, r6
 8000624:	e7c9      	b.n	80005ba <__udivmoddi4+0x112>
 8000626:	46c0      	nop			; (mov r8, r8)

08000628 <__aeabi_fadd>:
 8000628:	b5f0      	push	{r4, r5, r6, r7, lr}
 800062a:	46c6      	mov	lr, r8
 800062c:	024e      	lsls	r6, r1, #9
 800062e:	0247      	lsls	r7, r0, #9
 8000630:	0a76      	lsrs	r6, r6, #9
 8000632:	0a7b      	lsrs	r3, r7, #9
 8000634:	0044      	lsls	r4, r0, #1
 8000636:	0fc5      	lsrs	r5, r0, #31
 8000638:	00f7      	lsls	r7, r6, #3
 800063a:	0048      	lsls	r0, r1, #1
 800063c:	4698      	mov	r8, r3
 800063e:	b500      	push	{lr}
 8000640:	0e24      	lsrs	r4, r4, #24
 8000642:	002a      	movs	r2, r5
 8000644:	00db      	lsls	r3, r3, #3
 8000646:	0e00      	lsrs	r0, r0, #24
 8000648:	0fc9      	lsrs	r1, r1, #31
 800064a:	46bc      	mov	ip, r7
 800064c:	428d      	cmp	r5, r1
 800064e:	d067      	beq.n	8000720 <__aeabi_fadd+0xf8>
 8000650:	1a22      	subs	r2, r4, r0
 8000652:	2a00      	cmp	r2, #0
 8000654:	dc00      	bgt.n	8000658 <__aeabi_fadd+0x30>
 8000656:	e0a5      	b.n	80007a4 <__aeabi_fadd+0x17c>
 8000658:	2800      	cmp	r0, #0
 800065a:	d13a      	bne.n	80006d2 <__aeabi_fadd+0xaa>
 800065c:	2f00      	cmp	r7, #0
 800065e:	d100      	bne.n	8000662 <__aeabi_fadd+0x3a>
 8000660:	e093      	b.n	800078a <__aeabi_fadd+0x162>
 8000662:	1e51      	subs	r1, r2, #1
 8000664:	2900      	cmp	r1, #0
 8000666:	d000      	beq.n	800066a <__aeabi_fadd+0x42>
 8000668:	e0bc      	b.n	80007e4 <__aeabi_fadd+0x1bc>
 800066a:	2401      	movs	r4, #1
 800066c:	1bdb      	subs	r3, r3, r7
 800066e:	015a      	lsls	r2, r3, #5
 8000670:	d546      	bpl.n	8000700 <__aeabi_fadd+0xd8>
 8000672:	019b      	lsls	r3, r3, #6
 8000674:	099e      	lsrs	r6, r3, #6
 8000676:	0030      	movs	r0, r6
 8000678:	f000 fe84 	bl	8001384 <__clzsi2>
 800067c:	3805      	subs	r0, #5
 800067e:	4086      	lsls	r6, r0
 8000680:	4284      	cmp	r4, r0
 8000682:	dd00      	ble.n	8000686 <__aeabi_fadd+0x5e>
 8000684:	e09d      	b.n	80007c2 <__aeabi_fadd+0x19a>
 8000686:	1b04      	subs	r4, r0, r4
 8000688:	0032      	movs	r2, r6
 800068a:	2020      	movs	r0, #32
 800068c:	3401      	adds	r4, #1
 800068e:	40e2      	lsrs	r2, r4
 8000690:	1b04      	subs	r4, r0, r4
 8000692:	40a6      	lsls	r6, r4
 8000694:	0033      	movs	r3, r6
 8000696:	1e5e      	subs	r6, r3, #1
 8000698:	41b3      	sbcs	r3, r6
 800069a:	2400      	movs	r4, #0
 800069c:	4313      	orrs	r3, r2
 800069e:	075a      	lsls	r2, r3, #29
 80006a0:	d004      	beq.n	80006ac <__aeabi_fadd+0x84>
 80006a2:	220f      	movs	r2, #15
 80006a4:	401a      	ands	r2, r3
 80006a6:	2a04      	cmp	r2, #4
 80006a8:	d000      	beq.n	80006ac <__aeabi_fadd+0x84>
 80006aa:	3304      	adds	r3, #4
 80006ac:	015a      	lsls	r2, r3, #5
 80006ae:	d529      	bpl.n	8000704 <__aeabi_fadd+0xdc>
 80006b0:	3401      	adds	r4, #1
 80006b2:	2cff      	cmp	r4, #255	; 0xff
 80006b4:	d100      	bne.n	80006b8 <__aeabi_fadd+0x90>
 80006b6:	e081      	b.n	80007bc <__aeabi_fadd+0x194>
 80006b8:	002a      	movs	r2, r5
 80006ba:	019b      	lsls	r3, r3, #6
 80006bc:	0a5b      	lsrs	r3, r3, #9
 80006be:	b2e4      	uxtb	r4, r4
 80006c0:	025b      	lsls	r3, r3, #9
 80006c2:	05e4      	lsls	r4, r4, #23
 80006c4:	0a58      	lsrs	r0, r3, #9
 80006c6:	07d2      	lsls	r2, r2, #31
 80006c8:	4320      	orrs	r0, r4
 80006ca:	4310      	orrs	r0, r2
 80006cc:	bc04      	pop	{r2}
 80006ce:	4690      	mov	r8, r2
 80006d0:	bdf0      	pop	{r4, r5, r6, r7, pc}
 80006d2:	2cff      	cmp	r4, #255	; 0xff
 80006d4:	d0e3      	beq.n	800069e <__aeabi_fadd+0x76>
 80006d6:	2180      	movs	r1, #128	; 0x80
 80006d8:	0038      	movs	r0, r7
 80006da:	04c9      	lsls	r1, r1, #19
 80006dc:	4308      	orrs	r0, r1
 80006de:	4684      	mov	ip, r0
 80006e0:	2a1b      	cmp	r2, #27
 80006e2:	dd00      	ble.n	80006e6 <__aeabi_fadd+0xbe>
 80006e4:	e082      	b.n	80007ec <__aeabi_fadd+0x1c4>
 80006e6:	2020      	movs	r0, #32
 80006e8:	4661      	mov	r1, ip
 80006ea:	40d1      	lsrs	r1, r2
 80006ec:	1a82      	subs	r2, r0, r2
 80006ee:	4660      	mov	r0, ip
 80006f0:	4090      	lsls	r0, r2
 80006f2:	0002      	movs	r2, r0
 80006f4:	1e50      	subs	r0, r2, #1
 80006f6:	4182      	sbcs	r2, r0
 80006f8:	430a      	orrs	r2, r1
 80006fa:	1a9b      	subs	r3, r3, r2
 80006fc:	015a      	lsls	r2, r3, #5
 80006fe:	d4b8      	bmi.n	8000672 <__aeabi_fadd+0x4a>
 8000700:	075a      	lsls	r2, r3, #29
 8000702:	d1ce      	bne.n	80006a2 <__aeabi_fadd+0x7a>
 8000704:	08de      	lsrs	r6, r3, #3
 8000706:	002a      	movs	r2, r5
 8000708:	2cff      	cmp	r4, #255	; 0xff
 800070a:	d13a      	bne.n	8000782 <__aeabi_fadd+0x15a>
 800070c:	2e00      	cmp	r6, #0
 800070e:	d100      	bne.n	8000712 <__aeabi_fadd+0xea>
 8000710:	e0ae      	b.n	8000870 <__aeabi_fadd+0x248>
 8000712:	2380      	movs	r3, #128	; 0x80
 8000714:	03db      	lsls	r3, r3, #15
 8000716:	4333      	orrs	r3, r6
 8000718:	025b      	lsls	r3, r3, #9
 800071a:	0a5b      	lsrs	r3, r3, #9
 800071c:	24ff      	movs	r4, #255	; 0xff
 800071e:	e7cf      	b.n	80006c0 <__aeabi_fadd+0x98>
 8000720:	1a21      	subs	r1, r4, r0
 8000722:	2900      	cmp	r1, #0
 8000724:	dd52      	ble.n	80007cc <__aeabi_fadd+0x1a4>
 8000726:	2800      	cmp	r0, #0
 8000728:	d031      	beq.n	800078e <__aeabi_fadd+0x166>
 800072a:	2cff      	cmp	r4, #255	; 0xff
 800072c:	d0b7      	beq.n	800069e <__aeabi_fadd+0x76>
 800072e:	2080      	movs	r0, #128	; 0x80
 8000730:	003e      	movs	r6, r7
 8000732:	04c0      	lsls	r0, r0, #19
 8000734:	4306      	orrs	r6, r0
 8000736:	46b4      	mov	ip, r6
 8000738:	291b      	cmp	r1, #27
 800073a:	dd00      	ble.n	800073e <__aeabi_fadd+0x116>
 800073c:	e0aa      	b.n	8000894 <__aeabi_fadd+0x26c>
 800073e:	2620      	movs	r6, #32
 8000740:	4660      	mov	r0, ip
 8000742:	40c8      	lsrs	r0, r1
 8000744:	1a71      	subs	r1, r6, r1
 8000746:	4666      	mov	r6, ip
 8000748:	408e      	lsls	r6, r1
 800074a:	0031      	movs	r1, r6
 800074c:	1e4e      	subs	r6, r1, #1
 800074e:	41b1      	sbcs	r1, r6
 8000750:	4301      	orrs	r1, r0
 8000752:	185b      	adds	r3, r3, r1
 8000754:	0159      	lsls	r1, r3, #5
 8000756:	d5d3      	bpl.n	8000700 <__aeabi_fadd+0xd8>
 8000758:	3401      	adds	r4, #1
 800075a:	2cff      	cmp	r4, #255	; 0xff
 800075c:	d100      	bne.n	8000760 <__aeabi_fadd+0x138>
 800075e:	e087      	b.n	8000870 <__aeabi_fadd+0x248>
 8000760:	2201      	movs	r2, #1
 8000762:	4978      	ldr	r1, [pc, #480]	; (8000944 <__aeabi_fadd+0x31c>)
 8000764:	401a      	ands	r2, r3
 8000766:	085b      	lsrs	r3, r3, #1
 8000768:	400b      	ands	r3, r1
 800076a:	4313      	orrs	r3, r2
 800076c:	e797      	b.n	800069e <__aeabi_fadd+0x76>
 800076e:	2c00      	cmp	r4, #0
 8000770:	d000      	beq.n	8000774 <__aeabi_fadd+0x14c>
 8000772:	e0a7      	b.n	80008c4 <__aeabi_fadd+0x29c>
 8000774:	2b00      	cmp	r3, #0
 8000776:	d000      	beq.n	800077a <__aeabi_fadd+0x152>
 8000778:	e0b6      	b.n	80008e8 <__aeabi_fadd+0x2c0>
 800077a:	1e3b      	subs	r3, r7, #0
 800077c:	d162      	bne.n	8000844 <__aeabi_fadd+0x21c>
 800077e:	2600      	movs	r6, #0
 8000780:	2200      	movs	r2, #0
 8000782:	0273      	lsls	r3, r6, #9
 8000784:	0a5b      	lsrs	r3, r3, #9
 8000786:	b2e4      	uxtb	r4, r4
 8000788:	e79a      	b.n	80006c0 <__aeabi_fadd+0x98>
 800078a:	0014      	movs	r4, r2
 800078c:	e787      	b.n	800069e <__aeabi_fadd+0x76>
 800078e:	2f00      	cmp	r7, #0
 8000790:	d04d      	beq.n	800082e <__aeabi_fadd+0x206>
 8000792:	1e48      	subs	r0, r1, #1
 8000794:	2800      	cmp	r0, #0
 8000796:	d157      	bne.n	8000848 <__aeabi_fadd+0x220>
 8000798:	4463      	add	r3, ip
 800079a:	2401      	movs	r4, #1
 800079c:	015a      	lsls	r2, r3, #5
 800079e:	d5af      	bpl.n	8000700 <__aeabi_fadd+0xd8>
 80007a0:	2402      	movs	r4, #2
 80007a2:	e7dd      	b.n	8000760 <__aeabi_fadd+0x138>
 80007a4:	2a00      	cmp	r2, #0
 80007a6:	d124      	bne.n	80007f2 <__aeabi_fadd+0x1ca>
 80007a8:	1c62      	adds	r2, r4, #1
 80007aa:	b2d2      	uxtb	r2, r2
 80007ac:	2a01      	cmp	r2, #1
 80007ae:	ddde      	ble.n	800076e <__aeabi_fadd+0x146>
 80007b0:	1bde      	subs	r6, r3, r7
 80007b2:	0172      	lsls	r2, r6, #5
 80007b4:	d535      	bpl.n	8000822 <__aeabi_fadd+0x1fa>
 80007b6:	1afe      	subs	r6, r7, r3
 80007b8:	000d      	movs	r5, r1
 80007ba:	e75c      	b.n	8000676 <__aeabi_fadd+0x4e>
 80007bc:	002a      	movs	r2, r5
 80007be:	2300      	movs	r3, #0
 80007c0:	e77e      	b.n	80006c0 <__aeabi_fadd+0x98>
 80007c2:	0033      	movs	r3, r6
 80007c4:	4a60      	ldr	r2, [pc, #384]	; (8000948 <__aeabi_fadd+0x320>)
 80007c6:	1a24      	subs	r4, r4, r0
 80007c8:	4013      	ands	r3, r2
 80007ca:	e768      	b.n	800069e <__aeabi_fadd+0x76>
 80007cc:	2900      	cmp	r1, #0
 80007ce:	d163      	bne.n	8000898 <__aeabi_fadd+0x270>
 80007d0:	1c61      	adds	r1, r4, #1
 80007d2:	b2c8      	uxtb	r0, r1
 80007d4:	2801      	cmp	r0, #1
 80007d6:	dd4e      	ble.n	8000876 <__aeabi_fadd+0x24e>
 80007d8:	29ff      	cmp	r1, #255	; 0xff
 80007da:	d049      	beq.n	8000870 <__aeabi_fadd+0x248>
 80007dc:	4463      	add	r3, ip
 80007de:	085b      	lsrs	r3, r3, #1
 80007e0:	000c      	movs	r4, r1
 80007e2:	e75c      	b.n	800069e <__aeabi_fadd+0x76>
 80007e4:	2aff      	cmp	r2, #255	; 0xff
 80007e6:	d041      	beq.n	800086c <__aeabi_fadd+0x244>
 80007e8:	000a      	movs	r2, r1
 80007ea:	e779      	b.n	80006e0 <__aeabi_fadd+0xb8>
 80007ec:	2201      	movs	r2, #1
 80007ee:	1a9b      	subs	r3, r3, r2
 80007f0:	e784      	b.n	80006fc <__aeabi_fadd+0xd4>
 80007f2:	2c00      	cmp	r4, #0
 80007f4:	d01d      	beq.n	8000832 <__aeabi_fadd+0x20a>
 80007f6:	28ff      	cmp	r0, #255	; 0xff
 80007f8:	d022      	beq.n	8000840 <__aeabi_fadd+0x218>
 80007fa:	2480      	movs	r4, #128	; 0x80
 80007fc:	04e4      	lsls	r4, r4, #19
 80007fe:	4252      	negs	r2, r2
 8000800:	4323      	orrs	r3, r4
 8000802:	2a1b      	cmp	r2, #27
 8000804:	dd00      	ble.n	8000808 <__aeabi_fadd+0x1e0>
 8000806:	e08a      	b.n	800091e <__aeabi_fadd+0x2f6>
 8000808:	001c      	movs	r4, r3
 800080a:	2520      	movs	r5, #32
 800080c:	40d4      	lsrs	r4, r2
 800080e:	1aaa      	subs	r2, r5, r2
 8000810:	4093      	lsls	r3, r2
 8000812:	1e5a      	subs	r2, r3, #1
 8000814:	4193      	sbcs	r3, r2
 8000816:	4323      	orrs	r3, r4
 8000818:	4662      	mov	r2, ip
 800081a:	0004      	movs	r4, r0
 800081c:	1ad3      	subs	r3, r2, r3
 800081e:	000d      	movs	r5, r1
 8000820:	e725      	b.n	800066e <__aeabi_fadd+0x46>
 8000822:	2e00      	cmp	r6, #0
 8000824:	d000      	beq.n	8000828 <__aeabi_fadd+0x200>
 8000826:	e726      	b.n	8000676 <__aeabi_fadd+0x4e>
 8000828:	2200      	movs	r2, #0
 800082a:	2400      	movs	r4, #0
 800082c:	e7a9      	b.n	8000782 <__aeabi_fadd+0x15a>
 800082e:	000c      	movs	r4, r1
 8000830:	e735      	b.n	800069e <__aeabi_fadd+0x76>
 8000832:	2b00      	cmp	r3, #0
 8000834:	d04d      	beq.n	80008d2 <__aeabi_fadd+0x2aa>
 8000836:	43d2      	mvns	r2, r2
 8000838:	2a00      	cmp	r2, #0
 800083a:	d0ed      	beq.n	8000818 <__aeabi_fadd+0x1f0>
 800083c:	28ff      	cmp	r0, #255	; 0xff
 800083e:	d1e0      	bne.n	8000802 <__aeabi_fadd+0x1da>
 8000840:	4663      	mov	r3, ip
 8000842:	24ff      	movs	r4, #255	; 0xff
 8000844:	000d      	movs	r5, r1
 8000846:	e72a      	b.n	800069e <__aeabi_fadd+0x76>
 8000848:	29ff      	cmp	r1, #255	; 0xff
 800084a:	d00f      	beq.n	800086c <__aeabi_fadd+0x244>
 800084c:	0001      	movs	r1, r0
 800084e:	e773      	b.n	8000738 <__aeabi_fadd+0x110>
 8000850:	2b00      	cmp	r3, #0
 8000852:	d061      	beq.n	8000918 <__aeabi_fadd+0x2f0>
 8000854:	24ff      	movs	r4, #255	; 0xff
 8000856:	2f00      	cmp	r7, #0
 8000858:	d100      	bne.n	800085c <__aeabi_fadd+0x234>
 800085a:	e720      	b.n	800069e <__aeabi_fadd+0x76>
 800085c:	2280      	movs	r2, #128	; 0x80
 800085e:	4641      	mov	r1, r8
 8000860:	03d2      	lsls	r2, r2, #15
 8000862:	4211      	tst	r1, r2
 8000864:	d002      	beq.n	800086c <__aeabi_fadd+0x244>
 8000866:	4216      	tst	r6, r2
 8000868:	d100      	bne.n	800086c <__aeabi_fadd+0x244>
 800086a:	003b      	movs	r3, r7
 800086c:	24ff      	movs	r4, #255	; 0xff
 800086e:	e716      	b.n	800069e <__aeabi_fadd+0x76>
 8000870:	24ff      	movs	r4, #255	; 0xff
 8000872:	2300      	movs	r3, #0
 8000874:	e724      	b.n	80006c0 <__aeabi_fadd+0x98>
 8000876:	2c00      	cmp	r4, #0
 8000878:	d1ea      	bne.n	8000850 <__aeabi_fadd+0x228>
 800087a:	2b00      	cmp	r3, #0
 800087c:	d058      	beq.n	8000930 <__aeabi_fadd+0x308>
 800087e:	2f00      	cmp	r7, #0
 8000880:	d100      	bne.n	8000884 <__aeabi_fadd+0x25c>
 8000882:	e70c      	b.n	800069e <__aeabi_fadd+0x76>
 8000884:	4463      	add	r3, ip
 8000886:	015a      	lsls	r2, r3, #5
 8000888:	d400      	bmi.n	800088c <__aeabi_fadd+0x264>
 800088a:	e739      	b.n	8000700 <__aeabi_fadd+0xd8>
 800088c:	4a2e      	ldr	r2, [pc, #184]	; (8000948 <__aeabi_fadd+0x320>)
 800088e:	000c      	movs	r4, r1
 8000890:	4013      	ands	r3, r2
 8000892:	e704      	b.n	800069e <__aeabi_fadd+0x76>
 8000894:	2101      	movs	r1, #1
 8000896:	e75c      	b.n	8000752 <__aeabi_fadd+0x12a>
 8000898:	2c00      	cmp	r4, #0
 800089a:	d11e      	bne.n	80008da <__aeabi_fadd+0x2b2>
 800089c:	2b00      	cmp	r3, #0
 800089e:	d040      	beq.n	8000922 <__aeabi_fadd+0x2fa>
 80008a0:	43c9      	mvns	r1, r1
 80008a2:	2900      	cmp	r1, #0
 80008a4:	d00b      	beq.n	80008be <__aeabi_fadd+0x296>
 80008a6:	28ff      	cmp	r0, #255	; 0xff
 80008a8:	d036      	beq.n	8000918 <__aeabi_fadd+0x2f0>
 80008aa:	291b      	cmp	r1, #27
 80008ac:	dc47      	bgt.n	800093e <__aeabi_fadd+0x316>
 80008ae:	001c      	movs	r4, r3
 80008b0:	2620      	movs	r6, #32
 80008b2:	40cc      	lsrs	r4, r1
 80008b4:	1a71      	subs	r1, r6, r1
 80008b6:	408b      	lsls	r3, r1
 80008b8:	1e59      	subs	r1, r3, #1
 80008ba:	418b      	sbcs	r3, r1
 80008bc:	4323      	orrs	r3, r4
 80008be:	4463      	add	r3, ip
 80008c0:	0004      	movs	r4, r0
 80008c2:	e747      	b.n	8000754 <__aeabi_fadd+0x12c>
 80008c4:	2b00      	cmp	r3, #0
 80008c6:	d118      	bne.n	80008fa <__aeabi_fadd+0x2d2>
 80008c8:	1e3b      	subs	r3, r7, #0
 80008ca:	d02d      	beq.n	8000928 <__aeabi_fadd+0x300>
 80008cc:	000d      	movs	r5, r1
 80008ce:	24ff      	movs	r4, #255	; 0xff
 80008d0:	e6e5      	b.n	800069e <__aeabi_fadd+0x76>
 80008d2:	003b      	movs	r3, r7
 80008d4:	0004      	movs	r4, r0
 80008d6:	000d      	movs	r5, r1
 80008d8:	e6e1      	b.n	800069e <__aeabi_fadd+0x76>
 80008da:	28ff      	cmp	r0, #255	; 0xff
 80008dc:	d01c      	beq.n	8000918 <__aeabi_fadd+0x2f0>
 80008de:	2480      	movs	r4, #128	; 0x80
 80008e0:	04e4      	lsls	r4, r4, #19
 80008e2:	4249      	negs	r1, r1
 80008e4:	4323      	orrs	r3, r4
 80008e6:	e7e0      	b.n	80008aa <__aeabi_fadd+0x282>
 80008e8:	2f00      	cmp	r7, #0
 80008ea:	d100      	bne.n	80008ee <__aeabi_fadd+0x2c6>
 80008ec:	e6d7      	b.n	800069e <__aeabi_fadd+0x76>
 80008ee:	1bde      	subs	r6, r3, r7
 80008f0:	0172      	lsls	r2, r6, #5
 80008f2:	d51f      	bpl.n	8000934 <__aeabi_fadd+0x30c>
 80008f4:	1afb      	subs	r3, r7, r3
 80008f6:	000d      	movs	r5, r1
 80008f8:	e6d1      	b.n	800069e <__aeabi_fadd+0x76>
 80008fa:	24ff      	movs	r4, #255	; 0xff
 80008fc:	2f00      	cmp	r7, #0
 80008fe:	d100      	bne.n	8000902 <__aeabi_fadd+0x2da>
 8000900:	e6cd      	b.n	800069e <__aeabi_fadd+0x76>
 8000902:	2280      	movs	r2, #128	; 0x80
 8000904:	4640      	mov	r0, r8
 8000906:	03d2      	lsls	r2, r2, #15
 8000908:	4210      	tst	r0, r2
 800090a:	d0af      	beq.n	800086c <__aeabi_fadd+0x244>
 800090c:	4216      	tst	r6, r2
 800090e:	d1ad      	bne.n	800086c <__aeabi_fadd+0x244>
 8000910:	003b      	movs	r3, r7
 8000912:	000d      	movs	r5, r1
 8000914:	24ff      	movs	r4, #255	; 0xff
 8000916:	e6c2      	b.n	800069e <__aeabi_fadd+0x76>
 8000918:	4663      	mov	r3, ip
 800091a:	24ff      	movs	r4, #255	; 0xff
 800091c:	e6bf      	b.n	800069e <__aeabi_fadd+0x76>
 800091e:	2301      	movs	r3, #1
 8000920:	e77a      	b.n	8000818 <__aeabi_fadd+0x1f0>
 8000922:	003b      	movs	r3, r7
 8000924:	0004      	movs	r4, r0
 8000926:	e6ba      	b.n	800069e <__aeabi_fadd+0x76>
 8000928:	2680      	movs	r6, #128	; 0x80
 800092a:	2200      	movs	r2, #0
 800092c:	03f6      	lsls	r6, r6, #15
 800092e:	e6f0      	b.n	8000712 <__aeabi_fadd+0xea>
 8000930:	003b      	movs	r3, r7
 8000932:	e6b4      	b.n	800069e <__aeabi_fadd+0x76>
 8000934:	1e33      	subs	r3, r6, #0
 8000936:	d000      	beq.n	800093a <__aeabi_fadd+0x312>
 8000938:	e6e2      	b.n	8000700 <__aeabi_fadd+0xd8>
 800093a:	2200      	movs	r2, #0
 800093c:	e721      	b.n	8000782 <__aeabi_fadd+0x15a>
 800093e:	2301      	movs	r3, #1
 8000940:	e7bd      	b.n	80008be <__aeabi_fadd+0x296>
 8000942:	46c0      	nop			; (mov r8, r8)
 8000944:	7dffffff 	.word	0x7dffffff
 8000948:	fbffffff 	.word	0xfbffffff

0800094c <__aeabi_fdiv>:
 800094c:	b5f0      	push	{r4, r5, r6, r7, lr}
 800094e:	4657      	mov	r7, sl
 8000950:	464e      	mov	r6, r9
 8000952:	46de      	mov	lr, fp
 8000954:	4645      	mov	r5, r8
 8000956:	b5e0      	push	{r5, r6, r7, lr}
 8000958:	0244      	lsls	r4, r0, #9
 800095a:	0043      	lsls	r3, r0, #1
 800095c:	0fc6      	lsrs	r6, r0, #31
 800095e:	b083      	sub	sp, #12
 8000960:	1c0f      	adds	r7, r1, #0
 8000962:	0a64      	lsrs	r4, r4, #9
 8000964:	0e1b      	lsrs	r3, r3, #24
 8000966:	46b2      	mov	sl, r6
 8000968:	d053      	beq.n	8000a12 <__aeabi_fdiv+0xc6>
 800096a:	2bff      	cmp	r3, #255	; 0xff
 800096c:	d027      	beq.n	80009be <__aeabi_fdiv+0x72>
 800096e:	2280      	movs	r2, #128	; 0x80
 8000970:	00e4      	lsls	r4, r4, #3
 8000972:	04d2      	lsls	r2, r2, #19
 8000974:	4314      	orrs	r4, r2
 8000976:	227f      	movs	r2, #127	; 0x7f
 8000978:	4252      	negs	r2, r2
 800097a:	4690      	mov	r8, r2
 800097c:	4498      	add	r8, r3
 800097e:	2300      	movs	r3, #0
 8000980:	4699      	mov	r9, r3
 8000982:	469b      	mov	fp, r3
 8000984:	027d      	lsls	r5, r7, #9
 8000986:	0078      	lsls	r0, r7, #1
 8000988:	0ffb      	lsrs	r3, r7, #31
 800098a:	0a6d      	lsrs	r5, r5, #9
 800098c:	0e00      	lsrs	r0, r0, #24
 800098e:	9300      	str	r3, [sp, #0]
 8000990:	d024      	beq.n	80009dc <__aeabi_fdiv+0x90>
 8000992:	28ff      	cmp	r0, #255	; 0xff
 8000994:	d046      	beq.n	8000a24 <__aeabi_fdiv+0xd8>
 8000996:	2380      	movs	r3, #128	; 0x80
 8000998:	2100      	movs	r1, #0
 800099a:	00ed      	lsls	r5, r5, #3
 800099c:	04db      	lsls	r3, r3, #19
 800099e:	431d      	orrs	r5, r3
 80009a0:	387f      	subs	r0, #127	; 0x7f
 80009a2:	4647      	mov	r7, r8
 80009a4:	1a38      	subs	r0, r7, r0
 80009a6:	464f      	mov	r7, r9
 80009a8:	430f      	orrs	r7, r1
 80009aa:	00bf      	lsls	r7, r7, #2
 80009ac:	46b9      	mov	r9, r7
 80009ae:	0033      	movs	r3, r6
 80009b0:	9a00      	ldr	r2, [sp, #0]
 80009b2:	4f87      	ldr	r7, [pc, #540]	; (8000bd0 <__aeabi_fdiv+0x284>)
 80009b4:	4053      	eors	r3, r2
 80009b6:	464a      	mov	r2, r9
 80009b8:	58ba      	ldr	r2, [r7, r2]
 80009ba:	9301      	str	r3, [sp, #4]
 80009bc:	4697      	mov	pc, r2
 80009be:	2c00      	cmp	r4, #0
 80009c0:	d14e      	bne.n	8000a60 <__aeabi_fdiv+0x114>
 80009c2:	2308      	movs	r3, #8
 80009c4:	4699      	mov	r9, r3
 80009c6:	33f7      	adds	r3, #247	; 0xf7
 80009c8:	4698      	mov	r8, r3
 80009ca:	3bfd      	subs	r3, #253	; 0xfd
 80009cc:	469b      	mov	fp, r3
 80009ce:	027d      	lsls	r5, r7, #9
 80009d0:	0078      	lsls	r0, r7, #1
 80009d2:	0ffb      	lsrs	r3, r7, #31
 80009d4:	0a6d      	lsrs	r5, r5, #9
 80009d6:	0e00      	lsrs	r0, r0, #24
 80009d8:	9300      	str	r3, [sp, #0]
 80009da:	d1da      	bne.n	8000992 <__aeabi_fdiv+0x46>
 80009dc:	2d00      	cmp	r5, #0
 80009de:	d126      	bne.n	8000a2e <__aeabi_fdiv+0xe2>
 80009e0:	2000      	movs	r0, #0
 80009e2:	2101      	movs	r1, #1
 80009e4:	0033      	movs	r3, r6
 80009e6:	9a00      	ldr	r2, [sp, #0]
 80009e8:	4f7a      	ldr	r7, [pc, #488]	; (8000bd4 <__aeabi_fdiv+0x288>)
 80009ea:	4053      	eors	r3, r2
 80009ec:	4642      	mov	r2, r8
 80009ee:	1a10      	subs	r0, r2, r0
 80009f0:	464a      	mov	r2, r9
 80009f2:	430a      	orrs	r2, r1
 80009f4:	0092      	lsls	r2, r2, #2
 80009f6:	58ba      	ldr	r2, [r7, r2]
 80009f8:	001d      	movs	r5, r3
 80009fa:	4697      	mov	pc, r2
 80009fc:	9b00      	ldr	r3, [sp, #0]
 80009fe:	002c      	movs	r4, r5
 8000a00:	469a      	mov	sl, r3
 8000a02:	468b      	mov	fp, r1
 8000a04:	465b      	mov	r3, fp
 8000a06:	2b02      	cmp	r3, #2
 8000a08:	d131      	bne.n	8000a6e <__aeabi_fdiv+0x122>
 8000a0a:	4653      	mov	r3, sl
 8000a0c:	21ff      	movs	r1, #255	; 0xff
 8000a0e:	2400      	movs	r4, #0
 8000a10:	e038      	b.n	8000a84 <__aeabi_fdiv+0x138>
 8000a12:	2c00      	cmp	r4, #0
 8000a14:	d117      	bne.n	8000a46 <__aeabi_fdiv+0xfa>
 8000a16:	2304      	movs	r3, #4
 8000a18:	4699      	mov	r9, r3
 8000a1a:	2300      	movs	r3, #0
 8000a1c:	4698      	mov	r8, r3
 8000a1e:	3301      	adds	r3, #1
 8000a20:	469b      	mov	fp, r3
 8000a22:	e7af      	b.n	8000984 <__aeabi_fdiv+0x38>
 8000a24:	20ff      	movs	r0, #255	; 0xff
 8000a26:	2d00      	cmp	r5, #0
 8000a28:	d10b      	bne.n	8000a42 <__aeabi_fdiv+0xf6>
 8000a2a:	2102      	movs	r1, #2
 8000a2c:	e7da      	b.n	80009e4 <__aeabi_fdiv+0x98>
 8000a2e:	0028      	movs	r0, r5
 8000a30:	f000 fca8 	bl	8001384 <__clzsi2>
 8000a34:	1f43      	subs	r3, r0, #5
 8000a36:	409d      	lsls	r5, r3
 8000a38:	2376      	movs	r3, #118	; 0x76
 8000a3a:	425b      	negs	r3, r3
 8000a3c:	1a18      	subs	r0, r3, r0
 8000a3e:	2100      	movs	r1, #0
 8000a40:	e7af      	b.n	80009a2 <__aeabi_fdiv+0x56>
 8000a42:	2103      	movs	r1, #3
 8000a44:	e7ad      	b.n	80009a2 <__aeabi_fdiv+0x56>
 8000a46:	0020      	movs	r0, r4
 8000a48:	f000 fc9c 	bl	8001384 <__clzsi2>
 8000a4c:	1f43      	subs	r3, r0, #5
 8000a4e:	409c      	lsls	r4, r3
 8000a50:	2376      	movs	r3, #118	; 0x76
 8000a52:	425b      	negs	r3, r3
 8000a54:	1a1b      	subs	r3, r3, r0
 8000a56:	4698      	mov	r8, r3
 8000a58:	2300      	movs	r3, #0
 8000a5a:	4699      	mov	r9, r3
 8000a5c:	469b      	mov	fp, r3
 8000a5e:	e791      	b.n	8000984 <__aeabi_fdiv+0x38>
 8000a60:	230c      	movs	r3, #12
 8000a62:	4699      	mov	r9, r3
 8000a64:	33f3      	adds	r3, #243	; 0xf3
 8000a66:	4698      	mov	r8, r3
 8000a68:	3bfc      	subs	r3, #252	; 0xfc
 8000a6a:	469b      	mov	fp, r3
 8000a6c:	e78a      	b.n	8000984 <__aeabi_fdiv+0x38>
 8000a6e:	2b03      	cmp	r3, #3
 8000a70:	d100      	bne.n	8000a74 <__aeabi_fdiv+0x128>
 8000a72:	e0a5      	b.n	8000bc0 <__aeabi_fdiv+0x274>
 8000a74:	4655      	mov	r5, sl
 8000a76:	2b01      	cmp	r3, #1
 8000a78:	d000      	beq.n	8000a7c <__aeabi_fdiv+0x130>
 8000a7a:	e081      	b.n	8000b80 <__aeabi_fdiv+0x234>
 8000a7c:	2301      	movs	r3, #1
 8000a7e:	2100      	movs	r1, #0
 8000a80:	2400      	movs	r4, #0
 8000a82:	402b      	ands	r3, r5
 8000a84:	0264      	lsls	r4, r4, #9
 8000a86:	05c9      	lsls	r1, r1, #23
 8000a88:	0a60      	lsrs	r0, r4, #9
 8000a8a:	07db      	lsls	r3, r3, #31
 8000a8c:	4308      	orrs	r0, r1
 8000a8e:	4318      	orrs	r0, r3
 8000a90:	b003      	add	sp, #12
 8000a92:	bc3c      	pop	{r2, r3, r4, r5}
 8000a94:	4690      	mov	r8, r2
 8000a96:	4699      	mov	r9, r3
 8000a98:	46a2      	mov	sl, r4
 8000a9a:	46ab      	mov	fp, r5
 8000a9c:	bdf0      	pop	{r4, r5, r6, r7, pc}
 8000a9e:	2480      	movs	r4, #128	; 0x80
 8000aa0:	2300      	movs	r3, #0
 8000aa2:	03e4      	lsls	r4, r4, #15
 8000aa4:	21ff      	movs	r1, #255	; 0xff
 8000aa6:	e7ed      	b.n	8000a84 <__aeabi_fdiv+0x138>
 8000aa8:	21ff      	movs	r1, #255	; 0xff
 8000aaa:	2400      	movs	r4, #0
 8000aac:	e7ea      	b.n	8000a84 <__aeabi_fdiv+0x138>
 8000aae:	2301      	movs	r3, #1
 8000ab0:	1a59      	subs	r1, r3, r1
 8000ab2:	291b      	cmp	r1, #27
 8000ab4:	dd66      	ble.n	8000b84 <__aeabi_fdiv+0x238>
 8000ab6:	9a01      	ldr	r2, [sp, #4]
 8000ab8:	4013      	ands	r3, r2
 8000aba:	2100      	movs	r1, #0
 8000abc:	2400      	movs	r4, #0
 8000abe:	e7e1      	b.n	8000a84 <__aeabi_fdiv+0x138>
 8000ac0:	2380      	movs	r3, #128	; 0x80
 8000ac2:	03db      	lsls	r3, r3, #15
 8000ac4:	421c      	tst	r4, r3
 8000ac6:	d038      	beq.n	8000b3a <__aeabi_fdiv+0x1ee>
 8000ac8:	421d      	tst	r5, r3
 8000aca:	d051      	beq.n	8000b70 <__aeabi_fdiv+0x224>
 8000acc:	431c      	orrs	r4, r3
 8000ace:	0264      	lsls	r4, r4, #9
 8000ad0:	0a64      	lsrs	r4, r4, #9
 8000ad2:	0033      	movs	r3, r6
 8000ad4:	21ff      	movs	r1, #255	; 0xff
 8000ad6:	e7d5      	b.n	8000a84 <__aeabi_fdiv+0x138>
 8000ad8:	0163      	lsls	r3, r4, #5
 8000ada:	016c      	lsls	r4, r5, #5
 8000adc:	42a3      	cmp	r3, r4
 8000ade:	d23b      	bcs.n	8000b58 <__aeabi_fdiv+0x20c>
 8000ae0:	261b      	movs	r6, #27
 8000ae2:	2100      	movs	r1, #0
 8000ae4:	3801      	subs	r0, #1
 8000ae6:	2501      	movs	r5, #1
 8000ae8:	001f      	movs	r7, r3
 8000aea:	0049      	lsls	r1, r1, #1
 8000aec:	005b      	lsls	r3, r3, #1
 8000aee:	2f00      	cmp	r7, #0
 8000af0:	db01      	blt.n	8000af6 <__aeabi_fdiv+0x1aa>
 8000af2:	429c      	cmp	r4, r3
 8000af4:	d801      	bhi.n	8000afa <__aeabi_fdiv+0x1ae>
 8000af6:	1b1b      	subs	r3, r3, r4
 8000af8:	4329      	orrs	r1, r5
 8000afa:	3e01      	subs	r6, #1
 8000afc:	2e00      	cmp	r6, #0
 8000afe:	d1f3      	bne.n	8000ae8 <__aeabi_fdiv+0x19c>
 8000b00:	001c      	movs	r4, r3
 8000b02:	1e63      	subs	r3, r4, #1
 8000b04:	419c      	sbcs	r4, r3
 8000b06:	430c      	orrs	r4, r1
 8000b08:	0001      	movs	r1, r0
 8000b0a:	317f      	adds	r1, #127	; 0x7f
 8000b0c:	2900      	cmp	r1, #0
 8000b0e:	ddce      	ble.n	8000aae <__aeabi_fdiv+0x162>
 8000b10:	0763      	lsls	r3, r4, #29
 8000b12:	d004      	beq.n	8000b1e <__aeabi_fdiv+0x1d2>
 8000b14:	230f      	movs	r3, #15
 8000b16:	4023      	ands	r3, r4
 8000b18:	2b04      	cmp	r3, #4
 8000b1a:	d000      	beq.n	8000b1e <__aeabi_fdiv+0x1d2>
 8000b1c:	3404      	adds	r4, #4
 8000b1e:	0123      	lsls	r3, r4, #4
 8000b20:	d503      	bpl.n	8000b2a <__aeabi_fdiv+0x1de>
 8000b22:	0001      	movs	r1, r0
 8000b24:	4b2c      	ldr	r3, [pc, #176]	; (8000bd8 <__aeabi_fdiv+0x28c>)
 8000b26:	3180      	adds	r1, #128	; 0x80
 8000b28:	401c      	ands	r4, r3
 8000b2a:	29fe      	cmp	r1, #254	; 0xfe
 8000b2c:	dd0d      	ble.n	8000b4a <__aeabi_fdiv+0x1fe>
 8000b2e:	2301      	movs	r3, #1
 8000b30:	9a01      	ldr	r2, [sp, #4]
 8000b32:	21ff      	movs	r1, #255	; 0xff
 8000b34:	4013      	ands	r3, r2
 8000b36:	2400      	movs	r4, #0
 8000b38:	e7a4      	b.n	8000a84 <__aeabi_fdiv+0x138>
 8000b3a:	2380      	movs	r3, #128	; 0x80
 8000b3c:	03db      	lsls	r3, r3, #15
 8000b3e:	431c      	orrs	r4, r3
 8000b40:	0264      	lsls	r4, r4, #9
 8000b42:	0a64      	lsrs	r4, r4, #9
 8000b44:	0033      	movs	r3, r6
 8000b46:	21ff      	movs	r1, #255	; 0xff
 8000b48:	e79c      	b.n	8000a84 <__aeabi_fdiv+0x138>
 8000b4a:	2301      	movs	r3, #1
 8000b4c:	9a01      	ldr	r2, [sp, #4]
 8000b4e:	01a4      	lsls	r4, r4, #6
 8000b50:	0a64      	lsrs	r4, r4, #9
 8000b52:	b2c9      	uxtb	r1, r1
 8000b54:	4013      	ands	r3, r2
 8000b56:	e795      	b.n	8000a84 <__aeabi_fdiv+0x138>
 8000b58:	1b1b      	subs	r3, r3, r4
 8000b5a:	261a      	movs	r6, #26
 8000b5c:	2101      	movs	r1, #1
 8000b5e:	e7c2      	b.n	8000ae6 <__aeabi_fdiv+0x19a>
 8000b60:	9b00      	ldr	r3, [sp, #0]
 8000b62:	468b      	mov	fp, r1
 8000b64:	469a      	mov	sl, r3
 8000b66:	2400      	movs	r4, #0
 8000b68:	e74c      	b.n	8000a04 <__aeabi_fdiv+0xb8>
 8000b6a:	0263      	lsls	r3, r4, #9
 8000b6c:	d5e5      	bpl.n	8000b3a <__aeabi_fdiv+0x1ee>
 8000b6e:	2500      	movs	r5, #0
 8000b70:	2480      	movs	r4, #128	; 0x80
 8000b72:	03e4      	lsls	r4, r4, #15
 8000b74:	432c      	orrs	r4, r5
 8000b76:	0264      	lsls	r4, r4, #9
 8000b78:	0a64      	lsrs	r4, r4, #9
 8000b7a:	9b00      	ldr	r3, [sp, #0]
 8000b7c:	21ff      	movs	r1, #255	; 0xff
 8000b7e:	e781      	b.n	8000a84 <__aeabi_fdiv+0x138>
 8000b80:	9501      	str	r5, [sp, #4]
 8000b82:	e7c1      	b.n	8000b08 <__aeabi_fdiv+0x1bc>
 8000b84:	0023      	movs	r3, r4
 8000b86:	2020      	movs	r0, #32
 8000b88:	40cb      	lsrs	r3, r1
 8000b8a:	1a41      	subs	r1, r0, r1
 8000b8c:	408c      	lsls	r4, r1
 8000b8e:	1e61      	subs	r1, r4, #1
 8000b90:	418c      	sbcs	r4, r1
 8000b92:	431c      	orrs	r4, r3
 8000b94:	0763      	lsls	r3, r4, #29
 8000b96:	d004      	beq.n	8000ba2 <__aeabi_fdiv+0x256>
 8000b98:	230f      	movs	r3, #15
 8000b9a:	4023      	ands	r3, r4
 8000b9c:	2b04      	cmp	r3, #4
 8000b9e:	d000      	beq.n	8000ba2 <__aeabi_fdiv+0x256>
 8000ba0:	3404      	adds	r4, #4
 8000ba2:	0163      	lsls	r3, r4, #5
 8000ba4:	d505      	bpl.n	8000bb2 <__aeabi_fdiv+0x266>
 8000ba6:	2301      	movs	r3, #1
 8000ba8:	9a01      	ldr	r2, [sp, #4]
 8000baa:	2101      	movs	r1, #1
 8000bac:	4013      	ands	r3, r2
 8000bae:	2400      	movs	r4, #0
 8000bb0:	e768      	b.n	8000a84 <__aeabi_fdiv+0x138>
 8000bb2:	2301      	movs	r3, #1
 8000bb4:	9a01      	ldr	r2, [sp, #4]
 8000bb6:	01a4      	lsls	r4, r4, #6
 8000bb8:	0a64      	lsrs	r4, r4, #9
 8000bba:	4013      	ands	r3, r2
 8000bbc:	2100      	movs	r1, #0
 8000bbe:	e761      	b.n	8000a84 <__aeabi_fdiv+0x138>
 8000bc0:	2380      	movs	r3, #128	; 0x80
 8000bc2:	03db      	lsls	r3, r3, #15
 8000bc4:	431c      	orrs	r4, r3
 8000bc6:	0264      	lsls	r4, r4, #9
 8000bc8:	0a64      	lsrs	r4, r4, #9
 8000bca:	4653      	mov	r3, sl
 8000bcc:	21ff      	movs	r1, #255	; 0xff
 8000bce:	e759      	b.n	8000a84 <__aeabi_fdiv+0x138>
 8000bd0:	08004498 	.word	0x08004498
 8000bd4:	080044d8 	.word	0x080044d8
 8000bd8:	f7ffffff 	.word	0xf7ffffff

08000bdc <__eqsf2>:
 8000bdc:	b570      	push	{r4, r5, r6, lr}
 8000bde:	0042      	lsls	r2, r0, #1
 8000be0:	0245      	lsls	r5, r0, #9
 8000be2:	024e      	lsls	r6, r1, #9
 8000be4:	004c      	lsls	r4, r1, #1
 8000be6:	0fc3      	lsrs	r3, r0, #31
 8000be8:	0a6d      	lsrs	r5, r5, #9
 8000bea:	0e12      	lsrs	r2, r2, #24
 8000bec:	0a76      	lsrs	r6, r6, #9
 8000bee:	0e24      	lsrs	r4, r4, #24
 8000bf0:	0fc9      	lsrs	r1, r1, #31
 8000bf2:	2001      	movs	r0, #1
 8000bf4:	2aff      	cmp	r2, #255	; 0xff
 8000bf6:	d006      	beq.n	8000c06 <__eqsf2+0x2a>
 8000bf8:	2cff      	cmp	r4, #255	; 0xff
 8000bfa:	d003      	beq.n	8000c04 <__eqsf2+0x28>
 8000bfc:	42a2      	cmp	r2, r4
 8000bfe:	d101      	bne.n	8000c04 <__eqsf2+0x28>
 8000c00:	42b5      	cmp	r5, r6
 8000c02:	d006      	beq.n	8000c12 <__eqsf2+0x36>
 8000c04:	bd70      	pop	{r4, r5, r6, pc}
 8000c06:	2d00      	cmp	r5, #0
 8000c08:	d1fc      	bne.n	8000c04 <__eqsf2+0x28>
 8000c0a:	2cff      	cmp	r4, #255	; 0xff
 8000c0c:	d1fa      	bne.n	8000c04 <__eqsf2+0x28>
 8000c0e:	2e00      	cmp	r6, #0
 8000c10:	d1f8      	bne.n	8000c04 <__eqsf2+0x28>
 8000c12:	428b      	cmp	r3, r1
 8000c14:	d006      	beq.n	8000c24 <__eqsf2+0x48>
 8000c16:	2001      	movs	r0, #1
 8000c18:	2a00      	cmp	r2, #0
 8000c1a:	d1f3      	bne.n	8000c04 <__eqsf2+0x28>
 8000c1c:	0028      	movs	r0, r5
 8000c1e:	1e45      	subs	r5, r0, #1
 8000c20:	41a8      	sbcs	r0, r5
 8000c22:	e7ef      	b.n	8000c04 <__eqsf2+0x28>
 8000c24:	2000      	movs	r0, #0
 8000c26:	e7ed      	b.n	8000c04 <__eqsf2+0x28>

08000c28 <__gesf2>:
 8000c28:	b5f0      	push	{r4, r5, r6, r7, lr}
 8000c2a:	0042      	lsls	r2, r0, #1
 8000c2c:	0245      	lsls	r5, r0, #9
 8000c2e:	024c      	lsls	r4, r1, #9
 8000c30:	0fc3      	lsrs	r3, r0, #31
 8000c32:	0048      	lsls	r0, r1, #1
 8000c34:	0a6d      	lsrs	r5, r5, #9
 8000c36:	0e12      	lsrs	r2, r2, #24
 8000c38:	0a64      	lsrs	r4, r4, #9
 8000c3a:	0e00      	lsrs	r0, r0, #24
 8000c3c:	0fc9      	lsrs	r1, r1, #31
 8000c3e:	2aff      	cmp	r2, #255	; 0xff
 8000c40:	d01e      	beq.n	8000c80 <__gesf2+0x58>
 8000c42:	28ff      	cmp	r0, #255	; 0xff
 8000c44:	d021      	beq.n	8000c8a <__gesf2+0x62>
 8000c46:	2a00      	cmp	r2, #0
 8000c48:	d10a      	bne.n	8000c60 <__gesf2+0x38>
 8000c4a:	426e      	negs	r6, r5
 8000c4c:	416e      	adcs	r6, r5
 8000c4e:	b2f6      	uxtb	r6, r6
 8000c50:	2800      	cmp	r0, #0
 8000c52:	d10f      	bne.n	8000c74 <__gesf2+0x4c>
 8000c54:	2c00      	cmp	r4, #0
 8000c56:	d10d      	bne.n	8000c74 <__gesf2+0x4c>
 8000c58:	2000      	movs	r0, #0
 8000c5a:	2d00      	cmp	r5, #0
 8000c5c:	d009      	beq.n	8000c72 <__gesf2+0x4a>
 8000c5e:	e005      	b.n	8000c6c <__gesf2+0x44>
 8000c60:	2800      	cmp	r0, #0
 8000c62:	d101      	bne.n	8000c68 <__gesf2+0x40>
 8000c64:	2c00      	cmp	r4, #0
 8000c66:	d001      	beq.n	8000c6c <__gesf2+0x44>
 8000c68:	428b      	cmp	r3, r1
 8000c6a:	d011      	beq.n	8000c90 <__gesf2+0x68>
 8000c6c:	2101      	movs	r1, #1
 8000c6e:	4258      	negs	r0, r3
 8000c70:	4308      	orrs	r0, r1
 8000c72:	bdf0      	pop	{r4, r5, r6, r7, pc}
 8000c74:	2e00      	cmp	r6, #0
 8000c76:	d0f7      	beq.n	8000c68 <__gesf2+0x40>
 8000c78:	2001      	movs	r0, #1
 8000c7a:	3901      	subs	r1, #1
 8000c7c:	4308      	orrs	r0, r1
 8000c7e:	e7f8      	b.n	8000c72 <__gesf2+0x4a>
 8000c80:	2d00      	cmp	r5, #0
 8000c82:	d0de      	beq.n	8000c42 <__gesf2+0x1a>
 8000c84:	2002      	movs	r0, #2
 8000c86:	4240      	negs	r0, r0
 8000c88:	e7f3      	b.n	8000c72 <__gesf2+0x4a>
 8000c8a:	2c00      	cmp	r4, #0
 8000c8c:	d0db      	beq.n	8000c46 <__gesf2+0x1e>
 8000c8e:	e7f9      	b.n	8000c84 <__gesf2+0x5c>
 8000c90:	4282      	cmp	r2, r0
 8000c92:	dceb      	bgt.n	8000c6c <__gesf2+0x44>
 8000c94:	db04      	blt.n	8000ca0 <__gesf2+0x78>
 8000c96:	42a5      	cmp	r5, r4
 8000c98:	d8e8      	bhi.n	8000c6c <__gesf2+0x44>
 8000c9a:	2000      	movs	r0, #0
 8000c9c:	42a5      	cmp	r5, r4
 8000c9e:	d2e8      	bcs.n	8000c72 <__gesf2+0x4a>
 8000ca0:	2101      	movs	r1, #1
 8000ca2:	1e58      	subs	r0, r3, #1
 8000ca4:	4308      	orrs	r0, r1
 8000ca6:	e7e4      	b.n	8000c72 <__gesf2+0x4a>

08000ca8 <__lesf2>:
 8000ca8:	b5f0      	push	{r4, r5, r6, r7, lr}
 8000caa:	0042      	lsls	r2, r0, #1
 8000cac:	024d      	lsls	r5, r1, #9
 8000cae:	004c      	lsls	r4, r1, #1
 8000cb0:	0246      	lsls	r6, r0, #9
 8000cb2:	0a76      	lsrs	r6, r6, #9
 8000cb4:	0e12      	lsrs	r2, r2, #24
 8000cb6:	0fc3      	lsrs	r3, r0, #31
 8000cb8:	0a6d      	lsrs	r5, r5, #9
 8000cba:	0e24      	lsrs	r4, r4, #24
 8000cbc:	0fc9      	lsrs	r1, r1, #31
 8000cbe:	2aff      	cmp	r2, #255	; 0xff
 8000cc0:	d016      	beq.n	8000cf0 <__lesf2+0x48>
 8000cc2:	2cff      	cmp	r4, #255	; 0xff
 8000cc4:	d018      	beq.n	8000cf8 <__lesf2+0x50>
 8000cc6:	2a00      	cmp	r2, #0
 8000cc8:	d10a      	bne.n	8000ce0 <__lesf2+0x38>
 8000cca:	4270      	negs	r0, r6
 8000ccc:	4170      	adcs	r0, r6
 8000cce:	b2c0      	uxtb	r0, r0
 8000cd0:	2c00      	cmp	r4, #0
 8000cd2:	d015      	beq.n	8000d00 <__lesf2+0x58>
 8000cd4:	2800      	cmp	r0, #0
 8000cd6:	d005      	beq.n	8000ce4 <__lesf2+0x3c>
 8000cd8:	2001      	movs	r0, #1
 8000cda:	3901      	subs	r1, #1
 8000cdc:	4308      	orrs	r0, r1
 8000cde:	bdf0      	pop	{r4, r5, r6, r7, pc}
 8000ce0:	2c00      	cmp	r4, #0
 8000ce2:	d013      	beq.n	8000d0c <__lesf2+0x64>
 8000ce4:	4299      	cmp	r1, r3
 8000ce6:	d014      	beq.n	8000d12 <__lesf2+0x6a>
 8000ce8:	2001      	movs	r0, #1
 8000cea:	425b      	negs	r3, r3
 8000cec:	4318      	orrs	r0, r3
 8000cee:	e7f6      	b.n	8000cde <__lesf2+0x36>
 8000cf0:	2002      	movs	r0, #2
 8000cf2:	2e00      	cmp	r6, #0
 8000cf4:	d1f3      	bne.n	8000cde <__lesf2+0x36>
 8000cf6:	e7e4      	b.n	8000cc2 <__lesf2+0x1a>
 8000cf8:	2002      	movs	r0, #2
 8000cfa:	2d00      	cmp	r5, #0
 8000cfc:	d1ef      	bne.n	8000cde <__lesf2+0x36>
 8000cfe:	e7e2      	b.n	8000cc6 <__lesf2+0x1e>
 8000d00:	2d00      	cmp	r5, #0
 8000d02:	d1e7      	bne.n	8000cd4 <__lesf2+0x2c>
 8000d04:	2000      	movs	r0, #0
 8000d06:	2e00      	cmp	r6, #0
 8000d08:	d0e9      	beq.n	8000cde <__lesf2+0x36>
 8000d0a:	e7ed      	b.n	8000ce8 <__lesf2+0x40>
 8000d0c:	2d00      	cmp	r5, #0
 8000d0e:	d1e9      	bne.n	8000ce4 <__lesf2+0x3c>
 8000d10:	e7ea      	b.n	8000ce8 <__lesf2+0x40>
 8000d12:	42a2      	cmp	r2, r4
 8000d14:	dc06      	bgt.n	8000d24 <__lesf2+0x7c>
 8000d16:	dbdf      	blt.n	8000cd8 <__lesf2+0x30>
 8000d18:	42ae      	cmp	r6, r5
 8000d1a:	d803      	bhi.n	8000d24 <__lesf2+0x7c>
 8000d1c:	2000      	movs	r0, #0
 8000d1e:	42ae      	cmp	r6, r5
 8000d20:	d3da      	bcc.n	8000cd8 <__lesf2+0x30>
 8000d22:	e7dc      	b.n	8000cde <__lesf2+0x36>
 8000d24:	2001      	movs	r0, #1
 8000d26:	4249      	negs	r1, r1
 8000d28:	4308      	orrs	r0, r1
 8000d2a:	e7d8      	b.n	8000cde <__lesf2+0x36>

08000d2c <__aeabi_fmul>:
 8000d2c:	b5f8      	push	{r3, r4, r5, r6, r7, lr}
 8000d2e:	4657      	mov	r7, sl
 8000d30:	464e      	mov	r6, r9
 8000d32:	4645      	mov	r5, r8
 8000d34:	46de      	mov	lr, fp
 8000d36:	b5e0      	push	{r5, r6, r7, lr}
 8000d38:	0247      	lsls	r7, r0, #9
 8000d3a:	0046      	lsls	r6, r0, #1
 8000d3c:	4688      	mov	r8, r1
 8000d3e:	0a7f      	lsrs	r7, r7, #9
 8000d40:	0e36      	lsrs	r6, r6, #24
 8000d42:	0fc4      	lsrs	r4, r0, #31
 8000d44:	2e00      	cmp	r6, #0
 8000d46:	d047      	beq.n	8000dd8 <__aeabi_fmul+0xac>
 8000d48:	2eff      	cmp	r6, #255	; 0xff
 8000d4a:	d024      	beq.n	8000d96 <__aeabi_fmul+0x6a>
 8000d4c:	00fb      	lsls	r3, r7, #3
 8000d4e:	2780      	movs	r7, #128	; 0x80
 8000d50:	04ff      	lsls	r7, r7, #19
 8000d52:	431f      	orrs	r7, r3
 8000d54:	2300      	movs	r3, #0
 8000d56:	4699      	mov	r9, r3
 8000d58:	469a      	mov	sl, r3
 8000d5a:	3e7f      	subs	r6, #127	; 0x7f
 8000d5c:	4643      	mov	r3, r8
 8000d5e:	025d      	lsls	r5, r3, #9
 8000d60:	0058      	lsls	r0, r3, #1
 8000d62:	0fdb      	lsrs	r3, r3, #31
 8000d64:	0a6d      	lsrs	r5, r5, #9
 8000d66:	0e00      	lsrs	r0, r0, #24
 8000d68:	4698      	mov	r8, r3
 8000d6a:	d043      	beq.n	8000df4 <__aeabi_fmul+0xc8>
 8000d6c:	28ff      	cmp	r0, #255	; 0xff
 8000d6e:	d03b      	beq.n	8000de8 <__aeabi_fmul+0xbc>
 8000d70:	00eb      	lsls	r3, r5, #3
 8000d72:	2580      	movs	r5, #128	; 0x80
 8000d74:	2200      	movs	r2, #0
 8000d76:	04ed      	lsls	r5, r5, #19
 8000d78:	431d      	orrs	r5, r3
 8000d7a:	387f      	subs	r0, #127	; 0x7f
 8000d7c:	1836      	adds	r6, r6, r0
 8000d7e:	1c73      	adds	r3, r6, #1
 8000d80:	4641      	mov	r1, r8
 8000d82:	469b      	mov	fp, r3
 8000d84:	464b      	mov	r3, r9
 8000d86:	4061      	eors	r1, r4
 8000d88:	4313      	orrs	r3, r2
 8000d8a:	2b0f      	cmp	r3, #15
 8000d8c:	d864      	bhi.n	8000e58 <__aeabi_fmul+0x12c>
 8000d8e:	4875      	ldr	r0, [pc, #468]	; (8000f64 <__aeabi_fmul+0x238>)
 8000d90:	009b      	lsls	r3, r3, #2
 8000d92:	58c3      	ldr	r3, [r0, r3]
 8000d94:	469f      	mov	pc, r3
 8000d96:	2f00      	cmp	r7, #0
 8000d98:	d142      	bne.n	8000e20 <__aeabi_fmul+0xf4>
 8000d9a:	2308      	movs	r3, #8
 8000d9c:	4699      	mov	r9, r3
 8000d9e:	3b06      	subs	r3, #6
 8000da0:	26ff      	movs	r6, #255	; 0xff
 8000da2:	469a      	mov	sl, r3
 8000da4:	e7da      	b.n	8000d5c <__aeabi_fmul+0x30>
 8000da6:	4641      	mov	r1, r8
 8000da8:	2a02      	cmp	r2, #2
 8000daa:	d028      	beq.n	8000dfe <__aeabi_fmul+0xd2>
 8000dac:	2a03      	cmp	r2, #3
 8000dae:	d100      	bne.n	8000db2 <__aeabi_fmul+0x86>
 8000db0:	e0ce      	b.n	8000f50 <__aeabi_fmul+0x224>
 8000db2:	2a01      	cmp	r2, #1
 8000db4:	d000      	beq.n	8000db8 <__aeabi_fmul+0x8c>
 8000db6:	e0ac      	b.n	8000f12 <__aeabi_fmul+0x1e6>
 8000db8:	4011      	ands	r1, r2
 8000dba:	2000      	movs	r0, #0
 8000dbc:	2200      	movs	r2, #0
 8000dbe:	b2cc      	uxtb	r4, r1
 8000dc0:	0240      	lsls	r0, r0, #9
 8000dc2:	05d2      	lsls	r2, r2, #23
 8000dc4:	0a40      	lsrs	r0, r0, #9
 8000dc6:	07e4      	lsls	r4, r4, #31
 8000dc8:	4310      	orrs	r0, r2
 8000dca:	4320      	orrs	r0, r4
 8000dcc:	bc3c      	pop	{r2, r3, r4, r5}
 8000dce:	4690      	mov	r8, r2
 8000dd0:	4699      	mov	r9, r3
 8000dd2:	46a2      	mov	sl, r4
 8000dd4:	46ab      	mov	fp, r5
 8000dd6:	bdf8      	pop	{r3, r4, r5, r6, r7, pc}
 8000dd8:	2f00      	cmp	r7, #0
 8000dda:	d115      	bne.n	8000e08 <__aeabi_fmul+0xdc>
 8000ddc:	2304      	movs	r3, #4
 8000dde:	4699      	mov	r9, r3
 8000de0:	3b03      	subs	r3, #3
 8000de2:	2600      	movs	r6, #0
 8000de4:	469a      	mov	sl, r3
 8000de6:	e7b9      	b.n	8000d5c <__aeabi_fmul+0x30>
 8000de8:	20ff      	movs	r0, #255	; 0xff
 8000dea:	2202      	movs	r2, #2
 8000dec:	2d00      	cmp	r5, #0
 8000dee:	d0c5      	beq.n	8000d7c <__aeabi_fmul+0x50>
 8000df0:	2203      	movs	r2, #3
 8000df2:	e7c3      	b.n	8000d7c <__aeabi_fmul+0x50>
 8000df4:	2d00      	cmp	r5, #0
 8000df6:	d119      	bne.n	8000e2c <__aeabi_fmul+0x100>
 8000df8:	2000      	movs	r0, #0
 8000dfa:	2201      	movs	r2, #1
 8000dfc:	e7be      	b.n	8000d7c <__aeabi_fmul+0x50>
 8000dfe:	2401      	movs	r4, #1
 8000e00:	22ff      	movs	r2, #255	; 0xff
 8000e02:	400c      	ands	r4, r1
 8000e04:	2000      	movs	r0, #0
 8000e06:	e7db      	b.n	8000dc0 <__aeabi_fmul+0x94>
 8000e08:	0038      	movs	r0, r7
 8000e0a:	f000 fabb 	bl	8001384 <__clzsi2>
 8000e0e:	2676      	movs	r6, #118	; 0x76
 8000e10:	1f43      	subs	r3, r0, #5
 8000e12:	409f      	lsls	r7, r3
 8000e14:	2300      	movs	r3, #0
 8000e16:	4276      	negs	r6, r6
 8000e18:	1a36      	subs	r6, r6, r0
 8000e1a:	4699      	mov	r9, r3
 8000e1c:	469a      	mov	sl, r3
 8000e1e:	e79d      	b.n	8000d5c <__aeabi_fmul+0x30>
 8000e20:	230c      	movs	r3, #12
 8000e22:	4699      	mov	r9, r3
 8000e24:	3b09      	subs	r3, #9
 8000e26:	26ff      	movs	r6, #255	; 0xff
 8000e28:	469a      	mov	sl, r3
 8000e2a:	e797      	b.n	8000d5c <__aeabi_fmul+0x30>
 8000e2c:	0028      	movs	r0, r5
 8000e2e:	f000 faa9 	bl	8001384 <__clzsi2>
 8000e32:	1f43      	subs	r3, r0, #5
 8000e34:	409d      	lsls	r5, r3
 8000e36:	2376      	movs	r3, #118	; 0x76
 8000e38:	425b      	negs	r3, r3
 8000e3a:	1a18      	subs	r0, r3, r0
 8000e3c:	2200      	movs	r2, #0
 8000e3e:	e79d      	b.n	8000d7c <__aeabi_fmul+0x50>
 8000e40:	2080      	movs	r0, #128	; 0x80
 8000e42:	2400      	movs	r4, #0
 8000e44:	03c0      	lsls	r0, r0, #15
 8000e46:	22ff      	movs	r2, #255	; 0xff
 8000e48:	e7ba      	b.n	8000dc0 <__aeabi_fmul+0x94>
 8000e4a:	003d      	movs	r5, r7
 8000e4c:	4652      	mov	r2, sl
 8000e4e:	e7ab      	b.n	8000da8 <__aeabi_fmul+0x7c>
 8000e50:	003d      	movs	r5, r7
 8000e52:	0021      	movs	r1, r4
 8000e54:	4652      	mov	r2, sl
 8000e56:	e7a7      	b.n	8000da8 <__aeabi_fmul+0x7c>
 8000e58:	0c3b      	lsrs	r3, r7, #16
 8000e5a:	469c      	mov	ip, r3
 8000e5c:	042a      	lsls	r2, r5, #16
 8000e5e:	0c12      	lsrs	r2, r2, #16
 8000e60:	0c2b      	lsrs	r3, r5, #16
 8000e62:	0014      	movs	r4, r2
 8000e64:	4660      	mov	r0, ip
 8000e66:	4665      	mov	r5, ip
 8000e68:	043f      	lsls	r7, r7, #16
 8000e6a:	0c3f      	lsrs	r7, r7, #16
 8000e6c:	437c      	muls	r4, r7
 8000e6e:	4342      	muls	r2, r0
 8000e70:	435d      	muls	r5, r3
 8000e72:	437b      	muls	r3, r7
 8000e74:	0c27      	lsrs	r7, r4, #16
 8000e76:	189b      	adds	r3, r3, r2
 8000e78:	18ff      	adds	r7, r7, r3
 8000e7a:	42ba      	cmp	r2, r7
 8000e7c:	d903      	bls.n	8000e86 <__aeabi_fmul+0x15a>
 8000e7e:	2380      	movs	r3, #128	; 0x80
 8000e80:	025b      	lsls	r3, r3, #9
 8000e82:	469c      	mov	ip, r3
 8000e84:	4465      	add	r5, ip
 8000e86:	0424      	lsls	r4, r4, #16
 8000e88:	043a      	lsls	r2, r7, #16
 8000e8a:	0c24      	lsrs	r4, r4, #16
 8000e8c:	1912      	adds	r2, r2, r4
 8000e8e:	0193      	lsls	r3, r2, #6
 8000e90:	1e5c      	subs	r4, r3, #1
 8000e92:	41a3      	sbcs	r3, r4
 8000e94:	0c3f      	lsrs	r7, r7, #16
 8000e96:	0e92      	lsrs	r2, r2, #26
 8000e98:	197d      	adds	r5, r7, r5
 8000e9a:	431a      	orrs	r2, r3
 8000e9c:	01ad      	lsls	r5, r5, #6
 8000e9e:	4315      	orrs	r5, r2
 8000ea0:	012b      	lsls	r3, r5, #4
 8000ea2:	d504      	bpl.n	8000eae <__aeabi_fmul+0x182>
 8000ea4:	2301      	movs	r3, #1
 8000ea6:	465e      	mov	r6, fp
 8000ea8:	086a      	lsrs	r2, r5, #1
 8000eaa:	401d      	ands	r5, r3
 8000eac:	4315      	orrs	r5, r2
 8000eae:	0032      	movs	r2, r6
 8000eb0:	327f      	adds	r2, #127	; 0x7f
 8000eb2:	2a00      	cmp	r2, #0
 8000eb4:	dd25      	ble.n	8000f02 <__aeabi_fmul+0x1d6>
 8000eb6:	076b      	lsls	r3, r5, #29
 8000eb8:	d004      	beq.n	8000ec4 <__aeabi_fmul+0x198>
 8000eba:	230f      	movs	r3, #15
 8000ebc:	402b      	ands	r3, r5
 8000ebe:	2b04      	cmp	r3, #4
 8000ec0:	d000      	beq.n	8000ec4 <__aeabi_fmul+0x198>
 8000ec2:	3504      	adds	r5, #4
 8000ec4:	012b      	lsls	r3, r5, #4
 8000ec6:	d503      	bpl.n	8000ed0 <__aeabi_fmul+0x1a4>
 8000ec8:	0032      	movs	r2, r6
 8000eca:	4b27      	ldr	r3, [pc, #156]	; (8000f68 <__aeabi_fmul+0x23c>)
 8000ecc:	3280      	adds	r2, #128	; 0x80
 8000ece:	401d      	ands	r5, r3
 8000ed0:	2afe      	cmp	r2, #254	; 0xfe
 8000ed2:	dc94      	bgt.n	8000dfe <__aeabi_fmul+0xd2>
 8000ed4:	2401      	movs	r4, #1
 8000ed6:	01a8      	lsls	r0, r5, #6
 8000ed8:	0a40      	lsrs	r0, r0, #9
 8000eda:	b2d2      	uxtb	r2, r2
 8000edc:	400c      	ands	r4, r1
 8000ede:	e76f      	b.n	8000dc0 <__aeabi_fmul+0x94>
 8000ee0:	2080      	movs	r0, #128	; 0x80
 8000ee2:	03c0      	lsls	r0, r0, #15
 8000ee4:	4207      	tst	r7, r0
 8000ee6:	d007      	beq.n	8000ef8 <__aeabi_fmul+0x1cc>
 8000ee8:	4205      	tst	r5, r0
 8000eea:	d105      	bne.n	8000ef8 <__aeabi_fmul+0x1cc>
 8000eec:	4328      	orrs	r0, r5
 8000eee:	0240      	lsls	r0, r0, #9
 8000ef0:	0a40      	lsrs	r0, r0, #9
 8000ef2:	4644      	mov	r4, r8
 8000ef4:	22ff      	movs	r2, #255	; 0xff
 8000ef6:	e763      	b.n	8000dc0 <__aeabi_fmul+0x94>
 8000ef8:	4338      	orrs	r0, r7
 8000efa:	0240      	lsls	r0, r0, #9
 8000efc:	0a40      	lsrs	r0, r0, #9
 8000efe:	22ff      	movs	r2, #255	; 0xff
 8000f00:	e75e      	b.n	8000dc0 <__aeabi_fmul+0x94>
 8000f02:	2401      	movs	r4, #1
 8000f04:	1aa3      	subs	r3, r4, r2
 8000f06:	2b1b      	cmp	r3, #27
 8000f08:	dd05      	ble.n	8000f16 <__aeabi_fmul+0x1ea>
 8000f0a:	400c      	ands	r4, r1
 8000f0c:	2200      	movs	r2, #0
 8000f0e:	2000      	movs	r0, #0
 8000f10:	e756      	b.n	8000dc0 <__aeabi_fmul+0x94>
 8000f12:	465e      	mov	r6, fp
 8000f14:	e7cb      	b.n	8000eae <__aeabi_fmul+0x182>
 8000f16:	002a      	movs	r2, r5
 8000f18:	2020      	movs	r0, #32
 8000f1a:	40da      	lsrs	r2, r3
 8000f1c:	1ac3      	subs	r3, r0, r3
 8000f1e:	409d      	lsls	r5, r3
 8000f20:	002b      	movs	r3, r5
 8000f22:	1e5d      	subs	r5, r3, #1
 8000f24:	41ab      	sbcs	r3, r5
 8000f26:	4313      	orrs	r3, r2
 8000f28:	075a      	lsls	r2, r3, #29
 8000f2a:	d004      	beq.n	8000f36 <__aeabi_fmul+0x20a>
 8000f2c:	220f      	movs	r2, #15
 8000f2e:	401a      	ands	r2, r3
 8000f30:	2a04      	cmp	r2, #4
 8000f32:	d000      	beq.n	8000f36 <__aeabi_fmul+0x20a>
 8000f34:	3304      	adds	r3, #4
 8000f36:	015a      	lsls	r2, r3, #5
 8000f38:	d504      	bpl.n	8000f44 <__aeabi_fmul+0x218>
 8000f3a:	2401      	movs	r4, #1
 8000f3c:	2201      	movs	r2, #1
 8000f3e:	400c      	ands	r4, r1
 8000f40:	2000      	movs	r0, #0
 8000f42:	e73d      	b.n	8000dc0 <__aeabi_fmul+0x94>
 8000f44:	2401      	movs	r4, #1
 8000f46:	019b      	lsls	r3, r3, #6
 8000f48:	0a58      	lsrs	r0, r3, #9
 8000f4a:	400c      	ands	r4, r1
 8000f4c:	2200      	movs	r2, #0
 8000f4e:	e737      	b.n	8000dc0 <__aeabi_fmul+0x94>
 8000f50:	2080      	movs	r0, #128	; 0x80
 8000f52:	2401      	movs	r4, #1
 8000f54:	03c0      	lsls	r0, r0, #15
 8000f56:	4328      	orrs	r0, r5
 8000f58:	0240      	lsls	r0, r0, #9
 8000f5a:	0a40      	lsrs	r0, r0, #9
 8000f5c:	400c      	ands	r4, r1
 8000f5e:	22ff      	movs	r2, #255	; 0xff
 8000f60:	e72e      	b.n	8000dc0 <__aeabi_fmul+0x94>
 8000f62:	46c0      	nop			; (mov r8, r8)
 8000f64:	08004518 	.word	0x08004518
 8000f68:	f7ffffff 	.word	0xf7ffffff

08000f6c <__aeabi_fsub>:
 8000f6c:	b5f0      	push	{r4, r5, r6, r7, lr}
 8000f6e:	464f      	mov	r7, r9
 8000f70:	46d6      	mov	lr, sl
 8000f72:	4646      	mov	r6, r8
 8000f74:	0044      	lsls	r4, r0, #1
 8000f76:	b5c0      	push	{r6, r7, lr}
 8000f78:	0fc2      	lsrs	r2, r0, #31
 8000f7a:	0247      	lsls	r7, r0, #9
 8000f7c:	0248      	lsls	r0, r1, #9
 8000f7e:	0a40      	lsrs	r0, r0, #9
 8000f80:	4684      	mov	ip, r0
 8000f82:	4666      	mov	r6, ip
 8000f84:	0a7b      	lsrs	r3, r7, #9
 8000f86:	0048      	lsls	r0, r1, #1
 8000f88:	0fc9      	lsrs	r1, r1, #31
 8000f8a:	469a      	mov	sl, r3
 8000f8c:	0e24      	lsrs	r4, r4, #24
 8000f8e:	0015      	movs	r5, r2
 8000f90:	00db      	lsls	r3, r3, #3
 8000f92:	0e00      	lsrs	r0, r0, #24
 8000f94:	4689      	mov	r9, r1
 8000f96:	00f6      	lsls	r6, r6, #3
 8000f98:	28ff      	cmp	r0, #255	; 0xff
 8000f9a:	d100      	bne.n	8000f9e <__aeabi_fsub+0x32>
 8000f9c:	e08f      	b.n	80010be <__aeabi_fsub+0x152>
 8000f9e:	2101      	movs	r1, #1
 8000fa0:	464f      	mov	r7, r9
 8000fa2:	404f      	eors	r7, r1
 8000fa4:	0039      	movs	r1, r7
 8000fa6:	4291      	cmp	r1, r2
 8000fa8:	d066      	beq.n	8001078 <__aeabi_fsub+0x10c>
 8000faa:	1a22      	subs	r2, r4, r0
 8000fac:	2a00      	cmp	r2, #0
 8000fae:	dc00      	bgt.n	8000fb2 <__aeabi_fsub+0x46>
 8000fb0:	e09d      	b.n	80010ee <__aeabi_fsub+0x182>
 8000fb2:	2800      	cmp	r0, #0
 8000fb4:	d13d      	bne.n	8001032 <__aeabi_fsub+0xc6>
 8000fb6:	2e00      	cmp	r6, #0
 8000fb8:	d100      	bne.n	8000fbc <__aeabi_fsub+0x50>
 8000fba:	e08b      	b.n	80010d4 <__aeabi_fsub+0x168>
 8000fbc:	1e51      	subs	r1, r2, #1
 8000fbe:	2900      	cmp	r1, #0
 8000fc0:	d000      	beq.n	8000fc4 <__aeabi_fsub+0x58>
 8000fc2:	e0b5      	b.n	8001130 <__aeabi_fsub+0x1c4>
 8000fc4:	2401      	movs	r4, #1
 8000fc6:	1b9b      	subs	r3, r3, r6
 8000fc8:	015a      	lsls	r2, r3, #5
 8000fca:	d544      	bpl.n	8001056 <__aeabi_fsub+0xea>
 8000fcc:	019b      	lsls	r3, r3, #6
 8000fce:	099f      	lsrs	r7, r3, #6
 8000fd0:	0038      	movs	r0, r7
 8000fd2:	f000 f9d7 	bl	8001384 <__clzsi2>
 8000fd6:	3805      	subs	r0, #5
 8000fd8:	4087      	lsls	r7, r0
 8000fda:	4284      	cmp	r4, r0
 8000fdc:	dd00      	ble.n	8000fe0 <__aeabi_fsub+0x74>
 8000fde:	e096      	b.n	800110e <__aeabi_fsub+0x1a2>
 8000fe0:	1b04      	subs	r4, r0, r4
 8000fe2:	003a      	movs	r2, r7
 8000fe4:	2020      	movs	r0, #32
 8000fe6:	3401      	adds	r4, #1
 8000fe8:	40e2      	lsrs	r2, r4
 8000fea:	1b04      	subs	r4, r0, r4
 8000fec:	40a7      	lsls	r7, r4
 8000fee:	003b      	movs	r3, r7
 8000ff0:	1e5f      	subs	r7, r3, #1
 8000ff2:	41bb      	sbcs	r3, r7
 8000ff4:	2400      	movs	r4, #0
 8000ff6:	4313      	orrs	r3, r2
 8000ff8:	075a      	lsls	r2, r3, #29
 8000ffa:	d004      	beq.n	8001006 <__aeabi_fsub+0x9a>
 8000ffc:	220f      	movs	r2, #15
 8000ffe:	401a      	ands	r2, r3
 8001000:	2a04      	cmp	r2, #4
 8001002:	d000      	beq.n	8001006 <__aeabi_fsub+0x9a>
 8001004:	3304      	adds	r3, #4
 8001006:	015a      	lsls	r2, r3, #5
 8001008:	d527      	bpl.n	800105a <__aeabi_fsub+0xee>
 800100a:	3401      	adds	r4, #1
 800100c:	2cff      	cmp	r4, #255	; 0xff
 800100e:	d100      	bne.n	8001012 <__aeabi_fsub+0xa6>
 8001010:	e079      	b.n	8001106 <__aeabi_fsub+0x19a>
 8001012:	2201      	movs	r2, #1
 8001014:	019b      	lsls	r3, r3, #6
 8001016:	0a5b      	lsrs	r3, r3, #9
 8001018:	b2e4      	uxtb	r4, r4
 800101a:	402a      	ands	r2, r5
 800101c:	025b      	lsls	r3, r3, #9
 800101e:	05e4      	lsls	r4, r4, #23
 8001020:	0a58      	lsrs	r0, r3, #9
 8001022:	07d2      	lsls	r2, r2, #31
 8001024:	4320      	orrs	r0, r4
 8001026:	4310      	orrs	r0, r2
 8001028:	bc1c      	pop	{r2, r3, r4}
 800102a:	4690      	mov	r8, r2
 800102c:	4699      	mov	r9, r3
 800102e:	46a2      	mov	sl, r4
 8001030:	bdf0      	pop	{r4, r5, r6, r7, pc}
 8001032:	2cff      	cmp	r4, #255	; 0xff
 8001034:	d0e0      	beq.n	8000ff8 <__aeabi_fsub+0x8c>
 8001036:	2180      	movs	r1, #128	; 0x80
 8001038:	04c9      	lsls	r1, r1, #19
 800103a:	430e      	orrs	r6, r1
 800103c:	2a1b      	cmp	r2, #27
 800103e:	dc7b      	bgt.n	8001138 <__aeabi_fsub+0x1cc>
 8001040:	0031      	movs	r1, r6
 8001042:	2020      	movs	r0, #32
 8001044:	40d1      	lsrs	r1, r2
 8001046:	1a82      	subs	r2, r0, r2
 8001048:	4096      	lsls	r6, r2
 800104a:	1e72      	subs	r2, r6, #1
 800104c:	4196      	sbcs	r6, r2
 800104e:	430e      	orrs	r6, r1
 8001050:	1b9b      	subs	r3, r3, r6
 8001052:	015a      	lsls	r2, r3, #5
 8001054:	d4ba      	bmi.n	8000fcc <__aeabi_fsub+0x60>
 8001056:	075a      	lsls	r2, r3, #29
 8001058:	d1d0      	bne.n	8000ffc <__aeabi_fsub+0x90>
 800105a:	2201      	movs	r2, #1
 800105c:	08df      	lsrs	r7, r3, #3
 800105e:	402a      	ands	r2, r5
 8001060:	2cff      	cmp	r4, #255	; 0xff
 8001062:	d133      	bne.n	80010cc <__aeabi_fsub+0x160>
 8001064:	2f00      	cmp	r7, #0
 8001066:	d100      	bne.n	800106a <__aeabi_fsub+0xfe>
 8001068:	e0a8      	b.n	80011bc <__aeabi_fsub+0x250>
 800106a:	2380      	movs	r3, #128	; 0x80
 800106c:	03db      	lsls	r3, r3, #15
 800106e:	433b      	orrs	r3, r7
 8001070:	025b      	lsls	r3, r3, #9
 8001072:	0a5b      	lsrs	r3, r3, #9
 8001074:	24ff      	movs	r4, #255	; 0xff
 8001076:	e7d1      	b.n	800101c <__aeabi_fsub+0xb0>
 8001078:	1a21      	subs	r1, r4, r0
 800107a:	2900      	cmp	r1, #0
 800107c:	dd4c      	ble.n	8001118 <__aeabi_fsub+0x1ac>
 800107e:	2800      	cmp	r0, #0
 8001080:	d02a      	beq.n	80010d8 <__aeabi_fsub+0x16c>
 8001082:	2cff      	cmp	r4, #255	; 0xff
 8001084:	d0b8      	beq.n	8000ff8 <__aeabi_fsub+0x8c>
 8001086:	2080      	movs	r0, #128	; 0x80
 8001088:	04c0      	lsls	r0, r0, #19
 800108a:	4306      	orrs	r6, r0
 800108c:	291b      	cmp	r1, #27
 800108e:	dd00      	ble.n	8001092 <__aeabi_fsub+0x126>
 8001090:	e0af      	b.n	80011f2 <__aeabi_fsub+0x286>
 8001092:	0030      	movs	r0, r6
 8001094:	2720      	movs	r7, #32
 8001096:	40c8      	lsrs	r0, r1
 8001098:	1a79      	subs	r1, r7, r1
 800109a:	408e      	lsls	r6, r1
 800109c:	1e71      	subs	r1, r6, #1
 800109e:	418e      	sbcs	r6, r1
 80010a0:	4306      	orrs	r6, r0
 80010a2:	199b      	adds	r3, r3, r6
 80010a4:	0159      	lsls	r1, r3, #5
 80010a6:	d5d6      	bpl.n	8001056 <__aeabi_fsub+0xea>
 80010a8:	3401      	adds	r4, #1
 80010aa:	2cff      	cmp	r4, #255	; 0xff
 80010ac:	d100      	bne.n	80010b0 <__aeabi_fsub+0x144>
 80010ae:	e085      	b.n	80011bc <__aeabi_fsub+0x250>
 80010b0:	2201      	movs	r2, #1
 80010b2:	497a      	ldr	r1, [pc, #488]	; (800129c <__aeabi_fsub+0x330>)
 80010b4:	401a      	ands	r2, r3
 80010b6:	085b      	lsrs	r3, r3, #1
 80010b8:	400b      	ands	r3, r1
 80010ba:	4313      	orrs	r3, r2
 80010bc:	e79c      	b.n	8000ff8 <__aeabi_fsub+0x8c>
 80010be:	2e00      	cmp	r6, #0
 80010c0:	d000      	beq.n	80010c4 <__aeabi_fsub+0x158>
 80010c2:	e770      	b.n	8000fa6 <__aeabi_fsub+0x3a>
 80010c4:	e76b      	b.n	8000f9e <__aeabi_fsub+0x32>
 80010c6:	1e3b      	subs	r3, r7, #0
 80010c8:	d1c5      	bne.n	8001056 <__aeabi_fsub+0xea>
 80010ca:	2200      	movs	r2, #0
 80010cc:	027b      	lsls	r3, r7, #9
 80010ce:	0a5b      	lsrs	r3, r3, #9
 80010d0:	b2e4      	uxtb	r4, r4
 80010d2:	e7a3      	b.n	800101c <__aeabi_fsub+0xb0>
 80010d4:	0014      	movs	r4, r2
 80010d6:	e78f      	b.n	8000ff8 <__aeabi_fsub+0x8c>
 80010d8:	2e00      	cmp	r6, #0
 80010da:	d04d      	beq.n	8001178 <__aeabi_fsub+0x20c>
 80010dc:	1e48      	subs	r0, r1, #1
 80010de:	2800      	cmp	r0, #0
 80010e0:	d157      	bne.n	8001192 <__aeabi_fsub+0x226>
 80010e2:	199b      	adds	r3, r3, r6
 80010e4:	2401      	movs	r4, #1
 80010e6:	015a      	lsls	r2, r3, #5
 80010e8:	d5b5      	bpl.n	8001056 <__aeabi_fsub+0xea>
 80010ea:	2402      	movs	r4, #2
 80010ec:	e7e0      	b.n	80010b0 <__aeabi_fsub+0x144>
 80010ee:	2a00      	cmp	r2, #0
 80010f0:	d125      	bne.n	800113e <__aeabi_fsub+0x1d2>
 80010f2:	1c62      	adds	r2, r4, #1
 80010f4:	b2d2      	uxtb	r2, r2
 80010f6:	2a01      	cmp	r2, #1
 80010f8:	dd72      	ble.n	80011e0 <__aeabi_fsub+0x274>
 80010fa:	1b9f      	subs	r7, r3, r6
 80010fc:	017a      	lsls	r2, r7, #5
 80010fe:	d535      	bpl.n	800116c <__aeabi_fsub+0x200>
 8001100:	1af7      	subs	r7, r6, r3
 8001102:	000d      	movs	r5, r1
 8001104:	e764      	b.n	8000fd0 <__aeabi_fsub+0x64>
 8001106:	2201      	movs	r2, #1
 8001108:	2300      	movs	r3, #0
 800110a:	402a      	ands	r2, r5
 800110c:	e786      	b.n	800101c <__aeabi_fsub+0xb0>
 800110e:	003b      	movs	r3, r7
 8001110:	4a63      	ldr	r2, [pc, #396]	; (80012a0 <__aeabi_fsub+0x334>)
 8001112:	1a24      	subs	r4, r4, r0
 8001114:	4013      	ands	r3, r2
 8001116:	e76f      	b.n	8000ff8 <__aeabi_fsub+0x8c>
 8001118:	2900      	cmp	r1, #0
 800111a:	d16c      	bne.n	80011f6 <__aeabi_fsub+0x28a>
 800111c:	1c61      	adds	r1, r4, #1
 800111e:	b2c8      	uxtb	r0, r1
 8001120:	2801      	cmp	r0, #1
 8001122:	dd4e      	ble.n	80011c2 <__aeabi_fsub+0x256>
 8001124:	29ff      	cmp	r1, #255	; 0xff
 8001126:	d049      	beq.n	80011bc <__aeabi_fsub+0x250>
 8001128:	199b      	adds	r3, r3, r6
 800112a:	085b      	lsrs	r3, r3, #1
 800112c:	000c      	movs	r4, r1
 800112e:	e763      	b.n	8000ff8 <__aeabi_fsub+0x8c>
 8001130:	2aff      	cmp	r2, #255	; 0xff
 8001132:	d041      	beq.n	80011b8 <__aeabi_fsub+0x24c>
 8001134:	000a      	movs	r2, r1
 8001136:	e781      	b.n	800103c <__aeabi_fsub+0xd0>
 8001138:	2601      	movs	r6, #1
 800113a:	1b9b      	subs	r3, r3, r6
 800113c:	e789      	b.n	8001052 <__aeabi_fsub+0xe6>
 800113e:	2c00      	cmp	r4, #0
 8001140:	d01c      	beq.n	800117c <__aeabi_fsub+0x210>
 8001142:	28ff      	cmp	r0, #255	; 0xff
 8001144:	d021      	beq.n	800118a <__aeabi_fsub+0x21e>
 8001146:	2480      	movs	r4, #128	; 0x80
 8001148:	04e4      	lsls	r4, r4, #19
 800114a:	4252      	negs	r2, r2
 800114c:	4323      	orrs	r3, r4
 800114e:	2a1b      	cmp	r2, #27
 8001150:	dd00      	ble.n	8001154 <__aeabi_fsub+0x1e8>
 8001152:	e096      	b.n	8001282 <__aeabi_fsub+0x316>
 8001154:	001c      	movs	r4, r3
 8001156:	2520      	movs	r5, #32
 8001158:	40d4      	lsrs	r4, r2
 800115a:	1aaa      	subs	r2, r5, r2
 800115c:	4093      	lsls	r3, r2
 800115e:	1e5a      	subs	r2, r3, #1
 8001160:	4193      	sbcs	r3, r2
 8001162:	4323      	orrs	r3, r4
 8001164:	1af3      	subs	r3, r6, r3
 8001166:	0004      	movs	r4, r0
 8001168:	000d      	movs	r5, r1
 800116a:	e72d      	b.n	8000fc8 <__aeabi_fsub+0x5c>
 800116c:	2f00      	cmp	r7, #0
 800116e:	d000      	beq.n	8001172 <__aeabi_fsub+0x206>
 8001170:	e72e      	b.n	8000fd0 <__aeabi_fsub+0x64>
 8001172:	2200      	movs	r2, #0
 8001174:	2400      	movs	r4, #0
 8001176:	e7a9      	b.n	80010cc <__aeabi_fsub+0x160>
 8001178:	000c      	movs	r4, r1
 800117a:	e73d      	b.n	8000ff8 <__aeabi_fsub+0x8c>
 800117c:	2b00      	cmp	r3, #0
 800117e:	d058      	beq.n	8001232 <__aeabi_fsub+0x2c6>
 8001180:	43d2      	mvns	r2, r2
 8001182:	2a00      	cmp	r2, #0
 8001184:	d0ee      	beq.n	8001164 <__aeabi_fsub+0x1f8>
 8001186:	28ff      	cmp	r0, #255	; 0xff
 8001188:	d1e1      	bne.n	800114e <__aeabi_fsub+0x1e2>
 800118a:	0033      	movs	r3, r6
 800118c:	24ff      	movs	r4, #255	; 0xff
 800118e:	000d      	movs	r5, r1
 8001190:	e732      	b.n	8000ff8 <__aeabi_fsub+0x8c>
 8001192:	29ff      	cmp	r1, #255	; 0xff
 8001194:	d010      	beq.n	80011b8 <__aeabi_fsub+0x24c>
 8001196:	0001      	movs	r1, r0
 8001198:	e778      	b.n	800108c <__aeabi_fsub+0x120>
 800119a:	2b00      	cmp	r3, #0
 800119c:	d06e      	beq.n	800127c <__aeabi_fsub+0x310>
 800119e:	24ff      	movs	r4, #255	; 0xff
 80011a0:	2e00      	cmp	r6, #0
 80011a2:	d100      	bne.n	80011a6 <__aeabi_fsub+0x23a>
 80011a4:	e728      	b.n	8000ff8 <__aeabi_fsub+0x8c>
 80011a6:	2280      	movs	r2, #128	; 0x80
 80011a8:	4651      	mov	r1, sl
 80011aa:	03d2      	lsls	r2, r2, #15
 80011ac:	4211      	tst	r1, r2
 80011ae:	d003      	beq.n	80011b8 <__aeabi_fsub+0x24c>
 80011b0:	4661      	mov	r1, ip
 80011b2:	4211      	tst	r1, r2
 80011b4:	d100      	bne.n	80011b8 <__aeabi_fsub+0x24c>
 80011b6:	0033      	movs	r3, r6
 80011b8:	24ff      	movs	r4, #255	; 0xff
 80011ba:	e71d      	b.n	8000ff8 <__aeabi_fsub+0x8c>
 80011bc:	24ff      	movs	r4, #255	; 0xff
 80011be:	2300      	movs	r3, #0
 80011c0:	e72c      	b.n	800101c <__aeabi_fsub+0xb0>
 80011c2:	2c00      	cmp	r4, #0
 80011c4:	d1e9      	bne.n	800119a <__aeabi_fsub+0x22e>
 80011c6:	2b00      	cmp	r3, #0
 80011c8:	d063      	beq.n	8001292 <__aeabi_fsub+0x326>
 80011ca:	2e00      	cmp	r6, #0
 80011cc:	d100      	bne.n	80011d0 <__aeabi_fsub+0x264>
 80011ce:	e713      	b.n	8000ff8 <__aeabi_fsub+0x8c>
 80011d0:	199b      	adds	r3, r3, r6
 80011d2:	015a      	lsls	r2, r3, #5
 80011d4:	d400      	bmi.n	80011d8 <__aeabi_fsub+0x26c>
 80011d6:	e73e      	b.n	8001056 <__aeabi_fsub+0xea>
 80011d8:	4a31      	ldr	r2, [pc, #196]	; (80012a0 <__aeabi_fsub+0x334>)
 80011da:	000c      	movs	r4, r1
 80011dc:	4013      	ands	r3, r2
 80011de:	e70b      	b.n	8000ff8 <__aeabi_fsub+0x8c>
 80011e0:	2c00      	cmp	r4, #0
 80011e2:	d11e      	bne.n	8001222 <__aeabi_fsub+0x2b6>
 80011e4:	2b00      	cmp	r3, #0
 80011e6:	d12f      	bne.n	8001248 <__aeabi_fsub+0x2dc>
 80011e8:	2e00      	cmp	r6, #0
 80011ea:	d04f      	beq.n	800128c <__aeabi_fsub+0x320>
 80011ec:	0033      	movs	r3, r6
 80011ee:	000d      	movs	r5, r1
 80011f0:	e702      	b.n	8000ff8 <__aeabi_fsub+0x8c>
 80011f2:	2601      	movs	r6, #1
 80011f4:	e755      	b.n	80010a2 <__aeabi_fsub+0x136>
 80011f6:	2c00      	cmp	r4, #0
 80011f8:	d11f      	bne.n	800123a <__aeabi_fsub+0x2ce>
 80011fa:	2b00      	cmp	r3, #0
 80011fc:	d043      	beq.n	8001286 <__aeabi_fsub+0x31a>
 80011fe:	43c9      	mvns	r1, r1
 8001200:	2900      	cmp	r1, #0
 8001202:	d00b      	beq.n	800121c <__aeabi_fsub+0x2b0>
 8001204:	28ff      	cmp	r0, #255	; 0xff
 8001206:	d039      	beq.n	800127c <__aeabi_fsub+0x310>
 8001208:	291b      	cmp	r1, #27
 800120a:	dc44      	bgt.n	8001296 <__aeabi_fsub+0x32a>
 800120c:	001c      	movs	r4, r3
 800120e:	2720      	movs	r7, #32
 8001210:	40cc      	lsrs	r4, r1
 8001212:	1a79      	subs	r1, r7, r1
 8001214:	408b      	lsls	r3, r1
 8001216:	1e59      	subs	r1, r3, #1
 8001218:	418b      	sbcs	r3, r1
 800121a:	4323      	orrs	r3, r4
 800121c:	199b      	adds	r3, r3, r6
 800121e:	0004      	movs	r4, r0
 8001220:	e740      	b.n	80010a4 <__aeabi_fsub+0x138>
 8001222:	2b00      	cmp	r3, #0
 8001224:	d11a      	bne.n	800125c <__aeabi_fsub+0x2f0>
 8001226:	2e00      	cmp	r6, #0
 8001228:	d124      	bne.n	8001274 <__aeabi_fsub+0x308>
 800122a:	2780      	movs	r7, #128	; 0x80
 800122c:	2200      	movs	r2, #0
 800122e:	03ff      	lsls	r7, r7, #15
 8001230:	e71b      	b.n	800106a <__aeabi_fsub+0xfe>
 8001232:	0033      	movs	r3, r6
 8001234:	0004      	movs	r4, r0
 8001236:	000d      	movs	r5, r1
 8001238:	e6de      	b.n	8000ff8 <__aeabi_fsub+0x8c>
 800123a:	28ff      	cmp	r0, #255	; 0xff
 800123c:	d01e      	beq.n	800127c <__aeabi_fsub+0x310>
 800123e:	2480      	movs	r4, #128	; 0x80
 8001240:	04e4      	lsls	r4, r4, #19
 8001242:	4249      	negs	r1, r1
 8001244:	4323      	orrs	r3, r4
 8001246:	e7df      	b.n	8001208 <__aeabi_fsub+0x29c>
 8001248:	2e00      	cmp	r6, #0
 800124a:	d100      	bne.n	800124e <__aeabi_fsub+0x2e2>
 800124c:	e6d4      	b.n	8000ff8 <__aeabi_fsub+0x8c>
 800124e:	1b9f      	subs	r7, r3, r6
 8001250:	017a      	lsls	r2, r7, #5
 8001252:	d400      	bmi.n	8001256 <__aeabi_fsub+0x2ea>
 8001254:	e737      	b.n	80010c6 <__aeabi_fsub+0x15a>
 8001256:	1af3      	subs	r3, r6, r3
 8001258:	000d      	movs	r5, r1
 800125a:	e6cd      	b.n	8000ff8 <__aeabi_fsub+0x8c>
 800125c:	24ff      	movs	r4, #255	; 0xff
 800125e:	2e00      	cmp	r6, #0
 8001260:	d100      	bne.n	8001264 <__aeabi_fsub+0x2f8>
 8001262:	e6c9      	b.n	8000ff8 <__aeabi_fsub+0x8c>
 8001264:	2280      	movs	r2, #128	; 0x80
 8001266:	4650      	mov	r0, sl
 8001268:	03d2      	lsls	r2, r2, #15
 800126a:	4210      	tst	r0, r2
 800126c:	d0a4      	beq.n	80011b8 <__aeabi_fsub+0x24c>
 800126e:	4660      	mov	r0, ip
 8001270:	4210      	tst	r0, r2
 8001272:	d1a1      	bne.n	80011b8 <__aeabi_fsub+0x24c>
 8001274:	0033      	movs	r3, r6
 8001276:	000d      	movs	r5, r1
 8001278:	24ff      	movs	r4, #255	; 0xff
 800127a:	e6bd      	b.n	8000ff8 <__aeabi_fsub+0x8c>
 800127c:	0033      	movs	r3, r6
 800127e:	24ff      	movs	r4, #255	; 0xff
 8001280:	e6ba      	b.n	8000ff8 <__aeabi_fsub+0x8c>
 8001282:	2301      	movs	r3, #1
 8001284:	e76e      	b.n	8001164 <__aeabi_fsub+0x1f8>
 8001286:	0033      	movs	r3, r6
 8001288:	0004      	movs	r4, r0
 800128a:	e6b5      	b.n	8000ff8 <__aeabi_fsub+0x8c>
 800128c:	2700      	movs	r7, #0
 800128e:	2200      	movs	r2, #0
 8001290:	e71c      	b.n	80010cc <__aeabi_fsub+0x160>
 8001292:	0033      	movs	r3, r6
 8001294:	e6b0      	b.n	8000ff8 <__aeabi_fsub+0x8c>
 8001296:	2301      	movs	r3, #1
 8001298:	e7c0      	b.n	800121c <__aeabi_fsub+0x2b0>
 800129a:	46c0      	nop			; (mov r8, r8)
 800129c:	7dffffff 	.word	0x7dffffff
 80012a0:	fbffffff 	.word	0xfbffffff

080012a4 <__aeabi_f2iz>:
 80012a4:	0241      	lsls	r1, r0, #9
 80012a6:	0043      	lsls	r3, r0, #1
 80012a8:	0fc2      	lsrs	r2, r0, #31
 80012aa:	0a49      	lsrs	r1, r1, #9
 80012ac:	0e1b      	lsrs	r3, r3, #24
 80012ae:	2000      	movs	r0, #0
 80012b0:	2b7e      	cmp	r3, #126	; 0x7e
 80012b2:	dd0d      	ble.n	80012d0 <__aeabi_f2iz+0x2c>
 80012b4:	2b9d      	cmp	r3, #157	; 0x9d
 80012b6:	dc0c      	bgt.n	80012d2 <__aeabi_f2iz+0x2e>
 80012b8:	2080      	movs	r0, #128	; 0x80
 80012ba:	0400      	lsls	r0, r0, #16
 80012bc:	4301      	orrs	r1, r0
 80012be:	2b95      	cmp	r3, #149	; 0x95
 80012c0:	dc0a      	bgt.n	80012d8 <__aeabi_f2iz+0x34>
 80012c2:	2096      	movs	r0, #150	; 0x96
 80012c4:	1ac3      	subs	r3, r0, r3
 80012c6:	40d9      	lsrs	r1, r3
 80012c8:	4248      	negs	r0, r1
 80012ca:	2a00      	cmp	r2, #0
 80012cc:	d100      	bne.n	80012d0 <__aeabi_f2iz+0x2c>
 80012ce:	0008      	movs	r0, r1
 80012d0:	4770      	bx	lr
 80012d2:	4b03      	ldr	r3, [pc, #12]	; (80012e0 <__aeabi_f2iz+0x3c>)
 80012d4:	18d0      	adds	r0, r2, r3
 80012d6:	e7fb      	b.n	80012d0 <__aeabi_f2iz+0x2c>
 80012d8:	3b96      	subs	r3, #150	; 0x96
 80012da:	4099      	lsls	r1, r3
 80012dc:	e7f4      	b.n	80012c8 <__aeabi_f2iz+0x24>
 80012de:	46c0      	nop			; (mov r8, r8)
 80012e0:	7fffffff 	.word	0x7fffffff

080012e4 <__aeabi_i2f>:
 80012e4:	b570      	push	{r4, r5, r6, lr}
 80012e6:	2800      	cmp	r0, #0
 80012e8:	d030      	beq.n	800134c <__aeabi_i2f+0x68>
 80012ea:	17c3      	asrs	r3, r0, #31
 80012ec:	18c4      	adds	r4, r0, r3
 80012ee:	405c      	eors	r4, r3
 80012f0:	0fc5      	lsrs	r5, r0, #31
 80012f2:	0020      	movs	r0, r4
 80012f4:	f000 f846 	bl	8001384 <__clzsi2>
 80012f8:	239e      	movs	r3, #158	; 0x9e
 80012fa:	1a1b      	subs	r3, r3, r0
 80012fc:	2b96      	cmp	r3, #150	; 0x96
 80012fe:	dc0d      	bgt.n	800131c <__aeabi_i2f+0x38>
 8001300:	2296      	movs	r2, #150	; 0x96
 8001302:	1ad2      	subs	r2, r2, r3
 8001304:	4094      	lsls	r4, r2
 8001306:	002a      	movs	r2, r5
 8001308:	0264      	lsls	r4, r4, #9
 800130a:	0a64      	lsrs	r4, r4, #9
 800130c:	b2db      	uxtb	r3, r3
 800130e:	0264      	lsls	r4, r4, #9
 8001310:	05db      	lsls	r3, r3, #23
 8001312:	0a60      	lsrs	r0, r4, #9
 8001314:	07d2      	lsls	r2, r2, #31
 8001316:	4318      	orrs	r0, r3
 8001318:	4310      	orrs	r0, r2
 800131a:	bd70      	pop	{r4, r5, r6, pc}
 800131c:	2b99      	cmp	r3, #153	; 0x99
 800131e:	dc19      	bgt.n	8001354 <__aeabi_i2f+0x70>
 8001320:	2299      	movs	r2, #153	; 0x99
 8001322:	1ad2      	subs	r2, r2, r3
 8001324:	2a00      	cmp	r2, #0
 8001326:	dd29      	ble.n	800137c <__aeabi_i2f+0x98>
 8001328:	4094      	lsls	r4, r2
 800132a:	0022      	movs	r2, r4
 800132c:	4c14      	ldr	r4, [pc, #80]	; (8001380 <__aeabi_i2f+0x9c>)
 800132e:	4014      	ands	r4, r2
 8001330:	0751      	lsls	r1, r2, #29
 8001332:	d004      	beq.n	800133e <__aeabi_i2f+0x5a>
 8001334:	210f      	movs	r1, #15
 8001336:	400a      	ands	r2, r1
 8001338:	2a04      	cmp	r2, #4
 800133a:	d000      	beq.n	800133e <__aeabi_i2f+0x5a>
 800133c:	3404      	adds	r4, #4
 800133e:	0162      	lsls	r2, r4, #5
 8001340:	d413      	bmi.n	800136a <__aeabi_i2f+0x86>
 8001342:	01a4      	lsls	r4, r4, #6
 8001344:	0a64      	lsrs	r4, r4, #9
 8001346:	b2db      	uxtb	r3, r3
 8001348:	002a      	movs	r2, r5
 800134a:	e7e0      	b.n	800130e <__aeabi_i2f+0x2a>
 800134c:	2200      	movs	r2, #0
 800134e:	2300      	movs	r3, #0
 8001350:	2400      	movs	r4, #0
 8001352:	e7dc      	b.n	800130e <__aeabi_i2f+0x2a>
 8001354:	2205      	movs	r2, #5
 8001356:	0021      	movs	r1, r4
 8001358:	1a12      	subs	r2, r2, r0
 800135a:	40d1      	lsrs	r1, r2
 800135c:	22b9      	movs	r2, #185	; 0xb9
 800135e:	1ad2      	subs	r2, r2, r3
 8001360:	4094      	lsls	r4, r2
 8001362:	1e62      	subs	r2, r4, #1
 8001364:	4194      	sbcs	r4, r2
 8001366:	430c      	orrs	r4, r1
 8001368:	e7da      	b.n	8001320 <__aeabi_i2f+0x3c>
 800136a:	4b05      	ldr	r3, [pc, #20]	; (8001380 <__aeabi_i2f+0x9c>)
 800136c:	002a      	movs	r2, r5
 800136e:	401c      	ands	r4, r3
 8001370:	239f      	movs	r3, #159	; 0x9f
 8001372:	01a4      	lsls	r4, r4, #6
 8001374:	1a1b      	subs	r3, r3, r0
 8001376:	0a64      	lsrs	r4, r4, #9
 8001378:	b2db      	uxtb	r3, r3
 800137a:	e7c8      	b.n	800130e <__aeabi_i2f+0x2a>
 800137c:	0022      	movs	r2, r4
 800137e:	e7d5      	b.n	800132c <__aeabi_i2f+0x48>
 8001380:	fbffffff 	.word	0xfbffffff

08001384 <__clzsi2>:
 8001384:	211c      	movs	r1, #28
 8001386:	2301      	movs	r3, #1
 8001388:	041b      	lsls	r3, r3, #16
 800138a:	4298      	cmp	r0, r3
 800138c:	d301      	bcc.n	8001392 <__clzsi2+0xe>
 800138e:	0c00      	lsrs	r0, r0, #16
 8001390:	3910      	subs	r1, #16
 8001392:	0a1b      	lsrs	r3, r3, #8
 8001394:	4298      	cmp	r0, r3
 8001396:	d301      	bcc.n	800139c <__clzsi2+0x18>
 8001398:	0a00      	lsrs	r0, r0, #8
 800139a:	3908      	subs	r1, #8
 800139c:	091b      	lsrs	r3, r3, #4
 800139e:	4298      	cmp	r0, r3
 80013a0:	d301      	bcc.n	80013a6 <__clzsi2+0x22>
 80013a2:	0900      	lsrs	r0, r0, #4
 80013a4:	3904      	subs	r1, #4
 80013a6:	a202      	add	r2, pc, #8	; (adr r2, 80013b0 <__clzsi2+0x2c>)
 80013a8:	5c10      	ldrb	r0, [r2, r0]
 80013aa:	1840      	adds	r0, r0, r1
 80013ac:	4770      	bx	lr
 80013ae:	46c0      	nop			; (mov r8, r8)
 80013b0:	02020304 	.word	0x02020304
 80013b4:	01010101 	.word	0x01010101
	...

080013c0 <__clzdi2>:
 80013c0:	b510      	push	{r4, lr}
 80013c2:	2900      	cmp	r1, #0
 80013c4:	d103      	bne.n	80013ce <__clzdi2+0xe>
 80013c6:	f7ff ffdd 	bl	8001384 <__clzsi2>
 80013ca:	3020      	adds	r0, #32
 80013cc:	e002      	b.n	80013d4 <__clzdi2+0x14>
 80013ce:	1c08      	adds	r0, r1, #0
 80013d0:	f7ff ffd8 	bl	8001384 <__clzsi2>
 80013d4:	bd10      	pop	{r4, pc}
 80013d6:	46c0      	nop			; (mov r8, r8)

080013d8 <HAL_InitTick>:
  *       implementation  in user file.
  * @param TickPriority Tick interrupt priority.
  * @retval HAL status
  */
__weak HAL_StatusTypeDef HAL_InitTick(uint32_t TickPriority)
{
 80013d8:	b510      	push	{r4, lr}
 80013da:	0004      	movs	r4, r0
  HAL_StatusTypeDef  status = HAL_OK;

  /*Configure the SysTick to have interrupt in 1ms time basis*/
  if (HAL_SYSTICK_Config(SystemCoreClock/1000UL) != 0U)
 80013dc:	4b09      	ldr	r3, [pc, #36]	; (8001404 <HAL_InitTick+0x2c>)
 80013de:	6818      	ldr	r0, [r3, #0]
 80013e0:	21fa      	movs	r1, #250	; 0xfa
 80013e2:	0089      	lsls	r1, r1, #2
 80013e4:	f7fe fe90 	bl	8000108 <__udivsi3>
 80013e8:	f000 f872 	bl	80014d0 <HAL_SYSTICK_Config>
 80013ec:	2800      	cmp	r0, #0
 80013ee:	d001      	beq.n	80013f4 <HAL_InitTick+0x1c>
  {
    status = HAL_ERROR;
 80013f0:	2001      	movs	r0, #1
    HAL_NVIC_SetPriority(SysTick_IRQn, TickPriority, 0);
  }

  /* Return function status */
  return status;
}
 80013f2:	bd10      	pop	{r4, pc}
    HAL_NVIC_SetPriority(SysTick_IRQn, TickPriority, 0);
 80013f4:	2200      	movs	r2, #0
 80013f6:	0021      	movs	r1, r4
 80013f8:	3801      	subs	r0, #1
 80013fa:	f000 f82d 	bl	8001458 <HAL_NVIC_SetPriority>
  HAL_StatusTypeDef  status = HAL_OK;
 80013fe:	2000      	movs	r0, #0
 8001400:	e7f7      	b.n	80013f2 <HAL_InitTick+0x1a>
 8001402:	46c0      	nop			; (mov r8, r8)
 8001404:	20000000 	.word	0x20000000

08001408 <HAL_Init>:
{
 8001408:	b510      	push	{r4, lr}
  __HAL_FLASH_PREREAD_BUFFER_ENABLE();
 800140a:	4a08      	ldr	r2, [pc, #32]	; (800142c <HAL_Init+0x24>)
 800140c:	6813      	ldr	r3, [r2, #0]
 800140e:	2140      	movs	r1, #64	; 0x40
 8001410:	430b      	orrs	r3, r1
 8001412:	6013      	str	r3, [r2, #0]
  if (HAL_InitTick(TICK_INT_PRIORITY) != HAL_OK)
 8001414:	2000      	movs	r0, #0
 8001416:	f7ff ffdf 	bl	80013d8 <HAL_InitTick>
 800141a:	1e04      	subs	r4, r0, #0
 800141c:	d002      	beq.n	8001424 <HAL_Init+0x1c>
    status = HAL_ERROR;
 800141e:	2401      	movs	r4, #1
}
 8001420:	0020      	movs	r0, r4
 8001422:	bd10      	pop	{r4, pc}
    HAL_MspInit();
 8001424:	f002 fdfe 	bl	8004024 <HAL_MspInit>
 8001428:	e7fa      	b.n	8001420 <HAL_Init+0x18>
 800142a:	46c0      	nop			; (mov r8, r8)
 800142c:	40022000 	.word	0x40022000

08001430 <HAL_GetTick>:
  *       implementations in user file.
  * @retval tick value
  */
__weak uint32_t HAL_GetTick(void)
{
  return uwTick;
 8001430:	4b01      	ldr	r3, [pc, #4]	; (8001438 <HAL_GetTick+0x8>)
 8001432:	6818      	ldr	r0, [r3, #0]
}
 8001434:	4770      	bx	lr
 8001436:	46c0      	nop			; (mov r8, r8)
 8001438:	20000020 	.word	0x20000020

0800143c <HAL_Delay>:
  *       implementations in user file.
  * @param Delay specifies the delay time length, in milliseconds.
  * @retval None
  */
__weak void HAL_Delay(uint32_t Delay)
{
 800143c:	b570      	push	{r4, r5, r6, lr}
 800143e:	0004      	movs	r4, r0
  uint32_t tickstart = HAL_GetTick();
 8001440:	f7ff fff6 	bl	8001430 <HAL_GetTick>
 8001444:	0005      	movs	r5, r0
  uint32_t wait = Delay;

  /* Add a period to guaranty minimum wait */
  if (wait < HAL_MAX_DELAY)
 8001446:	1c63      	adds	r3, r4, #1
 8001448:	d000      	beq.n	800144c <HAL_Delay+0x10>
  {
    wait++;
 800144a:	3401      	adds	r4, #1
  }

  while((HAL_GetTick() - tickstart) < wait)
 800144c:	f7ff fff0 	bl	8001430 <HAL_GetTick>
 8001450:	1b40      	subs	r0, r0, r5
 8001452:	4284      	cmp	r4, r0
 8001454:	d8fa      	bhi.n	800144c <HAL_Delay+0x10>
  {
  }
}
 8001456:	bd70      	pop	{r4, r5, r6, pc}

08001458 <HAL_NVIC_SetPriority>:
  *         with stm32l0xx devices, this parameter is a dummy value and it is ignored, because 
  *         no subpriority supported in Cortex M0+ based products.   
  * @retval None
  */
void HAL_NVIC_SetPriority(IRQn_Type IRQn, uint32_t PreemptPriority, uint32_t SubPriority)
{ 
 8001458:	b570      	push	{r4, r5, r6, lr}
  \param [in]      IRQn  Interrupt number.
  \param [in]  priority  Priority to set.
 */
__STATIC_INLINE void NVIC_SetPriority(IRQn_Type IRQn, uint32_t priority)
{
  if ((int32_t)(IRQn) < 0)
 800145a:	2800      	cmp	r0, #0
 800145c:	db11      	blt.n	8001482 <HAL_NVIC_SetPriority+0x2a>
    SCB->SHP[_SHP_IDX(IRQn)] = ((uint32_t)(SCB->SHP[_SHP_IDX(IRQn)] & ~(0xFFUL << _BIT_SHIFT(IRQn))) |
       (((priority << (8U - __NVIC_PRIO_BITS)) & (uint32_t)0xFFUL) << _BIT_SHIFT(IRQn)));
  }
  else
  {
    NVIC->IP[_IP_IDX(IRQn)]  = ((uint32_t)(NVIC->IP[_IP_IDX(IRQn)]  & ~(0xFFUL << _BIT_SHIFT(IRQn))) |
 800145e:	0883      	lsrs	r3, r0, #2
 8001460:	4d14      	ldr	r5, [pc, #80]	; (80014b4 <HAL_NVIC_SetPriority+0x5c>)
 8001462:	33c0      	adds	r3, #192	; 0xc0
 8001464:	009b      	lsls	r3, r3, #2
 8001466:	595c      	ldr	r4, [r3, r5]
 8001468:	2203      	movs	r2, #3
 800146a:	4010      	ands	r0, r2
 800146c:	00c0      	lsls	r0, r0, #3
 800146e:	32fc      	adds	r2, #252	; 0xfc
 8001470:	0016      	movs	r6, r2
 8001472:	4086      	lsls	r6, r0
 8001474:	43b4      	bics	r4, r6
       (((priority << (8U - __NVIC_PRIO_BITS)) & (uint32_t)0xFFUL) << _BIT_SHIFT(IRQn)));
 8001476:	0189      	lsls	r1, r1, #6
 8001478:	400a      	ands	r2, r1
 800147a:	4082      	lsls	r2, r0
    NVIC->IP[_IP_IDX(IRQn)]  = ((uint32_t)(NVIC->IP[_IP_IDX(IRQn)]  & ~(0xFFUL << _BIT_SHIFT(IRQn))) |
 800147c:	4322      	orrs	r2, r4
 800147e:	515a      	str	r2, [r3, r5]
    /* Check the parameters */
  assert_param(IS_NVIC_PREEMPTION_PRIORITY(PreemptPriority));
  NVIC_SetPriority(IRQn,PreemptPriority);
}
 8001480:	bd70      	pop	{r4, r5, r6, pc}
    SCB->SHP[_SHP_IDX(IRQn)] = ((uint32_t)(SCB->SHP[_SHP_IDX(IRQn)] & ~(0xFFUL << _BIT_SHIFT(IRQn))) |
 8001482:	b2c0      	uxtb	r0, r0
 8001484:	230f      	movs	r3, #15
 8001486:	4003      	ands	r3, r0
 8001488:	3b08      	subs	r3, #8
 800148a:	089b      	lsrs	r3, r3, #2
 800148c:	3306      	adds	r3, #6
 800148e:	009b      	lsls	r3, r3, #2
 8001490:	4a09      	ldr	r2, [pc, #36]	; (80014b8 <HAL_NVIC_SetPriority+0x60>)
 8001492:	4694      	mov	ip, r2
 8001494:	4463      	add	r3, ip
 8001496:	685d      	ldr	r5, [r3, #4]
 8001498:	2203      	movs	r2, #3
 800149a:	4010      	ands	r0, r2
 800149c:	00c0      	lsls	r0, r0, #3
 800149e:	24ff      	movs	r4, #255	; 0xff
 80014a0:	0022      	movs	r2, r4
 80014a2:	4082      	lsls	r2, r0
 80014a4:	4395      	bics	r5, r2
       (((priority << (8U - __NVIC_PRIO_BITS)) & (uint32_t)0xFFUL) << _BIT_SHIFT(IRQn)));
 80014a6:	0189      	lsls	r1, r1, #6
 80014a8:	400c      	ands	r4, r1
 80014aa:	4084      	lsls	r4, r0
    SCB->SHP[_SHP_IDX(IRQn)] = ((uint32_t)(SCB->SHP[_SHP_IDX(IRQn)] & ~(0xFFUL << _BIT_SHIFT(IRQn))) |
 80014ac:	432c      	orrs	r4, r5
 80014ae:	605c      	str	r4, [r3, #4]
 80014b0:	e7e6      	b.n	8001480 <HAL_NVIC_SetPriority+0x28>
 80014b2:	46c0      	nop			; (mov r8, r8)
 80014b4:	e000e100 	.word	0xe000e100
 80014b8:	e000ed00 	.word	0xe000ed00

080014bc <HAL_NVIC_EnableIRQ>:
  NVIC->ISER[0U] = (uint32_t)(1UL << (((uint32_t)(int32_t)IRQn) & 0x1FUL));
 80014bc:	231f      	movs	r3, #31
 80014be:	4018      	ands	r0, r3
 80014c0:	3b1e      	subs	r3, #30
 80014c2:	4083      	lsls	r3, r0
 80014c4:	4a01      	ldr	r2, [pc, #4]	; (80014cc <HAL_NVIC_EnableIRQ+0x10>)
 80014c6:	6013      	str	r3, [r2, #0]
  /* Check the parameters */
  assert_param(IS_NVIC_DEVICE_IRQ(IRQn));
  
  /* Enable interrupt */
  NVIC_EnableIRQ(IRQn);
}
 80014c8:	4770      	bx	lr
 80014ca:	46c0      	nop			; (mov r8, r8)
 80014cc:	e000e100 	.word	0xe000e100

080014d0 <HAL_SYSTICK_Config>:
           function <b>SysTick_Config</b> is not included. In this case, the file <b><i>device</i>.h</b>
           must contain a vendor-specific implementation of this function.
 */
__STATIC_INLINE uint32_t SysTick_Config(uint32_t ticks)
{
  if ((ticks - 1UL) > SysTick_LOAD_RELOAD_Msk)
 80014d0:	3801      	subs	r0, #1
 80014d2:	4b0a      	ldr	r3, [pc, #40]	; (80014fc <HAL_SYSTICK_Config+0x2c>)
 80014d4:	4298      	cmp	r0, r3
 80014d6:	d80f      	bhi.n	80014f8 <HAL_SYSTICK_Config+0x28>
  {
    return (1UL);                                                   /* Reload value impossible */
  }

  SysTick->LOAD  = (uint32_t)(ticks - 1UL);                         /* set reload register */
 80014d8:	4a09      	ldr	r2, [pc, #36]	; (8001500 <HAL_SYSTICK_Config+0x30>)
 80014da:	6050      	str	r0, [r2, #4]
    SCB->SHP[_SHP_IDX(IRQn)] = ((uint32_t)(SCB->SHP[_SHP_IDX(IRQn)] & ~(0xFFUL << _BIT_SHIFT(IRQn))) |
 80014dc:	4809      	ldr	r0, [pc, #36]	; (8001504 <HAL_SYSTICK_Config+0x34>)
 80014de:	6a03      	ldr	r3, [r0, #32]
 80014e0:	021b      	lsls	r3, r3, #8
 80014e2:	0a1b      	lsrs	r3, r3, #8
 80014e4:	21c0      	movs	r1, #192	; 0xc0
 80014e6:	0609      	lsls	r1, r1, #24
 80014e8:	430b      	orrs	r3, r1
 80014ea:	6203      	str	r3, [r0, #32]
  NVIC_SetPriority (SysTick_IRQn, (1UL << __NVIC_PRIO_BITS) - 1UL); /* set Priority for Systick Interrupt */
  SysTick->VAL   = 0UL;                                             /* Load the SysTick Counter Value */
 80014ec:	2300      	movs	r3, #0
 80014ee:	6093      	str	r3, [r2, #8]
  SysTick->CTRL  = SysTick_CTRL_CLKSOURCE_Msk |
 80014f0:	3307      	adds	r3, #7
 80014f2:	6013      	str	r3, [r2, #0]
                   SysTick_CTRL_TICKINT_Msk   |
                   SysTick_CTRL_ENABLE_Msk;                         /* Enable SysTick IRQ and SysTick Timer */
  return (0UL);                                                     /* Function successful */
 80014f4:	2000      	movs	r0, #0
  *                  - 1  Function failed.
  */
uint32_t HAL_SYSTICK_Config(uint32_t TicksNumb)
{
   return SysTick_Config(TicksNumb);
}
 80014f6:	4770      	bx	lr
    return (1UL);                                                   /* Reload value impossible */
 80014f8:	2001      	movs	r0, #1
   return SysTick_Config(TicksNumb);
 80014fa:	e7fc      	b.n	80014f6 <HAL_SYSTICK_Config+0x26>
 80014fc:	00ffffff 	.word	0x00ffffff
 8001500:	e000e010 	.word	0xe000e010
 8001504:	e000ed00 	.word	0xe000ed00

08001508 <HAL_DMA_Init>:
  * @param  hdma Pointer to a DMA_HandleTypeDef structure that contains
  *               the configuration information for the specified DMA Channel.
  * @retval HAL status
  */
HAL_StatusTypeDef HAL_DMA_Init(DMA_HandleTypeDef *hdma)
{
 8001508:	b570      	push	{r4, r5, r6, lr}
 800150a:	1e04      	subs	r4, r0, #0
  uint32_t tmp;

  /* Check the DMA handle allocation */
  if(hdma == NULL)
 800150c:	d03d      	beq.n	800158a <HAL_DMA_Init+0x82>
  assert_param(IS_DMA_MODE(hdma->Init.Mode));
  assert_param(IS_DMA_PRIORITY(hdma->Init.Priority));

  /* Compute the channel index */
  /* Only one DMA: DMA1 */
  hdma->ChannelIndex = (((uint32_t)hdma->Instance - (uint32_t)DMA1_Channel1) / ((uint32_t)DMA1_Channel2 - (uint32_t)DMA1_Channel1)) << 2;
 800150e:	6805      	ldr	r5, [r0, #0]
 8001510:	4b1f      	ldr	r3, [pc, #124]	; (8001590 <HAL_DMA_Init+0x88>)
 8001512:	18e8      	adds	r0, r5, r3
 8001514:	2114      	movs	r1, #20
 8001516:	f7fe fdf7 	bl	8000108 <__udivsi3>
 800151a:	0080      	lsls	r0, r0, #2
 800151c:	6460      	str	r0, [r4, #68]	; 0x44
  hdma->DmaBaseAddress = DMA1;
 800151e:	4b1d      	ldr	r3, [pc, #116]	; (8001594 <HAL_DMA_Init+0x8c>)
 8001520:	6423      	str	r3, [r4, #64]	; 0x40

  /* Change DMA peripheral state */
  hdma->State = HAL_DMA_STATE_BUSY;
 8001522:	2202      	movs	r2, #2
 8001524:	2325      	movs	r3, #37	; 0x25
 8001526:	54e2      	strb	r2, [r4, r3]

  /* Get the CR register value */
  tmp = hdma->Instance->CCR;
 8001528:	682b      	ldr	r3, [r5, #0]

  /* Clear PL, MSIZE, PSIZE, MINC, PINC, CIRC, DIR and MEM2MEM bits */
  tmp &= ((uint32_t)~(DMA_CCR_PL    | DMA_CCR_MSIZE  | DMA_CCR_PSIZE  |
 800152a:	4a1b      	ldr	r2, [pc, #108]	; (8001598 <HAL_DMA_Init+0x90>)
 800152c:	401a      	ands	r2, r3
                      DMA_CCR_MINC  | DMA_CCR_PINC   | DMA_CCR_CIRC   |
                      DMA_CCR_DIR   | DMA_CCR_MEM2MEM));

  /* Prepare the DMA Channel configuration */
  tmp |=  hdma->Init.Direction        |
 800152e:	68a3      	ldr	r3, [r4, #8]
 8001530:	68e1      	ldr	r1, [r4, #12]
 8001532:	430b      	orrs	r3, r1
          hdma->Init.PeriphInc           | hdma->Init.MemInc           |
 8001534:	6921      	ldr	r1, [r4, #16]
 8001536:	430b      	orrs	r3, r1
 8001538:	6961      	ldr	r1, [r4, #20]
 800153a:	430b      	orrs	r3, r1
          hdma->Init.PeriphDataAlignment | hdma->Init.MemDataAlignment |
 800153c:	69a1      	ldr	r1, [r4, #24]
 800153e:	430b      	orrs	r3, r1
 8001540:	69e1      	ldr	r1, [r4, #28]
 8001542:	430b      	orrs	r3, r1
          hdma->Init.Mode                | hdma->Init.Priority;
 8001544:	6a21      	ldr	r1, [r4, #32]
 8001546:	430b      	orrs	r3, r1
  tmp |=  hdma->Init.Direction        |
 8001548:	4313      	orrs	r3, r2

  /* Write to DMA Channel CR register */
  hdma->Instance->CCR = tmp;
 800154a:	602b      	str	r3, [r5, #0]

  /* Set request selection */
  if(hdma->Init.Direction != DMA_MEMORY_TO_MEMORY)
 800154c:	2380      	movs	r3, #128	; 0x80
 800154e:	01db      	lsls	r3, r3, #7
 8001550:	68a2      	ldr	r2, [r4, #8]
 8001552:	429a      	cmp	r2, r3
 8001554:	d010      	beq.n	8001578 <HAL_DMA_Init+0x70>
  {
    /* Write to DMA channel selection register */
    /* Reset request selection for DMA1 Channelx */
    DMA1_CSELR->CSELR &= ~(DMA_CSELR_C1S << (hdma->ChannelIndex & 0x1cU));
 8001556:	4b11      	ldr	r3, [pc, #68]	; (800159c <HAL_DMA_Init+0x94>)
 8001558:	6819      	ldr	r1, [r3, #0]
 800155a:	221c      	movs	r2, #28
 800155c:	6c65      	ldr	r5, [r4, #68]	; 0x44
 800155e:	4015      	ands	r5, r2
 8001560:	200f      	movs	r0, #15
 8001562:	40a8      	lsls	r0, r5
 8001564:	4381      	bics	r1, r0
 8001566:	6019      	str	r1, [r3, #0]

    /* Configure request selection for DMA1 Channelx */
    DMA1_CSELR->CSELR |= (uint32_t) (hdma->Init.Request << (hdma->ChannelIndex & 0x1cU));
 8001568:	6819      	ldr	r1, [r3, #0]
 800156a:	6c60      	ldr	r0, [r4, #68]	; 0x44
 800156c:	4002      	ands	r2, r0
 800156e:	6860      	ldr	r0, [r4, #4]
 8001570:	4090      	lsls	r0, r2
 8001572:	0002      	movs	r2, r0
 8001574:	430a      	orrs	r2, r1
 8001576:	601a      	str	r2, [r3, #0]
  }

  /* Initialise the error code */
  hdma->ErrorCode = HAL_DMA_ERROR_NONE;
 8001578:	2300      	movs	r3, #0
 800157a:	63e3      	str	r3, [r4, #60]	; 0x3c

  /* Initialize the DMA state*/
  hdma->State  = HAL_DMA_STATE_READY;
 800157c:	2101      	movs	r1, #1
 800157e:	2225      	movs	r2, #37	; 0x25
 8001580:	54a1      	strb	r1, [r4, r2]

  /* Allocate lock resource and initialize it */
  hdma->Lock = HAL_UNLOCKED;
 8001582:	3a01      	subs	r2, #1
 8001584:	54a3      	strb	r3, [r4, r2]

  return HAL_OK;
 8001586:	2000      	movs	r0, #0
}
 8001588:	bd70      	pop	{r4, r5, r6, pc}
    return HAL_ERROR;
 800158a:	2001      	movs	r0, #1
 800158c:	e7fc      	b.n	8001588 <HAL_DMA_Init+0x80>
 800158e:	46c0      	nop			; (mov r8, r8)
 8001590:	bffdfff8 	.word	0xbffdfff8
 8001594:	40020000 	.word	0x40020000
 8001598:	ffff800f 	.word	0xffff800f
 800159c:	400200a8 	.word	0x400200a8

080015a0 <HAL_DMA_Abort_IT>:
  * @param  hdma pointer to a DMA_HandleTypeDef structure that contains
  *                 the configuration information for the specified DMA Channel.
  * @retval HAL status
  */
HAL_StatusTypeDef HAL_DMA_Abort_IT(DMA_HandleTypeDef *hdma)
{
 80015a0:	b510      	push	{r4, lr}
  HAL_StatusTypeDef status = HAL_OK;

  if(HAL_DMA_STATE_BUSY != hdma->State)
 80015a2:	2325      	movs	r3, #37	; 0x25
 80015a4:	5cc3      	ldrb	r3, [r0, r3]
 80015a6:	2b02      	cmp	r3, #2
 80015a8:	d003      	beq.n	80015b2 <HAL_DMA_Abort_IT+0x12>
  {
    /* no transfer ongoing */
    hdma->ErrorCode = HAL_DMA_ERROR_NO_XFER;
 80015aa:	2304      	movs	r3, #4
 80015ac:	63c3      	str	r3, [r0, #60]	; 0x3c

    status = HAL_ERROR;
 80015ae:	2001      	movs	r0, #1
    {
      hdma->XferAbortCallback(hdma);
    }
  }
  return status;
}
 80015b0:	bd10      	pop	{r4, pc}
    __HAL_DMA_DISABLE_IT(hdma, (DMA_IT_TC | DMA_IT_HT | DMA_IT_TE));
 80015b2:	6802      	ldr	r2, [r0, #0]
 80015b4:	6813      	ldr	r3, [r2, #0]
 80015b6:	210e      	movs	r1, #14
 80015b8:	438b      	bics	r3, r1
 80015ba:	6013      	str	r3, [r2, #0]
    __HAL_DMA_DISABLE(hdma);
 80015bc:	6801      	ldr	r1, [r0, #0]
 80015be:	680a      	ldr	r2, [r1, #0]
 80015c0:	2301      	movs	r3, #1
 80015c2:	439a      	bics	r2, r3
 80015c4:	600a      	str	r2, [r1, #0]
    hdma->DmaBaseAddress->IFCR = (DMA_ISR_GIF1 << (hdma->ChannelIndex & 0x1cU));
 80015c6:	6c01      	ldr	r1, [r0, #64]	; 0x40
 80015c8:	221c      	movs	r2, #28
 80015ca:	6c44      	ldr	r4, [r0, #68]	; 0x44
 80015cc:	4022      	ands	r2, r4
 80015ce:	001c      	movs	r4, r3
 80015d0:	4094      	lsls	r4, r2
 80015d2:	604c      	str	r4, [r1, #4]
    hdma->State = HAL_DMA_STATE_READY;
 80015d4:	2225      	movs	r2, #37	; 0x25
 80015d6:	5483      	strb	r3, [r0, r2]
    __HAL_UNLOCK(hdma);
 80015d8:	2200      	movs	r2, #0
 80015da:	3323      	adds	r3, #35	; 0x23
 80015dc:	54c2      	strb	r2, [r0, r3]
    if(hdma->XferAbortCallback != NULL)
 80015de:	6b83      	ldr	r3, [r0, #56]	; 0x38
 80015e0:	2b00      	cmp	r3, #0
 80015e2:	d002      	beq.n	80015ea <HAL_DMA_Abort_IT+0x4a>
      hdma->XferAbortCallback(hdma);
 80015e4:	4798      	blx	r3
  HAL_StatusTypeDef status = HAL_OK;
 80015e6:	2000      	movs	r0, #0
 80015e8:	e7e2      	b.n	80015b0 <HAL_DMA_Abort_IT+0x10>
 80015ea:	2000      	movs	r0, #0
 80015ec:	e7e0      	b.n	80015b0 <HAL_DMA_Abort_IT+0x10>

080015ee <HAL_DMA_IRQHandler>:
  * @param  hdma pointer to a DMA_HandleTypeDef structure that contains
  *               the configuration information for the specified DMA Channel.
  * @retval None
  */
void HAL_DMA_IRQHandler(DMA_HandleTypeDef *hdma)
{
 80015ee:	b570      	push	{r4, r5, r6, lr}
  uint32_t flag_it = hdma->DmaBaseAddress->ISR;
 80015f0:	6c03      	ldr	r3, [r0, #64]	; 0x40
 80015f2:	6819      	ldr	r1, [r3, #0]
  uint32_t source_it = hdma->Instance->CCR;
 80015f4:	6804      	ldr	r4, [r0, #0]
 80015f6:	6825      	ldr	r5, [r4, #0]

  /* Half Transfer Complete Interrupt management ******************************/
  if ((0U != (flag_it & (DMA_FLAG_HT1 << (hdma->ChannelIndex & 0x1cU)))) && (0U != (source_it & DMA_IT_HT)))
 80015f8:	231c      	movs	r3, #28
 80015fa:	6c42      	ldr	r2, [r0, #68]	; 0x44
 80015fc:	4013      	ands	r3, r2
 80015fe:	2204      	movs	r2, #4
 8001600:	409a      	lsls	r2, r3
 8001602:	420a      	tst	r2, r1
 8001604:	d014      	beq.n	8001630 <HAL_DMA_IRQHandler+0x42>
 8001606:	076a      	lsls	r2, r5, #29
 8001608:	d512      	bpl.n	8001630 <HAL_DMA_IRQHandler+0x42>
  {
      /* Disable the half transfer interrupt if the DMA mode is not CIRCULAR */
      if((hdma->Instance->CCR & DMA_CCR_CIRC) == 0U)
 800160a:	6823      	ldr	r3, [r4, #0]
 800160c:	069b      	lsls	r3, r3, #26
 800160e:	d403      	bmi.n	8001618 <HAL_DMA_IRQHandler+0x2a>
      {
        /* Disable the half transfer interrupt */
        __HAL_DMA_DISABLE_IT(hdma, DMA_IT_HT);
 8001610:	6823      	ldr	r3, [r4, #0]
 8001612:	2204      	movs	r2, #4
 8001614:	4393      	bics	r3, r2
 8001616:	6023      	str	r3, [r4, #0]
      }
      /* Clear the half transfer complete flag */
      hdma->DmaBaseAddress->IFCR = DMA_ISR_HTIF1 << (hdma->ChannelIndex & 0x1cU);
 8001618:	6c01      	ldr	r1, [r0, #64]	; 0x40
 800161a:	221c      	movs	r2, #28
 800161c:	6c43      	ldr	r3, [r0, #68]	; 0x44
 800161e:	401a      	ands	r2, r3
 8001620:	2304      	movs	r3, #4
 8001622:	4093      	lsls	r3, r2
 8001624:	604b      	str	r3, [r1, #4]

      /* DMA peripheral state is not updated in Half Transfer */
      /* but in Transfer Complete case */

     if(hdma->XferHalfCpltCallback != NULL)
 8001626:	6b03      	ldr	r3, [r0, #48]	; 0x30
 8001628:	2b00      	cmp	r3, #0
 800162a:	d000      	beq.n	800162e <HAL_DMA_IRQHandler+0x40>
      {
        /* Half transfer callback */
        hdma->XferHalfCpltCallback(hdma);
 800162c:	4798      	blx	r3
  else
  {
    /* Nothing To Do */
  }
  return;
}
 800162e:	bd70      	pop	{r4, r5, r6, pc}
  else if ((0U != (flag_it & (DMA_FLAG_TC1 << (hdma->ChannelIndex & 0x1cU)))) && (0U != (source_it & DMA_IT_TC)))
 8001630:	2202      	movs	r2, #2
 8001632:	409a      	lsls	r2, r3
 8001634:	420a      	tst	r2, r1
 8001636:	d01a      	beq.n	800166e <HAL_DMA_IRQHandler+0x80>
 8001638:	07aa      	lsls	r2, r5, #30
 800163a:	d518      	bpl.n	800166e <HAL_DMA_IRQHandler+0x80>
    if((hdma->Instance->CCR & DMA_CCR_CIRC) == 0U)
 800163c:	6823      	ldr	r3, [r4, #0]
 800163e:	069b      	lsls	r3, r3, #26
 8001640:	d406      	bmi.n	8001650 <HAL_DMA_IRQHandler+0x62>
      __HAL_DMA_DISABLE_IT(hdma, DMA_IT_TE | DMA_IT_TC);
 8001642:	6823      	ldr	r3, [r4, #0]
 8001644:	220a      	movs	r2, #10
 8001646:	4393      	bics	r3, r2
 8001648:	6023      	str	r3, [r4, #0]
      hdma->State = HAL_DMA_STATE_READY;
 800164a:	3a09      	subs	r2, #9
 800164c:	2325      	movs	r3, #37	; 0x25
 800164e:	54c2      	strb	r2, [r0, r3]
    hdma->DmaBaseAddress->IFCR = (DMA_ISR_TCIF1 << (hdma->ChannelIndex & 0x1cU));
 8001650:	6c01      	ldr	r1, [r0, #64]	; 0x40
 8001652:	221c      	movs	r2, #28
 8001654:	6c43      	ldr	r3, [r0, #68]	; 0x44
 8001656:	401a      	ands	r2, r3
 8001658:	2302      	movs	r3, #2
 800165a:	4093      	lsls	r3, r2
 800165c:	604b      	str	r3, [r1, #4]
    __HAL_UNLOCK(hdma);
 800165e:	2200      	movs	r2, #0
 8001660:	2324      	movs	r3, #36	; 0x24
 8001662:	54c2      	strb	r2, [r0, r3]
    if(hdma->XferCpltCallback != NULL)
 8001664:	6ac3      	ldr	r3, [r0, #44]	; 0x2c
 8001666:	2b00      	cmp	r3, #0
 8001668:	d0e1      	beq.n	800162e <HAL_DMA_IRQHandler+0x40>
      hdma->XferCpltCallback(hdma);
 800166a:	4798      	blx	r3
 800166c:	e7df      	b.n	800162e <HAL_DMA_IRQHandler+0x40>
  else if ((0U != (flag_it & (DMA_FLAG_TE1 << (hdma->ChannelIndex & 0x1cU)))) && (0U != (source_it & DMA_IT_TE)))
 800166e:	2208      	movs	r2, #8
 8001670:	409a      	lsls	r2, r3
 8001672:	420a      	tst	r2, r1
 8001674:	d0db      	beq.n	800162e <HAL_DMA_IRQHandler+0x40>
 8001676:	072b      	lsls	r3, r5, #28
 8001678:	d5d9      	bpl.n	800162e <HAL_DMA_IRQHandler+0x40>
    __HAL_DMA_DISABLE_IT(hdma, (DMA_IT_TC | DMA_IT_HT | DMA_IT_TE));
 800167a:	6823      	ldr	r3, [r4, #0]
 800167c:	220e      	movs	r2, #14
 800167e:	4393      	bics	r3, r2
 8001680:	6023      	str	r3, [r4, #0]
    hdma->DmaBaseAddress->IFCR = (DMA_ISR_GIF1 << (hdma->ChannelIndex & 0x1cU));
 8001682:	6c01      	ldr	r1, [r0, #64]	; 0x40
 8001684:	320e      	adds	r2, #14
 8001686:	6c43      	ldr	r3, [r0, #68]	; 0x44
 8001688:	401a      	ands	r2, r3
 800168a:	2301      	movs	r3, #1
 800168c:	001c      	movs	r4, r3
 800168e:	4094      	lsls	r4, r2
 8001690:	604c      	str	r4, [r1, #4]
    hdma->ErrorCode = HAL_DMA_ERROR_TE;
 8001692:	63c3      	str	r3, [r0, #60]	; 0x3c
    hdma->State = HAL_DMA_STATE_READY;
 8001694:	2225      	movs	r2, #37	; 0x25
 8001696:	5483      	strb	r3, [r0, r2]
    __HAL_UNLOCK(hdma);
 8001698:	2200      	movs	r2, #0
 800169a:	3323      	adds	r3, #35	; 0x23
 800169c:	54c2      	strb	r2, [r0, r3]
    if (hdma->XferErrorCallback != NULL)
 800169e:	6b43      	ldr	r3, [r0, #52]	; 0x34
 80016a0:	2b00      	cmp	r3, #0
 80016a2:	d0c4      	beq.n	800162e <HAL_DMA_IRQHandler+0x40>
      hdma->XferErrorCallback(hdma);
 80016a4:	4798      	blx	r3
  return;
 80016a6:	e7c2      	b.n	800162e <HAL_DMA_IRQHandler+0x40>

080016a8 <HAL_GPIO_Init>:
  * @param  GPIO_Init pointer to a GPIO_InitTypeDef structure that contains
  *                    the configuration information for the specified GPIO peripheral.
  * @retval None
  */
void HAL_GPIO_Init(GPIO_TypeDef  *GPIOx, GPIO_InitTypeDef *GPIO_Init)
{
 80016a8:	b5f0      	push	{r4, r5, r6, r7, lr}
 80016aa:	46c6      	mov	lr, r8
 80016ac:	b500      	push	{lr}
  uint32_t position = 0x00U;
 80016ae:	2300      	movs	r3, #0
  assert_param(IS_GPIO_MODE(GPIO_Init->Mode));
  assert_param(IS_GPIO_PULL(GPIO_Init->Pull));
  assert_param(IS_GPIO_PIN_AVAILABLE(GPIOx,(GPIO_Init->Pin)));

  /* Configure the port pins */
  while (((GPIO_Init->Pin) >> position) != 0)
 80016b0:	e091      	b.n	80017d6 <HAL_GPIO_Init+0x12e>
        /* Check the Alternate function parameters */
        assert_param(IS_GPIO_AF_INSTANCE(GPIOx));
        assert_param(IS_GPIO_AF(GPIO_Init->Alternate));

        /* Configure Alternate function mapped with the current IO */ 
        temp = GPIOx->AFR[position >> 3U];
 80016b2:	08df      	lsrs	r7, r3, #3
 80016b4:	3708      	adds	r7, #8
 80016b6:	00bf      	lsls	r7, r7, #2
 80016b8:	583e      	ldr	r6, [r7, r0]
        temp &= ~((uint32_t)0xFU << ((uint32_t)(position & (uint32_t)0x07U) * 4U)) ;
 80016ba:	2507      	movs	r5, #7
 80016bc:	401d      	ands	r5, r3
 80016be:	00ad      	lsls	r5, r5, #2
 80016c0:	220f      	movs	r2, #15
 80016c2:	40aa      	lsls	r2, r5
 80016c4:	4396      	bics	r6, r2
        temp |= ((uint32_t)(GPIO_Init->Alternate) << (((uint32_t)position & (uint32_t)0x07U) * 4U)) ;
 80016c6:	690a      	ldr	r2, [r1, #16]
 80016c8:	40aa      	lsls	r2, r5
 80016ca:	0015      	movs	r5, r2
 80016cc:	4335      	orrs	r5, r6
        GPIOx->AFR[position >> 3U] = temp;
 80016ce:	503d      	str	r5, [r7, r0]
 80016d0:	e091      	b.n	80017f6 <HAL_GPIO_Init+0x14e>
         (GPIO_Init->Mode == GPIO_MODE_OUTPUT_OD) || (GPIO_Init->Mode == GPIO_MODE_AF_OD))
      {
        /* Check the Speed parameter */
        assert_param(IS_GPIO_SPEED(GPIO_Init->Speed));
        /* Configure the IO Speed */
        temp = GPIOx->OSPEEDR;
 80016d2:	6885      	ldr	r5, [r0, #8]
        temp &= ~(GPIO_OSPEEDER_OSPEED0 << (position * 2U));
 80016d4:	005f      	lsls	r7, r3, #1
 80016d6:	2603      	movs	r6, #3
 80016d8:	40be      	lsls	r6, r7
 80016da:	43b5      	bics	r5, r6
        temp |= (GPIO_Init->Speed << (position * 2U));
 80016dc:	68ce      	ldr	r6, [r1, #12]
 80016de:	40be      	lsls	r6, r7
 80016e0:	4335      	orrs	r5, r6
        GPIOx->OSPEEDR = temp;
 80016e2:	6085      	str	r5, [r0, #8]

        /* Configure the IO Output Type */
        temp= GPIOx->OTYPER;
 80016e4:	6845      	ldr	r5, [r0, #4]
        temp &= ~(GPIO_OTYPER_OT_0 << position) ;
 80016e6:	43a5      	bics	r5, r4
 80016e8:	002c      	movs	r4, r5
        temp |= (((GPIO_Init->Mode & GPIO_OUTPUT_TYPE) >> 4U) << position);
 80016ea:	684a      	ldr	r2, [r1, #4]
 80016ec:	0916      	lsrs	r6, r2, #4
 80016ee:	2501      	movs	r5, #1
 80016f0:	4035      	ands	r5, r6
 80016f2:	409d      	lsls	r5, r3
 80016f4:	432c      	orrs	r4, r5
        GPIOx->OTYPER = temp;
 80016f6:	6044      	str	r4, [r0, #4]
      }

      /* Configure IO Direction mode (Input, Output, Alternate or Analog) */
      temp = GPIOx->MODER;
 80016f8:	6805      	ldr	r5, [r0, #0]
      temp &= ~(GPIO_MODER_MODE0 << (position * 2U));
 80016fa:	005e      	lsls	r6, r3, #1
 80016fc:	2403      	movs	r4, #3
 80016fe:	0027      	movs	r7, r4
 8001700:	40b7      	lsls	r7, r6
 8001702:	43ff      	mvns	r7, r7
 8001704:	403d      	ands	r5, r7
      temp |= ((GPIO_Init->Mode & GPIO_MODE) << (position * 2U));
 8001706:	684a      	ldr	r2, [r1, #4]
 8001708:	4014      	ands	r4, r2
 800170a:	40b4      	lsls	r4, r6
 800170c:	432c      	orrs	r4, r5
      GPIOx->MODER = temp;
 800170e:	6004      	str	r4, [r0, #0]

      /* Activate the Pull-up or Pull down resistor for the current IO */
      temp = GPIOx->PUPDR;
 8001710:	68c4      	ldr	r4, [r0, #12]
      temp &= ~(GPIO_PUPDR_PUPD0 << (position * 2U));
 8001712:	403c      	ands	r4, r7
      temp |= ((GPIO_Init->Pull) << (position * 2U)); 
 8001714:	688d      	ldr	r5, [r1, #8]
 8001716:	40b5      	lsls	r5, r6
 8001718:	432c      	orrs	r4, r5
      GPIOx->PUPDR = temp;
 800171a:	60c4      	str	r4, [r0, #12]

      /*--------------------- EXTI Mode Configuration ------------------------*/
      /* Configure the External Interrupt or event for the current IO */
      if((GPIO_Init->Mode & EXTI_MODE) == EXTI_MODE) 
 800171c:	684a      	ldr	r2, [r1, #4]
 800171e:	00d2      	lsls	r2, r2, #3
 8001720:	d558      	bpl.n	80017d4 <HAL_GPIO_Init+0x12c>
      {
        /* Enable SYSCFG Clock */
        __HAL_RCC_SYSCFG_CLK_ENABLE();
 8001722:	4d42      	ldr	r5, [pc, #264]	; (800182c <HAL_GPIO_Init+0x184>)
 8001724:	6b6c      	ldr	r4, [r5, #52]	; 0x34
 8001726:	2601      	movs	r6, #1
 8001728:	4334      	orrs	r4, r6
 800172a:	636c      	str	r4, [r5, #52]	; 0x34
        
        temp = SYSCFG->EXTICR[position >> 2U];
 800172c:	089c      	lsrs	r4, r3, #2
 800172e:	1ca5      	adds	r5, r4, #2
 8001730:	00ad      	lsls	r5, r5, #2
 8001732:	4e3f      	ldr	r6, [pc, #252]	; (8001830 <HAL_GPIO_Init+0x188>)
 8001734:	59ae      	ldr	r6, [r5, r6]
        CLEAR_BIT(temp, ((uint32_t)0x0FU) << (4U * (position & 0x03U)));
 8001736:	2703      	movs	r7, #3
 8001738:	401f      	ands	r7, r3
 800173a:	00bd      	lsls	r5, r7, #2
 800173c:	270f      	movs	r7, #15
 800173e:	40af      	lsls	r7, r5
 8001740:	43be      	bics	r6, r7
        SET_BIT(temp, (GPIO_GET_INDEX(GPIOx)) << (4 * (position & 0x03U)));
 8001742:	27a0      	movs	r7, #160	; 0xa0
 8001744:	05ff      	lsls	r7, r7, #23
 8001746:	42b8      	cmp	r0, r7
 8001748:	d063      	beq.n	8001812 <HAL_GPIO_Init+0x16a>
 800174a:	4f3a      	ldr	r7, [pc, #232]	; (8001834 <HAL_GPIO_Init+0x18c>)
 800174c:	42b8      	cmp	r0, r7
 800174e:	d062      	beq.n	8001816 <HAL_GPIO_Init+0x16e>
 8001750:	4f39      	ldr	r7, [pc, #228]	; (8001838 <HAL_GPIO_Init+0x190>)
 8001752:	42b8      	cmp	r0, r7
 8001754:	d061      	beq.n	800181a <HAL_GPIO_Init+0x172>
 8001756:	4f39      	ldr	r7, [pc, #228]	; (800183c <HAL_GPIO_Init+0x194>)
 8001758:	42b8      	cmp	r0, r7
 800175a:	d060      	beq.n	800181e <HAL_GPIO_Init+0x176>
 800175c:	4f38      	ldr	r7, [pc, #224]	; (8001840 <HAL_GPIO_Init+0x198>)
 800175e:	42b8      	cmp	r0, r7
 8001760:	d05f      	beq.n	8001822 <HAL_GPIO_Init+0x17a>
 8001762:	4f38      	ldr	r7, [pc, #224]	; (8001844 <HAL_GPIO_Init+0x19c>)
 8001764:	42b8      	cmp	r0, r7
 8001766:	d052      	beq.n	800180e <HAL_GPIO_Init+0x166>
 8001768:	2706      	movs	r7, #6
 800176a:	40af      	lsls	r7, r5
 800176c:	003d      	movs	r5, r7
 800176e:	4335      	orrs	r5, r6
        SYSCFG->EXTICR[position >> 2U] = temp;
 8001770:	3402      	adds	r4, #2
 8001772:	00a4      	lsls	r4, r4, #2
 8001774:	4e2e      	ldr	r6, [pc, #184]	; (8001830 <HAL_GPIO_Init+0x188>)
 8001776:	51a5      	str	r5, [r4, r6]
                  
        /* Clear EXTI line configuration */
        temp = EXTI->IMR;
 8001778:	4c33      	ldr	r4, [pc, #204]	; (8001848 <HAL_GPIO_Init+0x1a0>)
 800177a:	6825      	ldr	r5, [r4, #0]
        temp &= ~((uint32_t)iocurrent);
 800177c:	4642      	mov	r2, r8
 800177e:	43d4      	mvns	r4, r2
 8001780:	0026      	movs	r6, r4
 8001782:	402e      	ands	r6, r5
        if((GPIO_Init->Mode & GPIO_MODE_IT) == GPIO_MODE_IT)
 8001784:	684a      	ldr	r2, [r1, #4]
 8001786:	03d2      	lsls	r2, r2, #15
 8001788:	d502      	bpl.n	8001790 <HAL_GPIO_Init+0xe8>
        {
          temp |= iocurrent;
 800178a:	4642      	mov	r2, r8
 800178c:	4315      	orrs	r5, r2
 800178e:	002e      	movs	r6, r5
        }
        EXTI->IMR = temp;
 8001790:	4d2d      	ldr	r5, [pc, #180]	; (8001848 <HAL_GPIO_Init+0x1a0>)
 8001792:	602e      	str	r6, [r5, #0]

        temp = EXTI->EMR;
 8001794:	686d      	ldr	r5, [r5, #4]
        temp &= ~((uint32_t)iocurrent);
 8001796:	002e      	movs	r6, r5
 8001798:	4026      	ands	r6, r4
        if((GPIO_Init->Mode & GPIO_MODE_EVT) == GPIO_MODE_EVT)
 800179a:	684a      	ldr	r2, [r1, #4]
 800179c:	0392      	lsls	r2, r2, #14
 800179e:	d502      	bpl.n	80017a6 <HAL_GPIO_Init+0xfe>
        {
          temp |= iocurrent;
 80017a0:	4642      	mov	r2, r8
 80017a2:	4315      	orrs	r5, r2
 80017a4:	002e      	movs	r6, r5
        }
        EXTI->EMR = temp;
 80017a6:	4d28      	ldr	r5, [pc, #160]	; (8001848 <HAL_GPIO_Init+0x1a0>)
 80017a8:	606e      	str	r6, [r5, #4]

        /* Clear Rising Falling edge configuration */
        temp = EXTI->RTSR;
 80017aa:	68ad      	ldr	r5, [r5, #8]
        temp &= ~((uint32_t)iocurrent);
 80017ac:	002e      	movs	r6, r5
 80017ae:	4026      	ands	r6, r4
        if((GPIO_Init->Mode & RISING_EDGE) == RISING_EDGE)
 80017b0:	684a      	ldr	r2, [r1, #4]
 80017b2:	02d2      	lsls	r2, r2, #11
 80017b4:	d502      	bpl.n	80017bc <HAL_GPIO_Init+0x114>
        {
          temp |= iocurrent;
 80017b6:	4642      	mov	r2, r8
 80017b8:	4315      	orrs	r5, r2
 80017ba:	002e      	movs	r6, r5
        }
        EXTI->RTSR = temp;
 80017bc:	4d22      	ldr	r5, [pc, #136]	; (8001848 <HAL_GPIO_Init+0x1a0>)
 80017be:	60ae      	str	r6, [r5, #8]

        temp = EXTI->FTSR;
 80017c0:	68ed      	ldr	r5, [r5, #12]
        temp &= ~((uint32_t)iocurrent);
 80017c2:	402c      	ands	r4, r5
        if((GPIO_Init->Mode & FALLING_EDGE) == FALLING_EDGE)
 80017c4:	684a      	ldr	r2, [r1, #4]
 80017c6:	0292      	lsls	r2, r2, #10
 80017c8:	d502      	bpl.n	80017d0 <HAL_GPIO_Init+0x128>
        {
          temp |= iocurrent;
 80017ca:	4642      	mov	r2, r8
 80017cc:	432a      	orrs	r2, r5
 80017ce:	0014      	movs	r4, r2
        }
        EXTI->FTSR = temp;
 80017d0:	4a1d      	ldr	r2, [pc, #116]	; (8001848 <HAL_GPIO_Init+0x1a0>)
 80017d2:	60d4      	str	r4, [r2, #12]
      }
    }
    position++;
 80017d4:	3301      	adds	r3, #1
  while (((GPIO_Init->Pin) >> position) != 0)
 80017d6:	680a      	ldr	r2, [r1, #0]
 80017d8:	0014      	movs	r4, r2
 80017da:	40dc      	lsrs	r4, r3
 80017dc:	d023      	beq.n	8001826 <HAL_GPIO_Init+0x17e>
    iocurrent = (GPIO_Init->Pin) & (1U << position);
 80017de:	2401      	movs	r4, #1
 80017e0:	409c      	lsls	r4, r3
 80017e2:	4022      	ands	r2, r4
 80017e4:	4690      	mov	r8, r2
    if(iocurrent)
 80017e6:	d0f5      	beq.n	80017d4 <HAL_GPIO_Init+0x12c>
      if((GPIO_Init->Mode == GPIO_MODE_AF_PP) || (GPIO_Init->Mode == GPIO_MODE_AF_OD)) 
 80017e8:	684d      	ldr	r5, [r1, #4]
 80017ea:	2d02      	cmp	r5, #2
 80017ec:	d100      	bne.n	80017f0 <HAL_GPIO_Init+0x148>
 80017ee:	e760      	b.n	80016b2 <HAL_GPIO_Init+0xa>
 80017f0:	2d12      	cmp	r5, #18
 80017f2:	d100      	bne.n	80017f6 <HAL_GPIO_Init+0x14e>
 80017f4:	e75d      	b.n	80016b2 <HAL_GPIO_Init+0xa>
      if((GPIO_Init->Mode == GPIO_MODE_OUTPUT_PP) || (GPIO_Init->Mode == GPIO_MODE_AF_PP) ||
 80017f6:	684d      	ldr	r5, [r1, #4]
 80017f8:	1e6e      	subs	r6, r5, #1
 80017fa:	2e01      	cmp	r6, #1
 80017fc:	d800      	bhi.n	8001800 <HAL_GPIO_Init+0x158>
 80017fe:	e768      	b.n	80016d2 <HAL_GPIO_Init+0x2a>
 8001800:	2d11      	cmp	r5, #17
 8001802:	d100      	bne.n	8001806 <HAL_GPIO_Init+0x15e>
 8001804:	e765      	b.n	80016d2 <HAL_GPIO_Init+0x2a>
         (GPIO_Init->Mode == GPIO_MODE_OUTPUT_OD) || (GPIO_Init->Mode == GPIO_MODE_AF_OD))
 8001806:	2d12      	cmp	r5, #18
 8001808:	d000      	beq.n	800180c <HAL_GPIO_Init+0x164>
 800180a:	e775      	b.n	80016f8 <HAL_GPIO_Init+0x50>
 800180c:	e761      	b.n	80016d2 <HAL_GPIO_Init+0x2a>
        SET_BIT(temp, (GPIO_GET_INDEX(GPIOx)) << (4 * (position & 0x03U)));
 800180e:	2705      	movs	r7, #5
 8001810:	e7ab      	b.n	800176a <HAL_GPIO_Init+0xc2>
 8001812:	2700      	movs	r7, #0
 8001814:	e7a9      	b.n	800176a <HAL_GPIO_Init+0xc2>
 8001816:	2701      	movs	r7, #1
 8001818:	e7a7      	b.n	800176a <HAL_GPIO_Init+0xc2>
 800181a:	2702      	movs	r7, #2
 800181c:	e7a5      	b.n	800176a <HAL_GPIO_Init+0xc2>
 800181e:	2703      	movs	r7, #3
 8001820:	e7a3      	b.n	800176a <HAL_GPIO_Init+0xc2>
 8001822:	2704      	movs	r7, #4
 8001824:	e7a1      	b.n	800176a <HAL_GPIO_Init+0xc2>
  }
}
 8001826:	bc04      	pop	{r2}
 8001828:	4690      	mov	r8, r2
 800182a:	bdf0      	pop	{r4, r5, r6, r7, pc}
 800182c:	40021000 	.word	0x40021000
 8001830:	40010000 	.word	0x40010000
 8001834:	50000400 	.word	0x50000400
 8001838:	50000800 	.word	0x50000800
 800183c:	50000c00 	.word	0x50000c00
 8001840:	50001000 	.word	0x50001000
 8001844:	50001c00 	.word	0x50001c00
 8001848:	40010400 	.word	0x40010400

0800184c <HAL_GPIO_ReadPin>:
  GPIO_PinState bitstatus;
  
  /* Check the parameters */
  assert_param(IS_GPIO_PIN_AVAILABLE(GPIOx,GPIO_Pin));
  
  if((GPIOx->IDR & GPIO_Pin) != (uint32_t)GPIO_PIN_RESET)
 800184c:	6903      	ldr	r3, [r0, #16]
 800184e:	420b      	tst	r3, r1
 8001850:	d101      	bne.n	8001856 <HAL_GPIO_ReadPin+0xa>
  {
    bitstatus = GPIO_PIN_SET;
  }
  else
  {
    bitstatus = GPIO_PIN_RESET;
 8001852:	2000      	movs	r0, #0
  }
  return bitstatus;
}
 8001854:	4770      	bx	lr
    bitstatus = GPIO_PIN_SET;
 8001856:	2001      	movs	r0, #1
 8001858:	e7fc      	b.n	8001854 <HAL_GPIO_ReadPin+0x8>

0800185a <HAL_GPIO_WritePin>:
{
  /* Check the parameters */
  assert_param(IS_GPIO_PIN_AVAILABLE(GPIOx,GPIO_Pin));
  assert_param(IS_GPIO_PIN_ACTION(PinState));
  
  if(PinState != GPIO_PIN_RESET)
 800185a:	2a00      	cmp	r2, #0
 800185c:	d101      	bne.n	8001862 <HAL_GPIO_WritePin+0x8>
  {
    GPIOx->BSRR = GPIO_Pin;
  }
  else
  {
    GPIOx->BRR = GPIO_Pin ;
 800185e:	6281      	str	r1, [r0, #40]	; 0x28
  }
}
 8001860:	4770      	bx	lr
    GPIOx->BSRR = GPIO_Pin;
 8001862:	6181      	str	r1, [r0, #24]
 8001864:	e7fc      	b.n	8001860 <HAL_GPIO_WritePin+0x6>
	...

08001868 <HAL_GPIO_EXTI_IRQHandler>:
  * @brief  This function handles EXTI interrupt request.
  * @param  GPIO_Pin Specifies the pins connected to the EXTI line.
  * @retval None
  */
void HAL_GPIO_EXTI_IRQHandler(uint16_t GPIO_Pin)
{
 8001868:	b510      	push	{r4, lr}
  /* EXTI line interrupt detected */
  if(__HAL_GPIO_EXTI_GET_IT(GPIO_Pin) != RESET) 
 800186a:	4b05      	ldr	r3, [pc, #20]	; (8001880 <HAL_GPIO_EXTI_IRQHandler+0x18>)
 800186c:	695b      	ldr	r3, [r3, #20]
 800186e:	4218      	tst	r0, r3
 8001870:	d100      	bne.n	8001874 <HAL_GPIO_EXTI_IRQHandler+0xc>
  { 
    __HAL_GPIO_EXTI_CLEAR_IT(GPIO_Pin);
    HAL_GPIO_EXTI_Callback(GPIO_Pin);
  }
}
 8001872:	bd10      	pop	{r4, pc}
    __HAL_GPIO_EXTI_CLEAR_IT(GPIO_Pin);
 8001874:	4b02      	ldr	r3, [pc, #8]	; (8001880 <HAL_GPIO_EXTI_IRQHandler+0x18>)
 8001876:	6158      	str	r0, [r3, #20]
    HAL_GPIO_EXTI_Callback(GPIO_Pin);
 8001878:	f001 fda4 	bl	80033c4 <HAL_GPIO_EXTI_Callback>
}
 800187c:	e7f9      	b.n	8001872 <HAL_GPIO_EXTI_IRQHandler+0xa>
 800187e:	46c0      	nop			; (mov r8, r8)
 8001880:	40010400 	.word	0x40010400

08001884 <HAL_RCC_GetSysClockFreq>:
  *         right SYSCLK value. Otherwise, any configuration based on this function will be incorrect.
  *
  * @retval SYSCLK frequency
  */
uint32_t HAL_RCC_GetSysClockFreq(void)
{
 8001884:	b510      	push	{r4, lr}
  uint32_t tmpreg, pllm, plld, pllvco, msiclkrange;    /* no init needed */
  uint32_t sysclockfreq;

  tmpreg = RCC->CFGR;
 8001886:	4b1f      	ldr	r3, [pc, #124]	; (8001904 <HAL_RCC_GetSysClockFreq+0x80>)
 8001888:	68d9      	ldr	r1, [r3, #12]

  /* Get SYSCLK source -------------------------------------------------------*/
  switch (tmpreg & RCC_CFGR_SWS)
 800188a:	230c      	movs	r3, #12
 800188c:	400b      	ands	r3, r1
 800188e:	2b08      	cmp	r3, #8
 8001890:	d033      	beq.n	80018fa <HAL_RCC_GetSysClockFreq+0x76>
 8001892:	2b0c      	cmp	r3, #12
 8001894:	d011      	beq.n	80018ba <HAL_RCC_GetSysClockFreq+0x36>
 8001896:	2b04      	cmp	r3, #4
 8001898:	d009      	beq.n	80018ae <HAL_RCC_GetSysClockFreq+0x2a>
      break;
    }
    case RCC_SYSCLKSOURCE_STATUS_MSI:  /* MSI used as system clock source */
    default: /* MSI used as system clock */
    {
      msiclkrange = (RCC->ICSCR & RCC_ICSCR_MSIRANGE ) >> RCC_ICSCR_MSIRANGE_Pos;
 800189a:	4b1a      	ldr	r3, [pc, #104]	; (8001904 <HAL_RCC_GetSysClockFreq+0x80>)
 800189c:	685a      	ldr	r2, [r3, #4]
 800189e:	0b52      	lsrs	r2, r2, #13
 80018a0:	2307      	movs	r3, #7
 80018a2:	4013      	ands	r3, r2
      sysclockfreq = (32768U * (1UL << (msiclkrange + 1U)));
 80018a4:	3301      	adds	r3, #1
 80018a6:	2080      	movs	r0, #128	; 0x80
 80018a8:	0200      	lsls	r0, r0, #8
 80018aa:	4098      	lsls	r0, r3
      break;
    }
  }
  return sysclockfreq;
}
 80018ac:	bd10      	pop	{r4, pc}
      if ((RCC->CR & RCC_CR_HSIDIVF) != 0U)
 80018ae:	4b15      	ldr	r3, [pc, #84]	; (8001904 <HAL_RCC_GetSysClockFreq+0x80>)
 80018b0:	681b      	ldr	r3, [r3, #0]
 80018b2:	06db      	lsls	r3, r3, #27
 80018b4:	d523      	bpl.n	80018fe <HAL_RCC_GetSysClockFreq+0x7a>
        sysclockfreq =  (HSI_VALUE >> 2);
 80018b6:	4814      	ldr	r0, [pc, #80]	; (8001908 <HAL_RCC_GetSysClockFreq+0x84>)
 80018b8:	e7f8      	b.n	80018ac <HAL_RCC_GetSysClockFreq+0x28>
      pllm = PLLMulTable[(uint32_t)(tmpreg & RCC_CFGR_PLLMUL) >> RCC_CFGR_PLLMUL_Pos];
 80018ba:	0c8a      	lsrs	r2, r1, #18
 80018bc:	230f      	movs	r3, #15
 80018be:	4013      	ands	r3, r2
 80018c0:	4a12      	ldr	r2, [pc, #72]	; (800190c <HAL_RCC_GetSysClockFreq+0x88>)
 80018c2:	5cd0      	ldrb	r0, [r2, r3]
      plld = ((uint32_t)(tmpreg & RCC_CFGR_PLLDIV) >> RCC_CFGR_PLLDIV_Pos) + 1U;
 80018c4:	0d89      	lsrs	r1, r1, #22
 80018c6:	2303      	movs	r3, #3
 80018c8:	4019      	ands	r1, r3
 80018ca:	3101      	adds	r1, #1
      if (__HAL_RCC_GET_PLL_OSCSOURCE() != RCC_PLLSOURCE_HSI)
 80018cc:	4b0d      	ldr	r3, [pc, #52]	; (8001904 <HAL_RCC_GetSysClockFreq+0x80>)
 80018ce:	68db      	ldr	r3, [r3, #12]
 80018d0:	03db      	lsls	r3, r3, #15
 80018d2:	d408      	bmi.n	80018e6 <HAL_RCC_GetSysClockFreq+0x62>
        if ((RCC->CR & RCC_CR_HSIDIVF) != 0U)
 80018d4:	4b0b      	ldr	r3, [pc, #44]	; (8001904 <HAL_RCC_GetSysClockFreq+0x80>)
 80018d6:	681b      	ldr	r3, [r3, #0]
 80018d8:	06db      	lsls	r3, r3, #27
 80018da:	d509      	bpl.n	80018f0 <HAL_RCC_GetSysClockFreq+0x6c>
          pllvco = ((HSI_VALUE >> 2) * pllm) / plld;
 80018dc:	4b0a      	ldr	r3, [pc, #40]	; (8001908 <HAL_RCC_GetSysClockFreq+0x84>)
 80018de:	4358      	muls	r0, r3
 80018e0:	f7fe fc12 	bl	8000108 <__udivsi3>
 80018e4:	e7e2      	b.n	80018ac <HAL_RCC_GetSysClockFreq+0x28>
        pllvco = (HSE_VALUE * pllm) / plld;
 80018e6:	4b0a      	ldr	r3, [pc, #40]	; (8001910 <HAL_RCC_GetSysClockFreq+0x8c>)
 80018e8:	4358      	muls	r0, r3
 80018ea:	f7fe fc0d 	bl	8000108 <__udivsi3>
 80018ee:	e7dd      	b.n	80018ac <HAL_RCC_GetSysClockFreq+0x28>
         pllvco = (HSI_VALUE * pllm) / plld;
 80018f0:	4b08      	ldr	r3, [pc, #32]	; (8001914 <HAL_RCC_GetSysClockFreq+0x90>)
 80018f2:	4358      	muls	r0, r3
 80018f4:	f7fe fc08 	bl	8000108 <__udivsi3>
 80018f8:	e7d8      	b.n	80018ac <HAL_RCC_GetSysClockFreq+0x28>
      sysclockfreq = HSE_VALUE;
 80018fa:	4805      	ldr	r0, [pc, #20]	; (8001910 <HAL_RCC_GetSysClockFreq+0x8c>)
 80018fc:	e7d6      	b.n	80018ac <HAL_RCC_GetSysClockFreq+0x28>
        sysclockfreq =  HSI_VALUE;
 80018fe:	4805      	ldr	r0, [pc, #20]	; (8001914 <HAL_RCC_GetSysClockFreq+0x90>)
  return sysclockfreq;
 8001900:	e7d4      	b.n	80018ac <HAL_RCC_GetSysClockFreq+0x28>
 8001902:	46c0      	nop			; (mov r8, r8)
 8001904:	40021000 	.word	0x40021000
 8001908:	003d0900 	.word	0x003d0900
 800190c:	08004474 	.word	0x08004474
 8001910:	007a1200 	.word	0x007a1200
 8001914:	00f42400 	.word	0x00f42400

08001918 <HAL_RCC_OscConfig>:
{
 8001918:	b5f0      	push	{r4, r5, r6, r7, lr}
 800191a:	b083      	sub	sp, #12
 800191c:	1e04      	subs	r4, r0, #0
  if(RCC_OscInitStruct == NULL)
 800191e:	d100      	bne.n	8001922 <HAL_RCC_OscConfig+0xa>
 8001920:	e29a      	b.n	8001e58 <HAL_RCC_OscConfig+0x540>
  sysclk_source = __HAL_RCC_GET_SYSCLK_SOURCE();
 8001922:	4bb2      	ldr	r3, [pc, #712]	; (8001bec <HAL_RCC_OscConfig+0x2d4>)
 8001924:	68da      	ldr	r2, [r3, #12]
 8001926:	250c      	movs	r5, #12
 8001928:	4015      	ands	r5, r2
  pll_config = __HAL_RCC_GET_PLL_OSCSOURCE();
 800192a:	68de      	ldr	r6, [r3, #12]
 800192c:	2380      	movs	r3, #128	; 0x80
 800192e:	025b      	lsls	r3, r3, #9
 8001930:	401e      	ands	r6, r3
  if(((RCC_OscInitStruct->OscillatorType) & RCC_OSCILLATORTYPE_HSE) == RCC_OSCILLATORTYPE_HSE)
 8001932:	6803      	ldr	r3, [r0, #0]
 8001934:	07db      	lsls	r3, r3, #31
 8001936:	d536      	bpl.n	80019a6 <HAL_RCC_OscConfig+0x8e>
    if((sysclk_source == RCC_SYSCLKSOURCE_STATUS_HSE)
 8001938:	2d08      	cmp	r5, #8
 800193a:	d02c      	beq.n	8001996 <HAL_RCC_OscConfig+0x7e>
       || ((sysclk_source == RCC_SYSCLKSOURCE_STATUS_PLLCLK) && (pll_config == RCC_PLLSOURCE_HSE)))
 800193c:	2d0c      	cmp	r5, #12
 800193e:	d028      	beq.n	8001992 <HAL_RCC_OscConfig+0x7a>
      __HAL_RCC_HSE_CONFIG(RCC_OscInitStruct->HSEState);
 8001940:	6863      	ldr	r3, [r4, #4]
 8001942:	2280      	movs	r2, #128	; 0x80
 8001944:	0252      	lsls	r2, r2, #9
 8001946:	4293      	cmp	r3, r2
 8001948:	d055      	beq.n	80019f6 <HAL_RCC_OscConfig+0xde>
 800194a:	22a0      	movs	r2, #160	; 0xa0
 800194c:	02d2      	lsls	r2, r2, #11
 800194e:	4293      	cmp	r3, r2
 8001950:	d058      	beq.n	8001a04 <HAL_RCC_OscConfig+0xec>
 8001952:	4ba6      	ldr	r3, [pc, #664]	; (8001bec <HAL_RCC_OscConfig+0x2d4>)
 8001954:	681a      	ldr	r2, [r3, #0]
 8001956:	49a6      	ldr	r1, [pc, #664]	; (8001bf0 <HAL_RCC_OscConfig+0x2d8>)
 8001958:	400a      	ands	r2, r1
 800195a:	601a      	str	r2, [r3, #0]
 800195c:	681a      	ldr	r2, [r3, #0]
 800195e:	2180      	movs	r1, #128	; 0x80
 8001960:	0249      	lsls	r1, r1, #9
 8001962:	400a      	ands	r2, r1
 8001964:	9201      	str	r2, [sp, #4]
 8001966:	9a01      	ldr	r2, [sp, #4]
 8001968:	681a      	ldr	r2, [r3, #0]
 800196a:	49a2      	ldr	r1, [pc, #648]	; (8001bf4 <HAL_RCC_OscConfig+0x2dc>)
 800196c:	400a      	ands	r2, r1
 800196e:	601a      	str	r2, [r3, #0]
      if(RCC_OscInitStruct->HSEState != RCC_HSE_OFF)
 8001970:	6863      	ldr	r3, [r4, #4]
 8001972:	2b00      	cmp	r3, #0
 8001974:	d052      	beq.n	8001a1c <HAL_RCC_OscConfig+0x104>
        tickstart = HAL_GetTick();
 8001976:	f7ff fd5b 	bl	8001430 <HAL_GetTick>
 800197a:	0007      	movs	r7, r0
        while(__HAL_RCC_GET_FLAG(RCC_FLAG_HSERDY) == 0U)
 800197c:	4b9b      	ldr	r3, [pc, #620]	; (8001bec <HAL_RCC_OscConfig+0x2d4>)
 800197e:	681b      	ldr	r3, [r3, #0]
 8001980:	039b      	lsls	r3, r3, #14
 8001982:	d410      	bmi.n	80019a6 <HAL_RCC_OscConfig+0x8e>
          if((HAL_GetTick() - tickstart ) > HSE_TIMEOUT_VALUE)
 8001984:	f7ff fd54 	bl	8001430 <HAL_GetTick>
 8001988:	1bc0      	subs	r0, r0, r7
 800198a:	2864      	cmp	r0, #100	; 0x64
 800198c:	d9f6      	bls.n	800197c <HAL_RCC_OscConfig+0x64>
            return HAL_TIMEOUT;
 800198e:	2003      	movs	r0, #3
 8001990:	e263      	b.n	8001e5a <HAL_RCC_OscConfig+0x542>
       || ((sysclk_source == RCC_SYSCLKSOURCE_STATUS_PLLCLK) && (pll_config == RCC_PLLSOURCE_HSE)))
 8001992:	2e00      	cmp	r6, #0
 8001994:	d0d4      	beq.n	8001940 <HAL_RCC_OscConfig+0x28>
      if((__HAL_RCC_GET_FLAG(RCC_FLAG_HSERDY) != 0U) && (RCC_OscInitStruct->HSEState == RCC_HSE_OFF))
 8001996:	4b95      	ldr	r3, [pc, #596]	; (8001bec <HAL_RCC_OscConfig+0x2d4>)
 8001998:	681b      	ldr	r3, [r3, #0]
 800199a:	039b      	lsls	r3, r3, #14
 800199c:	d503      	bpl.n	80019a6 <HAL_RCC_OscConfig+0x8e>
 800199e:	6863      	ldr	r3, [r4, #4]
 80019a0:	2b00      	cmp	r3, #0
 80019a2:	d100      	bne.n	80019a6 <HAL_RCC_OscConfig+0x8e>
 80019a4:	e25b      	b.n	8001e5e <HAL_RCC_OscConfig+0x546>
  if(((RCC_OscInitStruct->OscillatorType) & RCC_OSCILLATORTYPE_HSI) == RCC_OSCILLATORTYPE_HSI)
 80019a6:	6823      	ldr	r3, [r4, #0]
 80019a8:	079b      	lsls	r3, r3, #30
 80019aa:	d56c      	bpl.n	8001a86 <HAL_RCC_OscConfig+0x16e>
    hsi_state = RCC_OscInitStruct->HSIState;
 80019ac:	68e3      	ldr	r3, [r4, #12]
    if((hsi_state & RCC_HSI_OUTEN) != 0U)
 80019ae:	069a      	lsls	r2, r3, #26
 80019b0:	d505      	bpl.n	80019be <HAL_RCC_OscConfig+0xa6>
      SET_BIT(RCC->CR, RCC_CR_HSIOUTEN);
 80019b2:	488e      	ldr	r0, [pc, #568]	; (8001bec <HAL_RCC_OscConfig+0x2d4>)
 80019b4:	6802      	ldr	r2, [r0, #0]
 80019b6:	2120      	movs	r1, #32
 80019b8:	430a      	orrs	r2, r1
 80019ba:	6002      	str	r2, [r0, #0]
      hsi_state &= ~RCC_CR_HSIOUTEN;
 80019bc:	438b      	bics	r3, r1
    if((sysclk_source == RCC_SYSCLKSOURCE_STATUS_HSI)
 80019be:	2d04      	cmp	r5, #4
 80019c0:	d03c      	beq.n	8001a3c <HAL_RCC_OscConfig+0x124>
       || ((sysclk_source == RCC_SYSCLKSOURCE_STATUS_PLLCLK) && (pll_config == RCC_PLLSOURCE_HSI)))
 80019c2:	2d0c      	cmp	r5, #12
 80019c4:	d038      	beq.n	8001a38 <HAL_RCC_OscConfig+0x120>
      if(hsi_state != RCC_HSI_OFF)
 80019c6:	2b00      	cmp	r3, #0
 80019c8:	d100      	bne.n	80019cc <HAL_RCC_OscConfig+0xb4>
 80019ca:	e0b0      	b.n	8001b2e <HAL_RCC_OscConfig+0x216>
        __HAL_RCC_HSI_CONFIG(hsi_state);
 80019cc:	4987      	ldr	r1, [pc, #540]	; (8001bec <HAL_RCC_OscConfig+0x2d4>)
 80019ce:	680a      	ldr	r2, [r1, #0]
 80019d0:	2009      	movs	r0, #9
 80019d2:	4382      	bics	r2, r0
 80019d4:	4313      	orrs	r3, r2
 80019d6:	600b      	str	r3, [r1, #0]
        tickstart = HAL_GetTick();
 80019d8:	f7ff fd2a 	bl	8001430 <HAL_GetTick>
 80019dc:	0006      	movs	r6, r0
        while(__HAL_RCC_GET_FLAG(RCC_FLAG_HSIRDY) == 0U)
 80019de:	4b83      	ldr	r3, [pc, #524]	; (8001bec <HAL_RCC_OscConfig+0x2d4>)
 80019e0:	681b      	ldr	r3, [r3, #0]
 80019e2:	075b      	lsls	r3, r3, #29
 80019e4:	d500      	bpl.n	80019e8 <HAL_RCC_OscConfig+0xd0>
 80019e6:	e099      	b.n	8001b1c <HAL_RCC_OscConfig+0x204>
          if((HAL_GetTick() - tickstart ) > HSI_TIMEOUT_VALUE)
 80019e8:	f7ff fd22 	bl	8001430 <HAL_GetTick>
 80019ec:	1b80      	subs	r0, r0, r6
 80019ee:	2802      	cmp	r0, #2
 80019f0:	d9f5      	bls.n	80019de <HAL_RCC_OscConfig+0xc6>
            return HAL_TIMEOUT;
 80019f2:	2003      	movs	r0, #3
 80019f4:	e231      	b.n	8001e5a <HAL_RCC_OscConfig+0x542>
      __HAL_RCC_HSE_CONFIG(RCC_OscInitStruct->HSEState);
 80019f6:	4a7d      	ldr	r2, [pc, #500]	; (8001bec <HAL_RCC_OscConfig+0x2d4>)
 80019f8:	6811      	ldr	r1, [r2, #0]
 80019fa:	2380      	movs	r3, #128	; 0x80
 80019fc:	025b      	lsls	r3, r3, #9
 80019fe:	430b      	orrs	r3, r1
 8001a00:	6013      	str	r3, [r2, #0]
 8001a02:	e7b5      	b.n	8001970 <HAL_RCC_OscConfig+0x58>
 8001a04:	4b79      	ldr	r3, [pc, #484]	; (8001bec <HAL_RCC_OscConfig+0x2d4>)
 8001a06:	6819      	ldr	r1, [r3, #0]
 8001a08:	2280      	movs	r2, #128	; 0x80
 8001a0a:	02d2      	lsls	r2, r2, #11
 8001a0c:	430a      	orrs	r2, r1
 8001a0e:	601a      	str	r2, [r3, #0]
 8001a10:	6819      	ldr	r1, [r3, #0]
 8001a12:	2280      	movs	r2, #128	; 0x80
 8001a14:	0252      	lsls	r2, r2, #9
 8001a16:	430a      	orrs	r2, r1
 8001a18:	601a      	str	r2, [r3, #0]
 8001a1a:	e7a9      	b.n	8001970 <HAL_RCC_OscConfig+0x58>
        tickstart = HAL_GetTick();
 8001a1c:	f7ff fd08 	bl	8001430 <HAL_GetTick>
 8001a20:	0007      	movs	r7, r0
        while(__HAL_RCC_GET_FLAG(RCC_FLAG_HSERDY) != 0U)
 8001a22:	4b72      	ldr	r3, [pc, #456]	; (8001bec <HAL_RCC_OscConfig+0x2d4>)
 8001a24:	681b      	ldr	r3, [r3, #0]
 8001a26:	039b      	lsls	r3, r3, #14
 8001a28:	d5bd      	bpl.n	80019a6 <HAL_RCC_OscConfig+0x8e>
           if((HAL_GetTick() - tickstart ) > HSE_TIMEOUT_VALUE)
 8001a2a:	f7ff fd01 	bl	8001430 <HAL_GetTick>
 8001a2e:	1bc0      	subs	r0, r0, r7
 8001a30:	2864      	cmp	r0, #100	; 0x64
 8001a32:	d9f6      	bls.n	8001a22 <HAL_RCC_OscConfig+0x10a>
            return HAL_TIMEOUT;
 8001a34:	2003      	movs	r0, #3
 8001a36:	e210      	b.n	8001e5a <HAL_RCC_OscConfig+0x542>
       || ((sysclk_source == RCC_SYSCLKSOURCE_STATUS_PLLCLK) && (pll_config == RCC_PLLSOURCE_HSI)))
 8001a38:	2e00      	cmp	r6, #0
 8001a3a:	d1c4      	bne.n	80019c6 <HAL_RCC_OscConfig+0xae>
      if((__HAL_RCC_GET_FLAG(RCC_FLAG_HSIRDY) != 0U) && (hsi_state == RCC_HSI_OFF))
 8001a3c:	4a6b      	ldr	r2, [pc, #428]	; (8001bec <HAL_RCC_OscConfig+0x2d4>)
 8001a3e:	6812      	ldr	r2, [r2, #0]
 8001a40:	0752      	lsls	r2, r2, #29
 8001a42:	d502      	bpl.n	8001a4a <HAL_RCC_OscConfig+0x132>
 8001a44:	2b00      	cmp	r3, #0
 8001a46:	d100      	bne.n	8001a4a <HAL_RCC_OscConfig+0x132>
 8001a48:	e20b      	b.n	8001e62 <HAL_RCC_OscConfig+0x54a>
        __HAL_RCC_HSI_CALIBRATIONVALUE_ADJUST(RCC_OscInitStruct->HSICalibrationValue);
 8001a4a:	4e68      	ldr	r6, [pc, #416]	; (8001bec <HAL_RCC_OscConfig+0x2d4>)
 8001a4c:	6872      	ldr	r2, [r6, #4]
 8001a4e:	496a      	ldr	r1, [pc, #424]	; (8001bf8 <HAL_RCC_OscConfig+0x2e0>)
 8001a50:	400a      	ands	r2, r1
 8001a52:	6921      	ldr	r1, [r4, #16]
 8001a54:	0209      	lsls	r1, r1, #8
 8001a56:	430a      	orrs	r2, r1
 8001a58:	6072      	str	r2, [r6, #4]
        __HAL_RCC_HSI_CONFIG(hsi_state);
 8001a5a:	6832      	ldr	r2, [r6, #0]
 8001a5c:	2109      	movs	r1, #9
 8001a5e:	438a      	bics	r2, r1
 8001a60:	4313      	orrs	r3, r2
 8001a62:	6033      	str	r3, [r6, #0]
      SystemCoreClock = HAL_RCC_GetSysClockFreq() >> AHBPrescTable[(RCC->CFGR & RCC_CFGR_HPRE)>> RCC_CFGR_HPRE_Pos];
 8001a64:	f7ff ff0e 	bl	8001884 <HAL_RCC_GetSysClockFreq>
 8001a68:	68f2      	ldr	r2, [r6, #12]
 8001a6a:	0912      	lsrs	r2, r2, #4
 8001a6c:	230f      	movs	r3, #15
 8001a6e:	4013      	ands	r3, r2
 8001a70:	4a62      	ldr	r2, [pc, #392]	; (8001bfc <HAL_RCC_OscConfig+0x2e4>)
 8001a72:	5cd3      	ldrb	r3, [r2, r3]
 8001a74:	40d8      	lsrs	r0, r3
 8001a76:	4b62      	ldr	r3, [pc, #392]	; (8001c00 <HAL_RCC_OscConfig+0x2e8>)
 8001a78:	6018      	str	r0, [r3, #0]
      status = HAL_InitTick (TICK_INT_PRIORITY);
 8001a7a:	2000      	movs	r0, #0
 8001a7c:	f7ff fcac 	bl	80013d8 <HAL_InitTick>
      if(status != HAL_OK)
 8001a80:	2800      	cmp	r0, #0
 8001a82:	d000      	beq.n	8001a86 <HAL_RCC_OscConfig+0x16e>
 8001a84:	e1e9      	b.n	8001e5a <HAL_RCC_OscConfig+0x542>
  if(((RCC_OscInitStruct->OscillatorType) & RCC_OSCILLATORTYPE_MSI) == RCC_OSCILLATORTYPE_MSI)
 8001a86:	6823      	ldr	r3, [r4, #0]
 8001a88:	06db      	lsls	r3, r3, #27
 8001a8a:	d52c      	bpl.n	8001ae6 <HAL_RCC_OscConfig+0x1ce>
    if((sysclk_source == RCC_CFGR_SWS_MSI) )
 8001a8c:	2d00      	cmp	r5, #0
 8001a8e:	d161      	bne.n	8001b54 <HAL_RCC_OscConfig+0x23c>
      if((__HAL_RCC_GET_FLAG(RCC_FLAG_MSIRDY) != 0U) && (RCC_OscInitStruct->MSIState == RCC_MSI_OFF))
 8001a90:	4b56      	ldr	r3, [pc, #344]	; (8001bec <HAL_RCC_OscConfig+0x2d4>)
 8001a92:	681b      	ldr	r3, [r3, #0]
 8001a94:	059b      	lsls	r3, r3, #22
 8001a96:	d503      	bpl.n	8001aa0 <HAL_RCC_OscConfig+0x188>
 8001a98:	69e3      	ldr	r3, [r4, #28]
 8001a9a:	2b00      	cmp	r3, #0
 8001a9c:	d100      	bne.n	8001aa0 <HAL_RCC_OscConfig+0x188>
 8001a9e:	e1e2      	b.n	8001e66 <HAL_RCC_OscConfig+0x54e>
        __HAL_RCC_MSI_RANGE_CONFIG(RCC_OscInitStruct->MSIClockRange);
 8001aa0:	4a52      	ldr	r2, [pc, #328]	; (8001bec <HAL_RCC_OscConfig+0x2d4>)
 8001aa2:	6853      	ldr	r3, [r2, #4]
 8001aa4:	4957      	ldr	r1, [pc, #348]	; (8001c04 <HAL_RCC_OscConfig+0x2ec>)
 8001aa6:	400b      	ands	r3, r1
 8001aa8:	6a61      	ldr	r1, [r4, #36]	; 0x24
 8001aaa:	430b      	orrs	r3, r1
 8001aac:	6053      	str	r3, [r2, #4]
        __HAL_RCC_MSI_CALIBRATIONVALUE_ADJUST(RCC_OscInitStruct->MSICalibrationValue);
 8001aae:	6853      	ldr	r3, [r2, #4]
 8001ab0:	021b      	lsls	r3, r3, #8
 8001ab2:	0a1b      	lsrs	r3, r3, #8
 8001ab4:	6a21      	ldr	r1, [r4, #32]
 8001ab6:	0609      	lsls	r1, r1, #24
 8001ab8:	430b      	orrs	r3, r1
 8001aba:	6053      	str	r3, [r2, #4]
        SystemCoreClock =  (32768U * (1UL << ((RCC_OscInitStruct->MSIClockRange >> RCC_ICSCR_MSIRANGE_Pos) + 1U)))
 8001abc:	6a63      	ldr	r3, [r4, #36]	; 0x24
 8001abe:	0b59      	lsrs	r1, r3, #13
 8001ac0:	3101      	adds	r1, #1
 8001ac2:	2380      	movs	r3, #128	; 0x80
 8001ac4:	021b      	lsls	r3, r3, #8
 8001ac6:	408b      	lsls	r3, r1
                           >> AHBPrescTable[((RCC->CFGR & RCC_CFGR_HPRE) >> RCC_CFGR_HPRE_Pos)];
 8001ac8:	68d1      	ldr	r1, [r2, #12]
 8001aca:	0909      	lsrs	r1, r1, #4
 8001acc:	220f      	movs	r2, #15
 8001ace:	400a      	ands	r2, r1
 8001ad0:	494a      	ldr	r1, [pc, #296]	; (8001bfc <HAL_RCC_OscConfig+0x2e4>)
 8001ad2:	5c8a      	ldrb	r2, [r1, r2]
 8001ad4:	40d3      	lsrs	r3, r2
        SystemCoreClock =  (32768U * (1UL << ((RCC_OscInitStruct->MSIClockRange >> RCC_ICSCR_MSIRANGE_Pos) + 1U)))
 8001ad6:	4a4a      	ldr	r2, [pc, #296]	; (8001c00 <HAL_RCC_OscConfig+0x2e8>)
 8001ad8:	6013      	str	r3, [r2, #0]
        status = HAL_InitTick (TICK_INT_PRIORITY);
 8001ada:	2000      	movs	r0, #0
 8001adc:	f7ff fc7c 	bl	80013d8 <HAL_InitTick>
        if(status != HAL_OK)
 8001ae0:	2800      	cmp	r0, #0
 8001ae2:	d000      	beq.n	8001ae6 <HAL_RCC_OscConfig+0x1ce>
 8001ae4:	e1b9      	b.n	8001e5a <HAL_RCC_OscConfig+0x542>
  if(((RCC_OscInitStruct->OscillatorType) & RCC_OSCILLATORTYPE_LSI) == RCC_OSCILLATORTYPE_LSI)
 8001ae6:	6823      	ldr	r3, [r4, #0]
 8001ae8:	071b      	lsls	r3, r3, #28
 8001aea:	d400      	bmi.n	8001aee <HAL_RCC_OscConfig+0x1d6>
 8001aec:	e08e      	b.n	8001c0c <HAL_RCC_OscConfig+0x2f4>
    if(RCC_OscInitStruct->LSIState != RCC_LSI_OFF)
 8001aee:	6963      	ldr	r3, [r4, #20]
 8001af0:	2b00      	cmp	r3, #0
 8001af2:	d068      	beq.n	8001bc6 <HAL_RCC_OscConfig+0x2ae>
      __HAL_RCC_LSI_ENABLE();
 8001af4:	4a3d      	ldr	r2, [pc, #244]	; (8001bec <HAL_RCC_OscConfig+0x2d4>)
 8001af6:	6d13      	ldr	r3, [r2, #80]	; 0x50
 8001af8:	2101      	movs	r1, #1
 8001afa:	430b      	orrs	r3, r1
 8001afc:	6513      	str	r3, [r2, #80]	; 0x50
      tickstart = HAL_GetTick();
 8001afe:	f7ff fc97 	bl	8001430 <HAL_GetTick>
 8001b02:	0006      	movs	r6, r0
      while(__HAL_RCC_GET_FLAG(RCC_FLAG_LSIRDY) == 0U)
 8001b04:	4b39      	ldr	r3, [pc, #228]	; (8001bec <HAL_RCC_OscConfig+0x2d4>)
 8001b06:	6d1b      	ldr	r3, [r3, #80]	; 0x50
 8001b08:	079b      	lsls	r3, r3, #30
 8001b0a:	d500      	bpl.n	8001b0e <HAL_RCC_OscConfig+0x1f6>
 8001b0c:	e07e      	b.n	8001c0c <HAL_RCC_OscConfig+0x2f4>
        if((HAL_GetTick() - tickstart ) > LSI_TIMEOUT_VALUE)
 8001b0e:	f7ff fc8f 	bl	8001430 <HAL_GetTick>
 8001b12:	1b80      	subs	r0, r0, r6
 8001b14:	2802      	cmp	r0, #2
 8001b16:	d9f5      	bls.n	8001b04 <HAL_RCC_OscConfig+0x1ec>
          return HAL_TIMEOUT;
 8001b18:	2003      	movs	r0, #3
 8001b1a:	e19e      	b.n	8001e5a <HAL_RCC_OscConfig+0x542>
        __HAL_RCC_HSI_CALIBRATIONVALUE_ADJUST(RCC_OscInitStruct->HSICalibrationValue);
 8001b1c:	4933      	ldr	r1, [pc, #204]	; (8001bec <HAL_RCC_OscConfig+0x2d4>)
 8001b1e:	684b      	ldr	r3, [r1, #4]
 8001b20:	4a35      	ldr	r2, [pc, #212]	; (8001bf8 <HAL_RCC_OscConfig+0x2e0>)
 8001b22:	4013      	ands	r3, r2
 8001b24:	6922      	ldr	r2, [r4, #16]
 8001b26:	0212      	lsls	r2, r2, #8
 8001b28:	4313      	orrs	r3, r2
 8001b2a:	604b      	str	r3, [r1, #4]
 8001b2c:	e7ab      	b.n	8001a86 <HAL_RCC_OscConfig+0x16e>
        __HAL_RCC_HSI_DISABLE();
 8001b2e:	4a2f      	ldr	r2, [pc, #188]	; (8001bec <HAL_RCC_OscConfig+0x2d4>)
 8001b30:	6813      	ldr	r3, [r2, #0]
 8001b32:	2101      	movs	r1, #1
 8001b34:	438b      	bics	r3, r1
 8001b36:	6013      	str	r3, [r2, #0]
        tickstart = HAL_GetTick();
 8001b38:	f7ff fc7a 	bl	8001430 <HAL_GetTick>
 8001b3c:	0006      	movs	r6, r0
        while(__HAL_RCC_GET_FLAG(RCC_FLAG_HSIRDY) != 0U)
 8001b3e:	4b2b      	ldr	r3, [pc, #172]	; (8001bec <HAL_RCC_OscConfig+0x2d4>)
 8001b40:	681b      	ldr	r3, [r3, #0]
 8001b42:	075b      	lsls	r3, r3, #29
 8001b44:	d59f      	bpl.n	8001a86 <HAL_RCC_OscConfig+0x16e>
          if((HAL_GetTick() - tickstart ) > HSI_TIMEOUT_VALUE)
 8001b46:	f7ff fc73 	bl	8001430 <HAL_GetTick>
 8001b4a:	1b80      	subs	r0, r0, r6
 8001b4c:	2802      	cmp	r0, #2
 8001b4e:	d9f6      	bls.n	8001b3e <HAL_RCC_OscConfig+0x226>
            return HAL_TIMEOUT;
 8001b50:	2003      	movs	r0, #3
 8001b52:	e182      	b.n	8001e5a <HAL_RCC_OscConfig+0x542>
      if(RCC_OscInitStruct->MSIState != RCC_MSI_OFF)
 8001b54:	69e3      	ldr	r3, [r4, #28]
 8001b56:	2b00      	cmp	r3, #0
 8001b58:	d022      	beq.n	8001ba0 <HAL_RCC_OscConfig+0x288>
        __HAL_RCC_MSI_ENABLE();
 8001b5a:	4a24      	ldr	r2, [pc, #144]	; (8001bec <HAL_RCC_OscConfig+0x2d4>)
 8001b5c:	6811      	ldr	r1, [r2, #0]
 8001b5e:	2380      	movs	r3, #128	; 0x80
 8001b60:	005b      	lsls	r3, r3, #1
 8001b62:	430b      	orrs	r3, r1
 8001b64:	6013      	str	r3, [r2, #0]
        tickstart = HAL_GetTick();
 8001b66:	f7ff fc63 	bl	8001430 <HAL_GetTick>
 8001b6a:	0006      	movs	r6, r0
        while(__HAL_RCC_GET_FLAG(RCC_FLAG_MSIRDY) == 0U)
 8001b6c:	4b1f      	ldr	r3, [pc, #124]	; (8001bec <HAL_RCC_OscConfig+0x2d4>)
 8001b6e:	681b      	ldr	r3, [r3, #0]
 8001b70:	059b      	lsls	r3, r3, #22
 8001b72:	d406      	bmi.n	8001b82 <HAL_RCC_OscConfig+0x26a>
          if((HAL_GetTick() - tickstart) > MSI_TIMEOUT_VALUE)
 8001b74:	f7ff fc5c 	bl	8001430 <HAL_GetTick>
 8001b78:	1b80      	subs	r0, r0, r6
 8001b7a:	2802      	cmp	r0, #2
 8001b7c:	d9f6      	bls.n	8001b6c <HAL_RCC_OscConfig+0x254>
            return HAL_TIMEOUT;
 8001b7e:	2003      	movs	r0, #3
 8001b80:	e16b      	b.n	8001e5a <HAL_RCC_OscConfig+0x542>
        __HAL_RCC_MSI_RANGE_CONFIG(RCC_OscInitStruct->MSIClockRange);
 8001b82:	4a1a      	ldr	r2, [pc, #104]	; (8001bec <HAL_RCC_OscConfig+0x2d4>)
 8001b84:	6853      	ldr	r3, [r2, #4]
 8001b86:	491f      	ldr	r1, [pc, #124]	; (8001c04 <HAL_RCC_OscConfig+0x2ec>)
 8001b88:	400b      	ands	r3, r1
 8001b8a:	6a61      	ldr	r1, [r4, #36]	; 0x24
 8001b8c:	430b      	orrs	r3, r1
 8001b8e:	6053      	str	r3, [r2, #4]
        __HAL_RCC_MSI_CALIBRATIONVALUE_ADJUST(RCC_OscInitStruct->MSICalibrationValue);
 8001b90:	6853      	ldr	r3, [r2, #4]
 8001b92:	021b      	lsls	r3, r3, #8
 8001b94:	0a1b      	lsrs	r3, r3, #8
 8001b96:	6a21      	ldr	r1, [r4, #32]
 8001b98:	0609      	lsls	r1, r1, #24
 8001b9a:	430b      	orrs	r3, r1
 8001b9c:	6053      	str	r3, [r2, #4]
 8001b9e:	e7a2      	b.n	8001ae6 <HAL_RCC_OscConfig+0x1ce>
        __HAL_RCC_MSI_DISABLE();
 8001ba0:	4a12      	ldr	r2, [pc, #72]	; (8001bec <HAL_RCC_OscConfig+0x2d4>)
 8001ba2:	6813      	ldr	r3, [r2, #0]
 8001ba4:	4918      	ldr	r1, [pc, #96]	; (8001c08 <HAL_RCC_OscConfig+0x2f0>)
 8001ba6:	400b      	ands	r3, r1
 8001ba8:	6013      	str	r3, [r2, #0]
        tickstart = HAL_GetTick();
 8001baa:	f7ff fc41 	bl	8001430 <HAL_GetTick>
 8001bae:	0006      	movs	r6, r0
        while(__HAL_RCC_GET_FLAG(RCC_FLAG_MSIRDY) != 0U)
 8001bb0:	4b0e      	ldr	r3, [pc, #56]	; (8001bec <HAL_RCC_OscConfig+0x2d4>)
 8001bb2:	681b      	ldr	r3, [r3, #0]
 8001bb4:	059b      	lsls	r3, r3, #22
 8001bb6:	d596      	bpl.n	8001ae6 <HAL_RCC_OscConfig+0x1ce>
          if((HAL_GetTick() - tickstart) > MSI_TIMEOUT_VALUE)
 8001bb8:	f7ff fc3a 	bl	8001430 <HAL_GetTick>
 8001bbc:	1b80      	subs	r0, r0, r6
 8001bbe:	2802      	cmp	r0, #2
 8001bc0:	d9f6      	bls.n	8001bb0 <HAL_RCC_OscConfig+0x298>
            return HAL_TIMEOUT;
 8001bc2:	2003      	movs	r0, #3
 8001bc4:	e149      	b.n	8001e5a <HAL_RCC_OscConfig+0x542>
      __HAL_RCC_LSI_DISABLE();
 8001bc6:	4a09      	ldr	r2, [pc, #36]	; (8001bec <HAL_RCC_OscConfig+0x2d4>)
 8001bc8:	6d13      	ldr	r3, [r2, #80]	; 0x50
 8001bca:	2101      	movs	r1, #1
 8001bcc:	438b      	bics	r3, r1
 8001bce:	6513      	str	r3, [r2, #80]	; 0x50
      tickstart = HAL_GetTick();
 8001bd0:	f7ff fc2e 	bl	8001430 <HAL_GetTick>
 8001bd4:	0006      	movs	r6, r0
      while(__HAL_RCC_GET_FLAG(RCC_FLAG_LSIRDY) != 0U)
 8001bd6:	4b05      	ldr	r3, [pc, #20]	; (8001bec <HAL_RCC_OscConfig+0x2d4>)
 8001bd8:	6d1b      	ldr	r3, [r3, #80]	; 0x50
 8001bda:	079b      	lsls	r3, r3, #30
 8001bdc:	d516      	bpl.n	8001c0c <HAL_RCC_OscConfig+0x2f4>
        if((HAL_GetTick() - tickstart ) > LSI_TIMEOUT_VALUE)
 8001bde:	f7ff fc27 	bl	8001430 <HAL_GetTick>
 8001be2:	1b80      	subs	r0, r0, r6
 8001be4:	2802      	cmp	r0, #2
 8001be6:	d9f6      	bls.n	8001bd6 <HAL_RCC_OscConfig+0x2be>
          return HAL_TIMEOUT;
 8001be8:	2003      	movs	r0, #3
 8001bea:	e136      	b.n	8001e5a <HAL_RCC_OscConfig+0x542>
 8001bec:	40021000 	.word	0x40021000
 8001bf0:	fffeffff 	.word	0xfffeffff
 8001bf4:	fffbffff 	.word	0xfffbffff
 8001bf8:	ffffe0ff 	.word	0xffffe0ff
 8001bfc:	08004480 	.word	0x08004480
 8001c00:	20000000 	.word	0x20000000
 8001c04:	ffff1fff 	.word	0xffff1fff
 8001c08:	fffffeff 	.word	0xfffffeff
  if(((RCC_OscInitStruct->OscillatorType) & RCC_OSCILLATORTYPE_LSE) == RCC_OSCILLATORTYPE_LSE)
 8001c0c:	6823      	ldr	r3, [r4, #0]
 8001c0e:	075b      	lsls	r3, r3, #29
 8001c10:	d578      	bpl.n	8001d04 <HAL_RCC_OscConfig+0x3ec>
    if(__HAL_RCC_PWR_IS_CLK_DISABLED())
 8001c12:	4b98      	ldr	r3, [pc, #608]	; (8001e74 <HAL_RCC_OscConfig+0x55c>)
 8001c14:	6b9b      	ldr	r3, [r3, #56]	; 0x38
 8001c16:	00db      	lsls	r3, r3, #3
 8001c18:	d42c      	bmi.n	8001c74 <HAL_RCC_OscConfig+0x35c>
      __HAL_RCC_PWR_CLK_ENABLE();
 8001c1a:	4a96      	ldr	r2, [pc, #600]	; (8001e74 <HAL_RCC_OscConfig+0x55c>)
 8001c1c:	6b91      	ldr	r1, [r2, #56]	; 0x38
 8001c1e:	2380      	movs	r3, #128	; 0x80
 8001c20:	055b      	lsls	r3, r3, #21
 8001c22:	430b      	orrs	r3, r1
 8001c24:	6393      	str	r3, [r2, #56]	; 0x38
      pwrclkchanged = SET;
 8001c26:	2601      	movs	r6, #1
    if(HAL_IS_BIT_CLR(PWR->CR, PWR_CR_DBP))
 8001c28:	4b93      	ldr	r3, [pc, #588]	; (8001e78 <HAL_RCC_OscConfig+0x560>)
 8001c2a:	681b      	ldr	r3, [r3, #0]
 8001c2c:	05db      	lsls	r3, r3, #23
 8001c2e:	d523      	bpl.n	8001c78 <HAL_RCC_OscConfig+0x360>
    __HAL_RCC_LSE_CONFIG(RCC_OscInitStruct->LSEState);
 8001c30:	68a3      	ldr	r3, [r4, #8]
 8001c32:	2280      	movs	r2, #128	; 0x80
 8001c34:	0052      	lsls	r2, r2, #1
 8001c36:	4293      	cmp	r3, r2
 8001c38:	d032      	beq.n	8001ca0 <HAL_RCC_OscConfig+0x388>
 8001c3a:	2b00      	cmp	r3, #0
 8001c3c:	d137      	bne.n	8001cae <HAL_RCC_OscConfig+0x396>
 8001c3e:	4b8d      	ldr	r3, [pc, #564]	; (8001e74 <HAL_RCC_OscConfig+0x55c>)
 8001c40:	6d1a      	ldr	r2, [r3, #80]	; 0x50
 8001c42:	498e      	ldr	r1, [pc, #568]	; (8001e7c <HAL_RCC_OscConfig+0x564>)
 8001c44:	400a      	ands	r2, r1
 8001c46:	651a      	str	r2, [r3, #80]	; 0x50
 8001c48:	6d1a      	ldr	r2, [r3, #80]	; 0x50
 8001c4a:	498d      	ldr	r1, [pc, #564]	; (8001e80 <HAL_RCC_OscConfig+0x568>)
 8001c4c:	400a      	ands	r2, r1
 8001c4e:	651a      	str	r2, [r3, #80]	; 0x50
    if(RCC_OscInitStruct->LSEState != RCC_LSE_OFF)
 8001c50:	68a3      	ldr	r3, [r4, #8]
 8001c52:	2b00      	cmp	r3, #0
 8001c54:	d045      	beq.n	8001ce2 <HAL_RCC_OscConfig+0x3ca>
      tickstart = HAL_GetTick();
 8001c56:	f7ff fbeb 	bl	8001430 <HAL_GetTick>
 8001c5a:	0007      	movs	r7, r0
      while(__HAL_RCC_GET_FLAG(RCC_FLAG_LSERDY) == 0U)
 8001c5c:	4b85      	ldr	r3, [pc, #532]	; (8001e74 <HAL_RCC_OscConfig+0x55c>)
 8001c5e:	6d1b      	ldr	r3, [r3, #80]	; 0x50
 8001c60:	059b      	lsls	r3, r3, #22
 8001c62:	d44d      	bmi.n	8001d00 <HAL_RCC_OscConfig+0x3e8>
        if((HAL_GetTick() - tickstart ) > RCC_LSE_TIMEOUT_VALUE)
 8001c64:	f7ff fbe4 	bl	8001430 <HAL_GetTick>
 8001c68:	1bc0      	subs	r0, r0, r7
 8001c6a:	4b86      	ldr	r3, [pc, #536]	; (8001e84 <HAL_RCC_OscConfig+0x56c>)
 8001c6c:	4298      	cmp	r0, r3
 8001c6e:	d9f5      	bls.n	8001c5c <HAL_RCC_OscConfig+0x344>
          return HAL_TIMEOUT;
 8001c70:	2003      	movs	r0, #3
 8001c72:	e0f2      	b.n	8001e5a <HAL_RCC_OscConfig+0x542>
    FlagStatus       pwrclkchanged = RESET;
 8001c74:	2600      	movs	r6, #0
 8001c76:	e7d7      	b.n	8001c28 <HAL_RCC_OscConfig+0x310>
      SET_BIT(PWR->CR, PWR_CR_DBP);
 8001c78:	4a7f      	ldr	r2, [pc, #508]	; (8001e78 <HAL_RCC_OscConfig+0x560>)
 8001c7a:	6811      	ldr	r1, [r2, #0]
 8001c7c:	2380      	movs	r3, #128	; 0x80
 8001c7e:	005b      	lsls	r3, r3, #1
 8001c80:	430b      	orrs	r3, r1
 8001c82:	6013      	str	r3, [r2, #0]
      tickstart = HAL_GetTick();
 8001c84:	f7ff fbd4 	bl	8001430 <HAL_GetTick>
 8001c88:	0007      	movs	r7, r0
      while(HAL_IS_BIT_CLR(PWR->CR, PWR_CR_DBP))
 8001c8a:	4b7b      	ldr	r3, [pc, #492]	; (8001e78 <HAL_RCC_OscConfig+0x560>)
 8001c8c:	681b      	ldr	r3, [r3, #0]
 8001c8e:	05db      	lsls	r3, r3, #23
 8001c90:	d4ce      	bmi.n	8001c30 <HAL_RCC_OscConfig+0x318>
        if((HAL_GetTick() - tickstart) > RCC_DBP_TIMEOUT_VALUE)
 8001c92:	f7ff fbcd 	bl	8001430 <HAL_GetTick>
 8001c96:	1bc0      	subs	r0, r0, r7
 8001c98:	2864      	cmp	r0, #100	; 0x64
 8001c9a:	d9f6      	bls.n	8001c8a <HAL_RCC_OscConfig+0x372>
          return HAL_TIMEOUT;
 8001c9c:	2003      	movs	r0, #3
 8001c9e:	e0dc      	b.n	8001e5a <HAL_RCC_OscConfig+0x542>
    __HAL_RCC_LSE_CONFIG(RCC_OscInitStruct->LSEState);
 8001ca0:	4a74      	ldr	r2, [pc, #464]	; (8001e74 <HAL_RCC_OscConfig+0x55c>)
 8001ca2:	6d11      	ldr	r1, [r2, #80]	; 0x50
 8001ca4:	2380      	movs	r3, #128	; 0x80
 8001ca6:	005b      	lsls	r3, r3, #1
 8001ca8:	430b      	orrs	r3, r1
 8001caa:	6513      	str	r3, [r2, #80]	; 0x50
 8001cac:	e7d0      	b.n	8001c50 <HAL_RCC_OscConfig+0x338>
 8001cae:	22a0      	movs	r2, #160	; 0xa0
 8001cb0:	00d2      	lsls	r2, r2, #3
 8001cb2:	4293      	cmp	r3, r2
 8001cb4:	d009      	beq.n	8001cca <HAL_RCC_OscConfig+0x3b2>
 8001cb6:	4b6f      	ldr	r3, [pc, #444]	; (8001e74 <HAL_RCC_OscConfig+0x55c>)
 8001cb8:	6d1a      	ldr	r2, [r3, #80]	; 0x50
 8001cba:	4970      	ldr	r1, [pc, #448]	; (8001e7c <HAL_RCC_OscConfig+0x564>)
 8001cbc:	400a      	ands	r2, r1
 8001cbe:	651a      	str	r2, [r3, #80]	; 0x50
 8001cc0:	6d1a      	ldr	r2, [r3, #80]	; 0x50
 8001cc2:	496f      	ldr	r1, [pc, #444]	; (8001e80 <HAL_RCC_OscConfig+0x568>)
 8001cc4:	400a      	ands	r2, r1
 8001cc6:	651a      	str	r2, [r3, #80]	; 0x50
 8001cc8:	e7c2      	b.n	8001c50 <HAL_RCC_OscConfig+0x338>
 8001cca:	4b6a      	ldr	r3, [pc, #424]	; (8001e74 <HAL_RCC_OscConfig+0x55c>)
 8001ccc:	6d19      	ldr	r1, [r3, #80]	; 0x50
 8001cce:	3a01      	subs	r2, #1
 8001cd0:	3aff      	subs	r2, #255	; 0xff
 8001cd2:	430a      	orrs	r2, r1
 8001cd4:	651a      	str	r2, [r3, #80]	; 0x50
 8001cd6:	6d19      	ldr	r1, [r3, #80]	; 0x50
 8001cd8:	2280      	movs	r2, #128	; 0x80
 8001cda:	0052      	lsls	r2, r2, #1
 8001cdc:	430a      	orrs	r2, r1
 8001cde:	651a      	str	r2, [r3, #80]	; 0x50
 8001ce0:	e7b6      	b.n	8001c50 <HAL_RCC_OscConfig+0x338>
      tickstart = HAL_GetTick();
 8001ce2:	f7ff fba5 	bl	8001430 <HAL_GetTick>
 8001ce6:	0007      	movs	r7, r0
      while(__HAL_RCC_GET_FLAG(RCC_FLAG_LSERDY) != 0U)
 8001ce8:	4b62      	ldr	r3, [pc, #392]	; (8001e74 <HAL_RCC_OscConfig+0x55c>)
 8001cea:	6d1b      	ldr	r3, [r3, #80]	; 0x50
 8001cec:	059b      	lsls	r3, r3, #22
 8001cee:	d507      	bpl.n	8001d00 <HAL_RCC_OscConfig+0x3e8>
        if((HAL_GetTick() - tickstart ) > RCC_LSE_TIMEOUT_VALUE)
 8001cf0:	f7ff fb9e 	bl	8001430 <HAL_GetTick>
 8001cf4:	1bc0      	subs	r0, r0, r7
 8001cf6:	4b63      	ldr	r3, [pc, #396]	; (8001e84 <HAL_RCC_OscConfig+0x56c>)
 8001cf8:	4298      	cmp	r0, r3
 8001cfa:	d9f5      	bls.n	8001ce8 <HAL_RCC_OscConfig+0x3d0>
          return HAL_TIMEOUT;
 8001cfc:	2003      	movs	r0, #3
 8001cfe:	e0ac      	b.n	8001e5a <HAL_RCC_OscConfig+0x542>
    if(pwrclkchanged == SET)
 8001d00:	2e01      	cmp	r6, #1
 8001d02:	d021      	beq.n	8001d48 <HAL_RCC_OscConfig+0x430>
  if(((RCC_OscInitStruct->OscillatorType) & RCC_OSCILLATORTYPE_HSI48) == RCC_OSCILLATORTYPE_HSI48)
 8001d04:	6823      	ldr	r3, [r4, #0]
 8001d06:	069b      	lsls	r3, r3, #26
 8001d08:	d53c      	bpl.n	8001d84 <HAL_RCC_OscConfig+0x46c>
      if(RCC_OscInitStruct->HSI48State != RCC_HSI48_OFF)
 8001d0a:	69a3      	ldr	r3, [r4, #24]
 8001d0c:	2b00      	cmp	r3, #0
 8001d0e:	d021      	beq.n	8001d54 <HAL_RCC_OscConfig+0x43c>
        __HAL_RCC_HSI48_ENABLE();
 8001d10:	4b58      	ldr	r3, [pc, #352]	; (8001e74 <HAL_RCC_OscConfig+0x55c>)
 8001d12:	6899      	ldr	r1, [r3, #8]
 8001d14:	2001      	movs	r0, #1
 8001d16:	4301      	orrs	r1, r0
 8001d18:	6099      	str	r1, [r3, #8]
 8001d1a:	6b5a      	ldr	r2, [r3, #52]	; 0x34
 8001d1c:	4302      	orrs	r2, r0
 8001d1e:	635a      	str	r2, [r3, #52]	; 0x34
 8001d20:	4a59      	ldr	r2, [pc, #356]	; (8001e88 <HAL_RCC_OscConfig+0x570>)
 8001d22:	6a11      	ldr	r1, [r2, #32]
 8001d24:	2380      	movs	r3, #128	; 0x80
 8001d26:	019b      	lsls	r3, r3, #6
 8001d28:	430b      	orrs	r3, r1
 8001d2a:	6213      	str	r3, [r2, #32]
        tickstart = HAL_GetTick();
 8001d2c:	f7ff fb80 	bl	8001430 <HAL_GetTick>
 8001d30:	0006      	movs	r6, r0
        while(__HAL_RCC_GET_FLAG(RCC_FLAG_HSI48RDY) == 0U)
 8001d32:	4b50      	ldr	r3, [pc, #320]	; (8001e74 <HAL_RCC_OscConfig+0x55c>)
 8001d34:	689b      	ldr	r3, [r3, #8]
 8001d36:	079b      	lsls	r3, r3, #30
 8001d38:	d424      	bmi.n	8001d84 <HAL_RCC_OscConfig+0x46c>
          if((HAL_GetTick() - tickstart) > HSI48_TIMEOUT_VALUE)
 8001d3a:	f7ff fb79 	bl	8001430 <HAL_GetTick>
 8001d3e:	1b80      	subs	r0, r0, r6
 8001d40:	2802      	cmp	r0, #2
 8001d42:	d9f6      	bls.n	8001d32 <HAL_RCC_OscConfig+0x41a>
            return HAL_TIMEOUT;
 8001d44:	2003      	movs	r0, #3
 8001d46:	e088      	b.n	8001e5a <HAL_RCC_OscConfig+0x542>
      __HAL_RCC_PWR_CLK_DISABLE();
 8001d48:	4a4a      	ldr	r2, [pc, #296]	; (8001e74 <HAL_RCC_OscConfig+0x55c>)
 8001d4a:	6b93      	ldr	r3, [r2, #56]	; 0x38
 8001d4c:	494f      	ldr	r1, [pc, #316]	; (8001e8c <HAL_RCC_OscConfig+0x574>)
 8001d4e:	400b      	ands	r3, r1
 8001d50:	6393      	str	r3, [r2, #56]	; 0x38
 8001d52:	e7d7      	b.n	8001d04 <HAL_RCC_OscConfig+0x3ec>
        __HAL_RCC_HSI48_DISABLE();
 8001d54:	4a47      	ldr	r2, [pc, #284]	; (8001e74 <HAL_RCC_OscConfig+0x55c>)
 8001d56:	6893      	ldr	r3, [r2, #8]
 8001d58:	2101      	movs	r1, #1
 8001d5a:	438b      	bics	r3, r1
 8001d5c:	6093      	str	r3, [r2, #8]
 8001d5e:	4a4a      	ldr	r2, [pc, #296]	; (8001e88 <HAL_RCC_OscConfig+0x570>)
 8001d60:	6a13      	ldr	r3, [r2, #32]
 8001d62:	494b      	ldr	r1, [pc, #300]	; (8001e90 <HAL_RCC_OscConfig+0x578>)
 8001d64:	400b      	ands	r3, r1
 8001d66:	6213      	str	r3, [r2, #32]
        tickstart = HAL_GetTick();
 8001d68:	f7ff fb62 	bl	8001430 <HAL_GetTick>
 8001d6c:	0006      	movs	r6, r0
        while(__HAL_RCC_GET_FLAG(RCC_FLAG_HSI48RDY) != 0U)
 8001d6e:	4b41      	ldr	r3, [pc, #260]	; (8001e74 <HAL_RCC_OscConfig+0x55c>)
 8001d70:	689b      	ldr	r3, [r3, #8]
 8001d72:	079b      	lsls	r3, r3, #30
 8001d74:	d506      	bpl.n	8001d84 <HAL_RCC_OscConfig+0x46c>
          if((HAL_GetTick() - tickstart) > HSI48_TIMEOUT_VALUE)
 8001d76:	f7ff fb5b 	bl	8001430 <HAL_GetTick>
 8001d7a:	1b80      	subs	r0, r0, r6
 8001d7c:	2802      	cmp	r0, #2
 8001d7e:	d9f6      	bls.n	8001d6e <HAL_RCC_OscConfig+0x456>
            return HAL_TIMEOUT;
 8001d80:	2003      	movs	r0, #3
 8001d82:	e06a      	b.n	8001e5a <HAL_RCC_OscConfig+0x542>
  if ((RCC_OscInitStruct->PLL.PLLState) != RCC_PLL_NONE)
 8001d84:	6aa3      	ldr	r3, [r4, #40]	; 0x28
 8001d86:	2b00      	cmp	r3, #0
 8001d88:	d100      	bne.n	8001d8c <HAL_RCC_OscConfig+0x474>
 8001d8a:	e06e      	b.n	8001e6a <HAL_RCC_OscConfig+0x552>
    if(sysclk_source != RCC_SYSCLKSOURCE_STATUS_PLLCLK)
 8001d8c:	2d0c      	cmp	r5, #12
 8001d8e:	d049      	beq.n	8001e24 <HAL_RCC_OscConfig+0x50c>
      if((RCC_OscInitStruct->PLL.PLLState) == RCC_PLL_ON)
 8001d90:	2b02      	cmp	r3, #2
 8001d92:	d012      	beq.n	8001dba <HAL_RCC_OscConfig+0x4a2>
        __HAL_RCC_PLL_DISABLE();
 8001d94:	4a37      	ldr	r2, [pc, #220]	; (8001e74 <HAL_RCC_OscConfig+0x55c>)
 8001d96:	6813      	ldr	r3, [r2, #0]
 8001d98:	493e      	ldr	r1, [pc, #248]	; (8001e94 <HAL_RCC_OscConfig+0x57c>)
 8001d9a:	400b      	ands	r3, r1
 8001d9c:	6013      	str	r3, [r2, #0]
        tickstart = HAL_GetTick();
 8001d9e:	f7ff fb47 	bl	8001430 <HAL_GetTick>
 8001da2:	0004      	movs	r4, r0
        while(__HAL_RCC_GET_FLAG(RCC_FLAG_PLLRDY)  != 0U)
 8001da4:	4b33      	ldr	r3, [pc, #204]	; (8001e74 <HAL_RCC_OscConfig+0x55c>)
 8001da6:	681b      	ldr	r3, [r3, #0]
 8001da8:	019b      	lsls	r3, r3, #6
 8001daa:	d539      	bpl.n	8001e20 <HAL_RCC_OscConfig+0x508>
          if((HAL_GetTick() - tickstart ) > PLL_TIMEOUT_VALUE)
 8001dac:	f7ff fb40 	bl	8001430 <HAL_GetTick>
 8001db0:	1b00      	subs	r0, r0, r4
 8001db2:	2802      	cmp	r0, #2
 8001db4:	d9f6      	bls.n	8001da4 <HAL_RCC_OscConfig+0x48c>
            return HAL_TIMEOUT;
 8001db6:	2003      	movs	r0, #3
 8001db8:	e04f      	b.n	8001e5a <HAL_RCC_OscConfig+0x542>
        __HAL_RCC_PLL_DISABLE();
 8001dba:	4a2e      	ldr	r2, [pc, #184]	; (8001e74 <HAL_RCC_OscConfig+0x55c>)
 8001dbc:	6813      	ldr	r3, [r2, #0]
 8001dbe:	4935      	ldr	r1, [pc, #212]	; (8001e94 <HAL_RCC_OscConfig+0x57c>)
 8001dc0:	400b      	ands	r3, r1
 8001dc2:	6013      	str	r3, [r2, #0]
        tickstart = HAL_GetTick();
 8001dc4:	f7ff fb34 	bl	8001430 <HAL_GetTick>
 8001dc8:	0005      	movs	r5, r0
        while(__HAL_RCC_GET_FLAG(RCC_FLAG_PLLRDY)  != 0U)
 8001dca:	4b2a      	ldr	r3, [pc, #168]	; (8001e74 <HAL_RCC_OscConfig+0x55c>)
 8001dcc:	681b      	ldr	r3, [r3, #0]
 8001dce:	019b      	lsls	r3, r3, #6
 8001dd0:	d506      	bpl.n	8001de0 <HAL_RCC_OscConfig+0x4c8>
          if((HAL_GetTick() - tickstart ) > PLL_TIMEOUT_VALUE)
 8001dd2:	f7ff fb2d 	bl	8001430 <HAL_GetTick>
 8001dd6:	1b40      	subs	r0, r0, r5
 8001dd8:	2802      	cmp	r0, #2
 8001dda:	d9f6      	bls.n	8001dca <HAL_RCC_OscConfig+0x4b2>
            return HAL_TIMEOUT;
 8001ddc:	2003      	movs	r0, #3
 8001dde:	e03c      	b.n	8001e5a <HAL_RCC_OscConfig+0x542>
        __HAL_RCC_PLL_CONFIG(RCC_OscInitStruct->PLL.PLLSource,
 8001de0:	4924      	ldr	r1, [pc, #144]	; (8001e74 <HAL_RCC_OscConfig+0x55c>)
 8001de2:	68cb      	ldr	r3, [r1, #12]
 8001de4:	4a2c      	ldr	r2, [pc, #176]	; (8001e98 <HAL_RCC_OscConfig+0x580>)
 8001de6:	4013      	ands	r3, r2
 8001de8:	6ae2      	ldr	r2, [r4, #44]	; 0x2c
 8001dea:	6b20      	ldr	r0, [r4, #48]	; 0x30
 8001dec:	4302      	orrs	r2, r0
 8001dee:	6b60      	ldr	r0, [r4, #52]	; 0x34
 8001df0:	4302      	orrs	r2, r0
 8001df2:	4313      	orrs	r3, r2
 8001df4:	60cb      	str	r3, [r1, #12]
        __HAL_RCC_PLL_ENABLE();
 8001df6:	680a      	ldr	r2, [r1, #0]
 8001df8:	2380      	movs	r3, #128	; 0x80
 8001dfa:	045b      	lsls	r3, r3, #17
 8001dfc:	4313      	orrs	r3, r2
 8001dfe:	600b      	str	r3, [r1, #0]
        tickstart = HAL_GetTick();
 8001e00:	f7ff fb16 	bl	8001430 <HAL_GetTick>
 8001e04:	0004      	movs	r4, r0
        while(__HAL_RCC_GET_FLAG(RCC_FLAG_PLLRDY)  == 0U)
 8001e06:	4b1b      	ldr	r3, [pc, #108]	; (8001e74 <HAL_RCC_OscConfig+0x55c>)
 8001e08:	681b      	ldr	r3, [r3, #0]
 8001e0a:	019b      	lsls	r3, r3, #6
 8001e0c:	d406      	bmi.n	8001e1c <HAL_RCC_OscConfig+0x504>
          if((HAL_GetTick() - tickstart ) > PLL_TIMEOUT_VALUE)
 8001e0e:	f7ff fb0f 	bl	8001430 <HAL_GetTick>
 8001e12:	1b00      	subs	r0, r0, r4
 8001e14:	2802      	cmp	r0, #2
 8001e16:	d9f6      	bls.n	8001e06 <HAL_RCC_OscConfig+0x4ee>
            return HAL_TIMEOUT;
 8001e18:	2003      	movs	r0, #3
 8001e1a:	e01e      	b.n	8001e5a <HAL_RCC_OscConfig+0x542>
  return HAL_OK;
 8001e1c:	2000      	movs	r0, #0
 8001e1e:	e01c      	b.n	8001e5a <HAL_RCC_OscConfig+0x542>
 8001e20:	2000      	movs	r0, #0
 8001e22:	e01a      	b.n	8001e5a <HAL_RCC_OscConfig+0x542>
      pll_config = RCC->CFGR;
 8001e24:	4b13      	ldr	r3, [pc, #76]	; (8001e74 <HAL_RCC_OscConfig+0x55c>)
 8001e26:	68da      	ldr	r2, [r3, #12]
      if((READ_BIT(pll_config, RCC_CFGR_PLLSRC) != RCC_OscInitStruct->PLL.PLLSource) ||
 8001e28:	2380      	movs	r3, #128	; 0x80
 8001e2a:	025b      	lsls	r3, r3, #9
 8001e2c:	4013      	ands	r3, r2
 8001e2e:	6ae1      	ldr	r1, [r4, #44]	; 0x2c
 8001e30:	428b      	cmp	r3, r1
 8001e32:	d001      	beq.n	8001e38 <HAL_RCC_OscConfig+0x520>
        return HAL_ERROR;
 8001e34:	2001      	movs	r0, #1
 8001e36:	e010      	b.n	8001e5a <HAL_RCC_OscConfig+0x542>
         (READ_BIT(pll_config, RCC_CFGR_PLLMUL) != RCC_OscInitStruct->PLL.PLLMUL) ||
 8001e38:	23f0      	movs	r3, #240	; 0xf0
 8001e3a:	039b      	lsls	r3, r3, #14
 8001e3c:	4013      	ands	r3, r2
      if((READ_BIT(pll_config, RCC_CFGR_PLLSRC) != RCC_OscInitStruct->PLL.PLLSource) ||
 8001e3e:	6b21      	ldr	r1, [r4, #48]	; 0x30
 8001e40:	428b      	cmp	r3, r1
 8001e42:	d001      	beq.n	8001e48 <HAL_RCC_OscConfig+0x530>
        return HAL_ERROR;
 8001e44:	2001      	movs	r0, #1
 8001e46:	e008      	b.n	8001e5a <HAL_RCC_OscConfig+0x542>
         (READ_BIT(pll_config, RCC_CFGR_PLLDIV) != RCC_OscInitStruct->PLL.PLLDIV))
 8001e48:	23c0      	movs	r3, #192	; 0xc0
 8001e4a:	041b      	lsls	r3, r3, #16
 8001e4c:	401a      	ands	r2, r3
 8001e4e:	6b63      	ldr	r3, [r4, #52]	; 0x34
         (READ_BIT(pll_config, RCC_CFGR_PLLMUL) != RCC_OscInitStruct->PLL.PLLMUL) ||
 8001e50:	429a      	cmp	r2, r3
 8001e52:	d00c      	beq.n	8001e6e <HAL_RCC_OscConfig+0x556>
        return HAL_ERROR;
 8001e54:	2001      	movs	r0, #1
 8001e56:	e000      	b.n	8001e5a <HAL_RCC_OscConfig+0x542>
    return HAL_ERROR;
 8001e58:	2001      	movs	r0, #1
}
 8001e5a:	b003      	add	sp, #12
 8001e5c:	bdf0      	pop	{r4, r5, r6, r7, pc}
        return HAL_ERROR;
 8001e5e:	2001      	movs	r0, #1
 8001e60:	e7fb      	b.n	8001e5a <HAL_RCC_OscConfig+0x542>
        return HAL_ERROR;
 8001e62:	2001      	movs	r0, #1
 8001e64:	e7f9      	b.n	8001e5a <HAL_RCC_OscConfig+0x542>
        return HAL_ERROR;
 8001e66:	2001      	movs	r0, #1
 8001e68:	e7f7      	b.n	8001e5a <HAL_RCC_OscConfig+0x542>
  return HAL_OK;
 8001e6a:	2000      	movs	r0, #0
 8001e6c:	e7f5      	b.n	8001e5a <HAL_RCC_OscConfig+0x542>
 8001e6e:	2000      	movs	r0, #0
 8001e70:	e7f3      	b.n	8001e5a <HAL_RCC_OscConfig+0x542>
 8001e72:	46c0      	nop			; (mov r8, r8)
 8001e74:	40021000 	.word	0x40021000
 8001e78:	40007000 	.word	0x40007000
 8001e7c:	fffffeff 	.word	0xfffffeff
 8001e80:	fffffbff 	.word	0xfffffbff
 8001e84:	00001388 	.word	0x00001388
 8001e88:	40010000 	.word	0x40010000
 8001e8c:	efffffff 	.word	0xefffffff
 8001e90:	ffffdfff 	.word	0xffffdfff
 8001e94:	feffffff 	.word	0xfeffffff
 8001e98:	ff02ffff 	.word	0xff02ffff

08001e9c <HAL_RCC_ClockConfig>:
{
 8001e9c:	b570      	push	{r4, r5, r6, lr}
 8001e9e:	0004      	movs	r4, r0
 8001ea0:	000d      	movs	r5, r1
  if(RCC_ClkInitStruct == NULL)
 8001ea2:	2800      	cmp	r0, #0
 8001ea4:	d100      	bne.n	8001ea8 <HAL_RCC_ClockConfig+0xc>
 8001ea6:	e0ba      	b.n	800201e <HAL_RCC_ClockConfig+0x182>
  if(FLatency > __HAL_FLASH_GET_LATENCY())
 8001ea8:	4b5f      	ldr	r3, [pc, #380]	; (8002028 <HAL_RCC_ClockConfig+0x18c>)
 8001eaa:	681a      	ldr	r2, [r3, #0]
 8001eac:	2301      	movs	r3, #1
 8001eae:	4013      	ands	r3, r2
 8001eb0:	428b      	cmp	r3, r1
 8001eb2:	d20b      	bcs.n	8001ecc <HAL_RCC_ClockConfig+0x30>
    __HAL_FLASH_SET_LATENCY(FLatency);
 8001eb4:	495c      	ldr	r1, [pc, #368]	; (8002028 <HAL_RCC_ClockConfig+0x18c>)
 8001eb6:	680b      	ldr	r3, [r1, #0]
 8001eb8:	2201      	movs	r2, #1
 8001eba:	4393      	bics	r3, r2
 8001ebc:	432b      	orrs	r3, r5
 8001ebe:	600b      	str	r3, [r1, #0]
    if(__HAL_FLASH_GET_LATENCY() != FLatency)
 8001ec0:	680b      	ldr	r3, [r1, #0]
 8001ec2:	401a      	ands	r2, r3
 8001ec4:	4295      	cmp	r5, r2
 8001ec6:	d001      	beq.n	8001ecc <HAL_RCC_ClockConfig+0x30>
      return HAL_ERROR;
 8001ec8:	2001      	movs	r0, #1
 8001eca:	e0a7      	b.n	800201c <HAL_RCC_ClockConfig+0x180>
  if(((RCC_ClkInitStruct->ClockType) & RCC_CLOCKTYPE_HCLK) == RCC_CLOCKTYPE_HCLK)
 8001ecc:	6823      	ldr	r3, [r4, #0]
 8001ece:	079b      	lsls	r3, r3, #30
 8001ed0:	d506      	bpl.n	8001ee0 <HAL_RCC_ClockConfig+0x44>
    MODIFY_REG(RCC->CFGR, RCC_CFGR_HPRE, RCC_ClkInitStruct->AHBCLKDivider);
 8001ed2:	4a56      	ldr	r2, [pc, #344]	; (800202c <HAL_RCC_ClockConfig+0x190>)
 8001ed4:	68d3      	ldr	r3, [r2, #12]
 8001ed6:	21f0      	movs	r1, #240	; 0xf0
 8001ed8:	438b      	bics	r3, r1
 8001eda:	68a1      	ldr	r1, [r4, #8]
 8001edc:	430b      	orrs	r3, r1
 8001ede:	60d3      	str	r3, [r2, #12]
  if(((RCC_ClkInitStruct->ClockType) & RCC_CLOCKTYPE_SYSCLK) == RCC_CLOCKTYPE_SYSCLK)
 8001ee0:	6823      	ldr	r3, [r4, #0]
 8001ee2:	07db      	lsls	r3, r3, #31
 8001ee4:	d564      	bpl.n	8001fb0 <HAL_RCC_ClockConfig+0x114>
    if(RCC_ClkInitStruct->SYSCLKSource == RCC_SYSCLKSOURCE_HSE)
 8001ee6:	6863      	ldr	r3, [r4, #4]
 8001ee8:	2b02      	cmp	r3, #2
 8001eea:	d025      	beq.n	8001f38 <HAL_RCC_ClockConfig+0x9c>
    else if(RCC_ClkInitStruct->SYSCLKSource == RCC_SYSCLKSOURCE_PLLCLK)
 8001eec:	2b03      	cmp	r3, #3
 8001eee:	d029      	beq.n	8001f44 <HAL_RCC_ClockConfig+0xa8>
    else if(RCC_ClkInitStruct->SYSCLKSource == RCC_SYSCLKSOURCE_HSI)
 8001ef0:	2b01      	cmp	r3, #1
 8001ef2:	d02d      	beq.n	8001f50 <HAL_RCC_ClockConfig+0xb4>
      if(__HAL_RCC_GET_FLAG(RCC_FLAG_MSIRDY) == 0U)
 8001ef4:	4a4d      	ldr	r2, [pc, #308]	; (800202c <HAL_RCC_ClockConfig+0x190>)
 8001ef6:	6812      	ldr	r2, [r2, #0]
 8001ef8:	0592      	lsls	r2, r2, #22
 8001efa:	d400      	bmi.n	8001efe <HAL_RCC_ClockConfig+0x62>
 8001efc:	e091      	b.n	8002022 <HAL_RCC_ClockConfig+0x186>
    __HAL_RCC_SYSCLK_CONFIG(RCC_ClkInitStruct->SYSCLKSource);
 8001efe:	494b      	ldr	r1, [pc, #300]	; (800202c <HAL_RCC_ClockConfig+0x190>)
 8001f00:	68ca      	ldr	r2, [r1, #12]
 8001f02:	2003      	movs	r0, #3
 8001f04:	4382      	bics	r2, r0
 8001f06:	4313      	orrs	r3, r2
 8001f08:	60cb      	str	r3, [r1, #12]
    tickstart = HAL_GetTick();
 8001f0a:	f7ff fa91 	bl	8001430 <HAL_GetTick>
 8001f0e:	0006      	movs	r6, r0
    if(RCC_ClkInitStruct->SYSCLKSource == RCC_SYSCLKSOURCE_HSE)
 8001f10:	6863      	ldr	r3, [r4, #4]
 8001f12:	2b02      	cmp	r3, #2
 8001f14:	d022      	beq.n	8001f5c <HAL_RCC_ClockConfig+0xc0>
    else if(RCC_ClkInitStruct->SYSCLKSource == RCC_SYSCLKSOURCE_PLLCLK)
 8001f16:	2b03      	cmp	r3, #3
 8001f18:	d02e      	beq.n	8001f78 <HAL_RCC_ClockConfig+0xdc>
    else if(RCC_ClkInitStruct->SYSCLKSource == RCC_SYSCLKSOURCE_HSI)
 8001f1a:	2b01      	cmp	r3, #1
 8001f1c:	d03a      	beq.n	8001f94 <HAL_RCC_ClockConfig+0xf8>
      while(__HAL_RCC_GET_SYSCLK_SOURCE() != RCC_SYSCLKSOURCE_STATUS_MSI)
 8001f1e:	4b43      	ldr	r3, [pc, #268]	; (800202c <HAL_RCC_ClockConfig+0x190>)
 8001f20:	68db      	ldr	r3, [r3, #12]
 8001f22:	220c      	movs	r2, #12
 8001f24:	421a      	tst	r2, r3
 8001f26:	d043      	beq.n	8001fb0 <HAL_RCC_ClockConfig+0x114>
        if((HAL_GetTick() - tickstart ) > CLOCKSWITCH_TIMEOUT_VALUE)
 8001f28:	f7ff fa82 	bl	8001430 <HAL_GetTick>
 8001f2c:	1b80      	subs	r0, r0, r6
 8001f2e:	4b40      	ldr	r3, [pc, #256]	; (8002030 <HAL_RCC_ClockConfig+0x194>)
 8001f30:	4298      	cmp	r0, r3
 8001f32:	d9f4      	bls.n	8001f1e <HAL_RCC_ClockConfig+0x82>
          return HAL_TIMEOUT;
 8001f34:	2003      	movs	r0, #3
 8001f36:	e071      	b.n	800201c <HAL_RCC_ClockConfig+0x180>
      if(__HAL_RCC_GET_FLAG(RCC_FLAG_HSERDY) == 0U)
 8001f38:	4a3c      	ldr	r2, [pc, #240]	; (800202c <HAL_RCC_ClockConfig+0x190>)
 8001f3a:	6812      	ldr	r2, [r2, #0]
 8001f3c:	0392      	lsls	r2, r2, #14
 8001f3e:	d4de      	bmi.n	8001efe <HAL_RCC_ClockConfig+0x62>
        return HAL_ERROR;
 8001f40:	2001      	movs	r0, #1
 8001f42:	e06b      	b.n	800201c <HAL_RCC_ClockConfig+0x180>
      if(__HAL_RCC_GET_FLAG(RCC_FLAG_PLLRDY) == 0U)
 8001f44:	4a39      	ldr	r2, [pc, #228]	; (800202c <HAL_RCC_ClockConfig+0x190>)
 8001f46:	6812      	ldr	r2, [r2, #0]
 8001f48:	0192      	lsls	r2, r2, #6
 8001f4a:	d4d8      	bmi.n	8001efe <HAL_RCC_ClockConfig+0x62>
        return HAL_ERROR;
 8001f4c:	2001      	movs	r0, #1
 8001f4e:	e065      	b.n	800201c <HAL_RCC_ClockConfig+0x180>
      if(__HAL_RCC_GET_FLAG(RCC_FLAG_HSIRDY) == 0U)
 8001f50:	4a36      	ldr	r2, [pc, #216]	; (800202c <HAL_RCC_ClockConfig+0x190>)
 8001f52:	6812      	ldr	r2, [r2, #0]
 8001f54:	0752      	lsls	r2, r2, #29
 8001f56:	d4d2      	bmi.n	8001efe <HAL_RCC_ClockConfig+0x62>
        return HAL_ERROR;
 8001f58:	2001      	movs	r0, #1
 8001f5a:	e05f      	b.n	800201c <HAL_RCC_ClockConfig+0x180>
      while (__HAL_RCC_GET_SYSCLK_SOURCE() != RCC_SYSCLKSOURCE_STATUS_HSE)
 8001f5c:	4b33      	ldr	r3, [pc, #204]	; (800202c <HAL_RCC_ClockConfig+0x190>)
 8001f5e:	68da      	ldr	r2, [r3, #12]
 8001f60:	230c      	movs	r3, #12
 8001f62:	4013      	ands	r3, r2
 8001f64:	2b08      	cmp	r3, #8
 8001f66:	d023      	beq.n	8001fb0 <HAL_RCC_ClockConfig+0x114>
        if((HAL_GetTick() - tickstart ) > CLOCKSWITCH_TIMEOUT_VALUE)
 8001f68:	f7ff fa62 	bl	8001430 <HAL_GetTick>
 8001f6c:	1b80      	subs	r0, r0, r6
 8001f6e:	4b30      	ldr	r3, [pc, #192]	; (8002030 <HAL_RCC_ClockConfig+0x194>)
 8001f70:	4298      	cmp	r0, r3
 8001f72:	d9f3      	bls.n	8001f5c <HAL_RCC_ClockConfig+0xc0>
          return HAL_TIMEOUT;
 8001f74:	2003      	movs	r0, #3
 8001f76:	e051      	b.n	800201c <HAL_RCC_ClockConfig+0x180>
      while (__HAL_RCC_GET_SYSCLK_SOURCE() != RCC_SYSCLKSOURCE_STATUS_PLLCLK)
 8001f78:	4b2c      	ldr	r3, [pc, #176]	; (800202c <HAL_RCC_ClockConfig+0x190>)
 8001f7a:	68da      	ldr	r2, [r3, #12]
 8001f7c:	230c      	movs	r3, #12
 8001f7e:	4013      	ands	r3, r2
 8001f80:	2b0c      	cmp	r3, #12
 8001f82:	d015      	beq.n	8001fb0 <HAL_RCC_ClockConfig+0x114>
        if((HAL_GetTick() - tickstart ) > CLOCKSWITCH_TIMEOUT_VALUE)
 8001f84:	f7ff fa54 	bl	8001430 <HAL_GetTick>
 8001f88:	1b80      	subs	r0, r0, r6
 8001f8a:	4b29      	ldr	r3, [pc, #164]	; (8002030 <HAL_RCC_ClockConfig+0x194>)
 8001f8c:	4298      	cmp	r0, r3
 8001f8e:	d9f3      	bls.n	8001f78 <HAL_RCC_ClockConfig+0xdc>
          return HAL_TIMEOUT;
 8001f90:	2003      	movs	r0, #3
 8001f92:	e043      	b.n	800201c <HAL_RCC_ClockConfig+0x180>
      while (__HAL_RCC_GET_SYSCLK_SOURCE() != RCC_SYSCLKSOURCE_STATUS_HSI)
 8001f94:	4b25      	ldr	r3, [pc, #148]	; (800202c <HAL_RCC_ClockConfig+0x190>)
 8001f96:	68da      	ldr	r2, [r3, #12]
 8001f98:	230c      	movs	r3, #12
 8001f9a:	4013      	ands	r3, r2
 8001f9c:	2b04      	cmp	r3, #4
 8001f9e:	d007      	beq.n	8001fb0 <HAL_RCC_ClockConfig+0x114>
        if((HAL_GetTick() - tickstart ) > CLOCKSWITCH_TIMEOUT_VALUE)
 8001fa0:	f7ff fa46 	bl	8001430 <HAL_GetTick>
 8001fa4:	1b80      	subs	r0, r0, r6
 8001fa6:	4b22      	ldr	r3, [pc, #136]	; (8002030 <HAL_RCC_ClockConfig+0x194>)
 8001fa8:	4298      	cmp	r0, r3
 8001faa:	d9f3      	bls.n	8001f94 <HAL_RCC_ClockConfig+0xf8>
          return HAL_TIMEOUT;
 8001fac:	2003      	movs	r0, #3
 8001fae:	e035      	b.n	800201c <HAL_RCC_ClockConfig+0x180>
  if(FLatency < __HAL_FLASH_GET_LATENCY())
 8001fb0:	4b1d      	ldr	r3, [pc, #116]	; (8002028 <HAL_RCC_ClockConfig+0x18c>)
 8001fb2:	681a      	ldr	r2, [r3, #0]
 8001fb4:	2301      	movs	r3, #1
 8001fb6:	4013      	ands	r3, r2
 8001fb8:	429d      	cmp	r5, r3
 8001fba:	d20b      	bcs.n	8001fd4 <HAL_RCC_ClockConfig+0x138>
    __HAL_FLASH_SET_LATENCY(FLatency);
 8001fbc:	491a      	ldr	r1, [pc, #104]	; (8002028 <HAL_RCC_ClockConfig+0x18c>)
 8001fbe:	680b      	ldr	r3, [r1, #0]
 8001fc0:	2201      	movs	r2, #1
 8001fc2:	4393      	bics	r3, r2
 8001fc4:	432b      	orrs	r3, r5
 8001fc6:	600b      	str	r3, [r1, #0]
    if(__HAL_FLASH_GET_LATENCY() != FLatency)
 8001fc8:	680b      	ldr	r3, [r1, #0]
 8001fca:	401a      	ands	r2, r3
 8001fcc:	4295      	cmp	r5, r2
 8001fce:	d001      	beq.n	8001fd4 <HAL_RCC_ClockConfig+0x138>
      return HAL_ERROR;
 8001fd0:	2001      	movs	r0, #1
 8001fd2:	e023      	b.n	800201c <HAL_RCC_ClockConfig+0x180>
  if(((RCC_ClkInitStruct->ClockType) & RCC_CLOCKTYPE_PCLK1) == RCC_CLOCKTYPE_PCLK1)
 8001fd4:	6823      	ldr	r3, [r4, #0]
 8001fd6:	075b      	lsls	r3, r3, #29
 8001fd8:	d506      	bpl.n	8001fe8 <HAL_RCC_ClockConfig+0x14c>
    MODIFY_REG(RCC->CFGR, RCC_CFGR_PPRE1, RCC_ClkInitStruct->APB1CLKDivider);
 8001fda:	4a14      	ldr	r2, [pc, #80]	; (800202c <HAL_RCC_ClockConfig+0x190>)
 8001fdc:	68d3      	ldr	r3, [r2, #12]
 8001fde:	4915      	ldr	r1, [pc, #84]	; (8002034 <HAL_RCC_ClockConfig+0x198>)
 8001fe0:	400b      	ands	r3, r1
 8001fe2:	68e1      	ldr	r1, [r4, #12]
 8001fe4:	430b      	orrs	r3, r1
 8001fe6:	60d3      	str	r3, [r2, #12]
  if(((RCC_ClkInitStruct->ClockType) & RCC_CLOCKTYPE_PCLK2) == RCC_CLOCKTYPE_PCLK2)
 8001fe8:	6823      	ldr	r3, [r4, #0]
 8001fea:	071b      	lsls	r3, r3, #28
 8001fec:	d507      	bpl.n	8001ffe <HAL_RCC_ClockConfig+0x162>
    MODIFY_REG(RCC->CFGR, RCC_CFGR_PPRE2, ((RCC_ClkInitStruct->APB2CLKDivider) << 3));
 8001fee:	490f      	ldr	r1, [pc, #60]	; (800202c <HAL_RCC_ClockConfig+0x190>)
 8001ff0:	68cb      	ldr	r3, [r1, #12]
 8001ff2:	4a11      	ldr	r2, [pc, #68]	; (8002038 <HAL_RCC_ClockConfig+0x19c>)
 8001ff4:	4013      	ands	r3, r2
 8001ff6:	6922      	ldr	r2, [r4, #16]
 8001ff8:	00d2      	lsls	r2, r2, #3
 8001ffa:	4313      	orrs	r3, r2
 8001ffc:	60cb      	str	r3, [r1, #12]
  SystemCoreClock = HAL_RCC_GetSysClockFreq() >> AHBPrescTable[(RCC->CFGR & RCC_CFGR_HPRE)>> RCC_CFGR_HPRE_Pos];
 8001ffe:	f7ff fc41 	bl	8001884 <HAL_RCC_GetSysClockFreq>
 8002002:	4b0a      	ldr	r3, [pc, #40]	; (800202c <HAL_RCC_ClockConfig+0x190>)
 8002004:	68da      	ldr	r2, [r3, #12]
 8002006:	0912      	lsrs	r2, r2, #4
 8002008:	230f      	movs	r3, #15
 800200a:	4013      	ands	r3, r2
 800200c:	4a0b      	ldr	r2, [pc, #44]	; (800203c <HAL_RCC_ClockConfig+0x1a0>)
 800200e:	5cd3      	ldrb	r3, [r2, r3]
 8002010:	40d8      	lsrs	r0, r3
 8002012:	4b0b      	ldr	r3, [pc, #44]	; (8002040 <HAL_RCC_ClockConfig+0x1a4>)
 8002014:	6018      	str	r0, [r3, #0]
  status = HAL_InitTick(TICK_INT_PRIORITY);
 8002016:	2000      	movs	r0, #0
 8002018:	f7ff f9de 	bl	80013d8 <HAL_InitTick>
}
 800201c:	bd70      	pop	{r4, r5, r6, pc}
    return HAL_ERROR;
 800201e:	2001      	movs	r0, #1
 8002020:	e7fc      	b.n	800201c <HAL_RCC_ClockConfig+0x180>
        return HAL_ERROR;
 8002022:	2001      	movs	r0, #1
 8002024:	e7fa      	b.n	800201c <HAL_RCC_ClockConfig+0x180>
 8002026:	46c0      	nop			; (mov r8, r8)
 8002028:	40022000 	.word	0x40022000
 800202c:	40021000 	.word	0x40021000
 8002030:	00001388 	.word	0x00001388
 8002034:	fffff8ff 	.word	0xfffff8ff
 8002038:	ffffc7ff 	.word	0xffffc7ff
 800203c:	08004480 	.word	0x08004480
 8002040:	20000000 	.word	0x20000000

08002044 <HAL_RCC_GetHCLKFreq>:
  *         and updated within this function
  * @retval HCLK frequency
  */
uint32_t HAL_RCC_GetHCLKFreq(void)
{
  return SystemCoreClock;
 8002044:	4b01      	ldr	r3, [pc, #4]	; (800204c <HAL_RCC_GetHCLKFreq+0x8>)
 8002046:	6818      	ldr	r0, [r3, #0]
}
 8002048:	4770      	bx	lr
 800204a:	46c0      	nop			; (mov r8, r8)
 800204c:	20000000 	.word	0x20000000

08002050 <HAL_RCC_GetPCLK1Freq>:
  * @note   Each time PCLK1 changes, this function must be called to update the
  *         right PCLK1 value. Otherwise, any configuration based on this function will be incorrect.
  * @retval PCLK1 frequency
  */
uint32_t HAL_RCC_GetPCLK1Freq(void)
{
 8002050:	b510      	push	{r4, lr}
  /* Get HCLK source and Compute PCLK1 frequency ---------------------------*/
  return (HAL_RCC_GetHCLKFreq() >> APBPrescTable[(RCC->CFGR & RCC_CFGR_PPRE1) >> RCC_CFGR_PPRE1_Pos]);
 8002052:	f7ff fff7 	bl	8002044 <HAL_RCC_GetHCLKFreq>
 8002056:	4b04      	ldr	r3, [pc, #16]	; (8002068 <HAL_RCC_GetPCLK1Freq+0x18>)
 8002058:	68da      	ldr	r2, [r3, #12]
 800205a:	0a12      	lsrs	r2, r2, #8
 800205c:	2307      	movs	r3, #7
 800205e:	4013      	ands	r3, r2
 8002060:	4a02      	ldr	r2, [pc, #8]	; (800206c <HAL_RCC_GetPCLK1Freq+0x1c>)
 8002062:	5cd3      	ldrb	r3, [r2, r3]
 8002064:	40d8      	lsrs	r0, r3
}
 8002066:	bd10      	pop	{r4, pc}
 8002068:	40021000 	.word	0x40021000
 800206c:	08004490 	.word	0x08004490

08002070 <HAL_RCC_GetPCLK2Freq>:
  * @note   Each time PCLK2 changes, this function must be called to update the
  *         right PCLK2 value. Otherwise, any configuration based on this function will be incorrect.
  * @retval PCLK2 frequency
  */
uint32_t HAL_RCC_GetPCLK2Freq(void)
{
 8002070:	b510      	push	{r4, lr}
  /* Get HCLK source and Compute PCLK2 frequency ---------------------------*/
  return (HAL_RCC_GetHCLKFreq()>> APBPrescTable[(RCC->CFGR & RCC_CFGR_PPRE2) >> RCC_CFGR_PPRE2_Pos]);
 8002072:	f7ff ffe7 	bl	8002044 <HAL_RCC_GetHCLKFreq>
 8002076:	4b04      	ldr	r3, [pc, #16]	; (8002088 <HAL_RCC_GetPCLK2Freq+0x18>)
 8002078:	68da      	ldr	r2, [r3, #12]
 800207a:	0ad2      	lsrs	r2, r2, #11
 800207c:	2307      	movs	r3, #7
 800207e:	4013      	ands	r3, r2
 8002080:	4a02      	ldr	r2, [pc, #8]	; (800208c <HAL_RCC_GetPCLK2Freq+0x1c>)
 8002082:	5cd3      	ldrb	r3, [r2, r3]
 8002084:	40d8      	lsrs	r0, r3
}
 8002086:	bd10      	pop	{r4, pc}
 8002088:	40021000 	.word	0x40021000
 800208c:	08004490 	.word	0x08004490

08002090 <HAL_RCCEx_PeriphCLKConfig>:
  * @retval HAL status
  * @note   If HAL_ERROR returned, first switch-OFF HSE clock oscillator with @ref HAL_RCC_OscConfig()
  *         to possibly update HSE divider.
  */
HAL_StatusTypeDef HAL_RCCEx_PeriphCLKConfig(RCC_PeriphCLKInitTypeDef  *PeriphClkInit)
{
 8002090:	b570      	push	{r4, r5, r6, lr}
 8002092:	0004      	movs	r4, r0
  assert_param(IS_RCC_PERIPHCLOCK(PeriphClkInit->PeriphClockSelection));

  /*------------------------------- RTC/LCD Configuration ------------------------*/
  if ((((PeriphClkInit->PeriphClockSelection) & RCC_PERIPHCLK_RTC) == RCC_PERIPHCLK_RTC)
#if defined(LCD)
   || (((PeriphClkInit->PeriphClockSelection) & RCC_PERIPHCLK_LCD) == RCC_PERIPHCLK_LCD)
 8002094:	2382      	movs	r3, #130	; 0x82
 8002096:	011b      	lsls	r3, r3, #4
  if ((((PeriphClkInit->PeriphClockSelection) & RCC_PERIPHCLK_RTC) == RCC_PERIPHCLK_RTC)
 8002098:	6802      	ldr	r2, [r0, #0]
 800209a:	421a      	tst	r2, r3
 800209c:	d05a      	beq.n	8002154 <HAL_RCCEx_PeriphCLKConfig+0xc4>
    FlagStatus       pwrclkchanged = RESET;

    /* As soon as function is called to change RTC clock source, activation of the
       power domain is done. */
    /* Requires to enable write access to Backup Domain of necessary */
    if(__HAL_RCC_PWR_IS_CLK_DISABLED())
 800209e:	4b75      	ldr	r3, [pc, #468]	; (8002274 <HAL_RCCEx_PeriphCLKConfig+0x1e4>)
 80020a0:	6b9b      	ldr	r3, [r3, #56]	; 0x38
 80020a2:	00db      	lsls	r3, r3, #3
 80020a4:	d500      	bpl.n	80020a8 <HAL_RCCEx_PeriphCLKConfig+0x18>
 80020a6:	e09d      	b.n	80021e4 <HAL_RCCEx_PeriphCLKConfig+0x154>
    {
      __HAL_RCC_PWR_CLK_ENABLE();
 80020a8:	4a72      	ldr	r2, [pc, #456]	; (8002274 <HAL_RCCEx_PeriphCLKConfig+0x1e4>)
 80020aa:	6b91      	ldr	r1, [r2, #56]	; 0x38
 80020ac:	2380      	movs	r3, #128	; 0x80
 80020ae:	055b      	lsls	r3, r3, #21
 80020b0:	430b      	orrs	r3, r1
 80020b2:	6393      	str	r3, [r2, #56]	; 0x38
      pwrclkchanged = SET;
 80020b4:	2501      	movs	r5, #1
    }

    if(HAL_IS_BIT_CLR(PWR->CR, PWR_CR_DBP))
 80020b6:	4b70      	ldr	r3, [pc, #448]	; (8002278 <HAL_RCCEx_PeriphCLKConfig+0x1e8>)
 80020b8:	681b      	ldr	r3, [r3, #0]
 80020ba:	05db      	lsls	r3, r3, #23
 80020bc:	d400      	bmi.n	80020c0 <HAL_RCCEx_PeriphCLKConfig+0x30>
 80020be:	e093      	b.n	80021e8 <HAL_RCCEx_PeriphCLKConfig+0x158>
        }
      }
    }

    /* Check if user wants to change HSE RTC prescaler whereas HSE is enabled */
    temp_reg = (RCC->CR & RCC_CR_RTCPRE);
 80020c0:	4b6c      	ldr	r3, [pc, #432]	; (8002274 <HAL_RCCEx_PeriphCLKConfig+0x1e4>)
 80020c2:	681a      	ldr	r2, [r3, #0]
 80020c4:	23c0      	movs	r3, #192	; 0xc0
 80020c6:	039b      	lsls	r3, r3, #14
 80020c8:	401a      	ands	r2, r3
    if ((temp_reg != (PeriphClkInit->RTCClockSelection & RCC_CR_RTCPRE))
 80020ca:	6861      	ldr	r1, [r4, #4]
 80020cc:	400b      	ands	r3, r1
 80020ce:	429a      	cmp	r2, r3
 80020d0:	d100      	bne.n	80020d4 <HAL_RCCEx_PeriphCLKConfig+0x44>
 80020d2:	e09e      	b.n	8002212 <HAL_RCCEx_PeriphCLKConfig+0x182>
#if defined (LCD)
     || (temp_reg != (PeriphClkInit->LCDClockSelection & RCC_CR_RTCPRE))
#endif /* LCD */
       )
    { /* Check HSE State */
      if ((PeriphClkInit->RTCClockSelection & RCC_CSR_RTCSEL) == RCC_CSR_RTCSEL_HSE)
 80020d4:	23c0      	movs	r3, #192	; 0xc0
 80020d6:	029b      	lsls	r3, r3, #10
 80020d8:	000a      	movs	r2, r1
 80020da:	401a      	ands	r2, r3
 80020dc:	429a      	cmp	r2, r3
 80020de:	d100      	bne.n	80020e2 <HAL_RCCEx_PeriphCLKConfig+0x52>
 80020e0:	e09f      	b.n	8002222 <HAL_RCCEx_PeriphCLKConfig+0x192>
        }
      }
    }

    /* Reset the Backup domain only if the RTC Clock source selection is modified from reset value */
    temp_reg = (RCC->CSR & RCC_CSR_RTCSEL);
 80020e2:	4b64      	ldr	r3, [pc, #400]	; (8002274 <HAL_RCCEx_PeriphCLKConfig+0x1e4>)
 80020e4:	6d1b      	ldr	r3, [r3, #80]	; 0x50
 80020e6:	22c0      	movs	r2, #192	; 0xc0
 80020e8:	0292      	lsls	r2, r2, #10
 80020ea:	4013      	ands	r3, r2

    if((temp_reg != 0x00000000U) && (((temp_reg != (PeriphClkInit->RTCClockSelection & RCC_CSR_RTCSEL)) \
 80020ec:	d01f      	beq.n	800212e <HAL_RCCEx_PeriphCLKConfig+0x9e>
 80020ee:	4011      	ands	r1, r2
 80020f0:	428b      	cmp	r3, r1
 80020f2:	d002      	beq.n	80020fa <HAL_RCCEx_PeriphCLKConfig+0x6a>
      && (((PeriphClkInit->PeriphClockSelection) & RCC_PERIPHCLK_RTC) == RCC_PERIPHCLK_RTC))
 80020f4:	6822      	ldr	r2, [r4, #0]
 80020f6:	0692      	lsls	r2, r2, #26
 80020f8:	d408      	bmi.n	800210c <HAL_RCCEx_PeriphCLKConfig+0x7c>
#if defined(LCD)
      || ((temp_reg != (PeriphClkInit->LCDClockSelection & RCC_CSR_RTCSEL)) \
 80020fa:	22c0      	movs	r2, #192	; 0xc0
 80020fc:	0292      	lsls	r2, r2, #10
 80020fe:	68a1      	ldr	r1, [r4, #8]
 8002100:	400a      	ands	r2, r1
 8002102:	4293      	cmp	r3, r2
 8002104:	d013      	beq.n	800212e <HAL_RCCEx_PeriphCLKConfig+0x9e>
       && (((PeriphClkInit->PeriphClockSelection) & RCC_PERIPHCLK_LCD) == RCC_PERIPHCLK_LCD))
 8002106:	6823      	ldr	r3, [r4, #0]
 8002108:	051b      	lsls	r3, r3, #20
 800210a:	d510      	bpl.n	800212e <HAL_RCCEx_PeriphCLKConfig+0x9e>
#endif /* LCD */
     ))
    {
      /* Store the content of CSR register before the reset of Backup Domain */
      temp_reg = (RCC->CSR & ~(RCC_CSR_RTCSEL));
 800210c:	4b59      	ldr	r3, [pc, #356]	; (8002274 <HAL_RCCEx_PeriphCLKConfig+0x1e4>)
 800210e:	6d18      	ldr	r0, [r3, #80]	; 0x50
 8002110:	4a5a      	ldr	r2, [pc, #360]	; (800227c <HAL_RCCEx_PeriphCLKConfig+0x1ec>)
 8002112:	4002      	ands	r2, r0

      /* RTC Clock selection can be changed only if the Backup Domain is reset */
      __HAL_RCC_BACKUPRESET_FORCE();
 8002114:	6d1e      	ldr	r6, [r3, #80]	; 0x50
 8002116:	2180      	movs	r1, #128	; 0x80
 8002118:	0309      	lsls	r1, r1, #12
 800211a:	4331      	orrs	r1, r6
 800211c:	6519      	str	r1, [r3, #80]	; 0x50
      __HAL_RCC_BACKUPRESET_RELEASE();
 800211e:	6d19      	ldr	r1, [r3, #80]	; 0x50
 8002120:	4e57      	ldr	r6, [pc, #348]	; (8002280 <HAL_RCCEx_PeriphCLKConfig+0x1f0>)
 8002122:	4031      	ands	r1, r6
 8002124:	6519      	str	r1, [r3, #80]	; 0x50

      /* Restore the Content of CSR register */
      RCC->CSR = temp_reg;
 8002126:	651a      	str	r2, [r3, #80]	; 0x50

       /* Wait for LSERDY if LSE was enabled */
      if (HAL_IS_BIT_SET(temp_reg, RCC_CSR_LSEON))
 8002128:	05c3      	lsls	r3, r0, #23
 800212a:	d500      	bpl.n	800212e <HAL_RCCEx_PeriphCLKConfig+0x9e>
 800212c:	e080      	b.n	8002230 <HAL_RCCEx_PeriphCLKConfig+0x1a0>
            return HAL_TIMEOUT;
          }
        }
      }
    }
    __HAL_RCC_RTC_CONFIG(PeriphClkInit->RTCClockSelection);
 800212e:	6862      	ldr	r2, [r4, #4]
 8002130:	23c0      	movs	r3, #192	; 0xc0
 8002132:	029b      	lsls	r3, r3, #10
 8002134:	0011      	movs	r1, r2
 8002136:	4019      	ands	r1, r3
 8002138:	4299      	cmp	r1, r3
 800213a:	d100      	bne.n	800213e <HAL_RCCEx_PeriphCLKConfig+0xae>
 800213c:	e088      	b.n	8002250 <HAL_RCCEx_PeriphCLKConfig+0x1c0>
 800213e:	494d      	ldr	r1, [pc, #308]	; (8002274 <HAL_RCCEx_PeriphCLKConfig+0x1e4>)
 8002140:	6d0b      	ldr	r3, [r1, #80]	; 0x50
 8002142:	22c0      	movs	r2, #192	; 0xc0
 8002144:	0292      	lsls	r2, r2, #10
 8002146:	6860      	ldr	r0, [r4, #4]
 8002148:	4002      	ands	r2, r0
 800214a:	4313      	orrs	r3, r2
 800214c:	650b      	str	r3, [r1, #80]	; 0x50

    /* Require to disable power clock if necessary */
    if(pwrclkchanged == SET)
 800214e:	2d01      	cmp	r5, #1
 8002150:	d100      	bne.n	8002154 <HAL_RCCEx_PeriphCLKConfig+0xc4>
 8002152:	e087      	b.n	8002264 <HAL_RCCEx_PeriphCLKConfig+0x1d4>
    }
  }

#if defined (RCC_CCIPR_USART1SEL)
  /*------------------------------- USART1 Configuration ------------------------*/
  if(((PeriphClkInit->PeriphClockSelection) & RCC_PERIPHCLK_USART1) == RCC_PERIPHCLK_USART1)
 8002154:	6823      	ldr	r3, [r4, #0]
 8002156:	07db      	lsls	r3, r3, #31
 8002158:	d506      	bpl.n	8002168 <HAL_RCCEx_PeriphCLKConfig+0xd8>
  {
    /* Check the parameters */
    assert_param(IS_RCC_USART1CLKSOURCE(PeriphClkInit->Usart1ClockSelection));

    /* Configure the USART1 clock source */
    __HAL_RCC_USART1_CONFIG(PeriphClkInit->Usart1ClockSelection);
 800215a:	4a46      	ldr	r2, [pc, #280]	; (8002274 <HAL_RCCEx_PeriphCLKConfig+0x1e4>)
 800215c:	6cd3      	ldr	r3, [r2, #76]	; 0x4c
 800215e:	2103      	movs	r1, #3
 8002160:	438b      	bics	r3, r1
 8002162:	68e1      	ldr	r1, [r4, #12]
 8002164:	430b      	orrs	r3, r1
 8002166:	64d3      	str	r3, [r2, #76]	; 0x4c
  }
#endif /* RCC_CCIPR_USART1SEL */

  /*----------------------------- USART2 Configuration --------------------------*/
  if(((PeriphClkInit->PeriphClockSelection) & RCC_PERIPHCLK_USART2) == RCC_PERIPHCLK_USART2)
 8002168:	6823      	ldr	r3, [r4, #0]
 800216a:	079b      	lsls	r3, r3, #30
 800216c:	d506      	bpl.n	800217c <HAL_RCCEx_PeriphCLKConfig+0xec>
  {
    /* Check the parameters */
    assert_param(IS_RCC_USART2CLKSOURCE(PeriphClkInit->Usart2ClockSelection));

    /* Configure the USART2 clock source */
    __HAL_RCC_USART2_CONFIG(PeriphClkInit->Usart2ClockSelection);
 800216e:	4a41      	ldr	r2, [pc, #260]	; (8002274 <HAL_RCCEx_PeriphCLKConfig+0x1e4>)
 8002170:	6cd3      	ldr	r3, [r2, #76]	; 0x4c
 8002172:	210c      	movs	r1, #12
 8002174:	438b      	bics	r3, r1
 8002176:	6921      	ldr	r1, [r4, #16]
 8002178:	430b      	orrs	r3, r1
 800217a:	64d3      	str	r3, [r2, #76]	; 0x4c
  }

  /*------------------------------ LPUART1 Configuration ------------------------*/
  if(((PeriphClkInit->PeriphClockSelection) & RCC_PERIPHCLK_LPUART1) == RCC_PERIPHCLK_LPUART1)
 800217c:	6823      	ldr	r3, [r4, #0]
 800217e:	075b      	lsls	r3, r3, #29
 8002180:	d506      	bpl.n	8002190 <HAL_RCCEx_PeriphCLKConfig+0x100>
  {
    /* Check the parameters */
    assert_param(IS_RCC_LPUART1CLKSOURCE(PeriphClkInit->Lpuart1ClockSelection));

    /* Configure the LPUAR1 clock source */
    __HAL_RCC_LPUART1_CONFIG(PeriphClkInit->Lpuart1ClockSelection);
 8002182:	4a3c      	ldr	r2, [pc, #240]	; (8002274 <HAL_RCCEx_PeriphCLKConfig+0x1e4>)
 8002184:	6cd3      	ldr	r3, [r2, #76]	; 0x4c
 8002186:	493f      	ldr	r1, [pc, #252]	; (8002284 <HAL_RCCEx_PeriphCLKConfig+0x1f4>)
 8002188:	400b      	ands	r3, r1
 800218a:	6961      	ldr	r1, [r4, #20]
 800218c:	430b      	orrs	r3, r1
 800218e:	64d3      	str	r3, [r2, #76]	; 0x4c
  }

  /*------------------------------ I2C1 Configuration ------------------------*/
  if(((PeriphClkInit->PeriphClockSelection) & RCC_PERIPHCLK_I2C1) == RCC_PERIPHCLK_I2C1)
 8002190:	6823      	ldr	r3, [r4, #0]
 8002192:	071b      	lsls	r3, r3, #28
 8002194:	d506      	bpl.n	80021a4 <HAL_RCCEx_PeriphCLKConfig+0x114>
  {
    /* Check the parameters */
    assert_param(IS_RCC_I2C1CLKSOURCE(PeriphClkInit->I2c1ClockSelection));

    /* Configure the I2C1 clock source */
    __HAL_RCC_I2C1_CONFIG(PeriphClkInit->I2c1ClockSelection);
 8002196:	4a37      	ldr	r2, [pc, #220]	; (8002274 <HAL_RCCEx_PeriphCLKConfig+0x1e4>)
 8002198:	6cd3      	ldr	r3, [r2, #76]	; 0x4c
 800219a:	493b      	ldr	r1, [pc, #236]	; (8002288 <HAL_RCCEx_PeriphCLKConfig+0x1f8>)
 800219c:	400b      	ands	r3, r1
 800219e:	69a1      	ldr	r1, [r4, #24]
 80021a0:	430b      	orrs	r3, r1
 80021a2:	64d3      	str	r3, [r2, #76]	; 0x4c
  }

#if defined (RCC_CCIPR_I2C3SEL)
    /*------------------------------ I2C3 Configuration ------------------------*/
  if(((PeriphClkInit->PeriphClockSelection) & RCC_PERIPHCLK_I2C3) == RCC_PERIPHCLK_I2C3)
 80021a4:	6823      	ldr	r3, [r4, #0]
 80021a6:	05db      	lsls	r3, r3, #23
 80021a8:	d506      	bpl.n	80021b8 <HAL_RCCEx_PeriphCLKConfig+0x128>
  {
    /* Check the parameters */
    assert_param(IS_RCC_I2C3CLKSOURCE(PeriphClkInit->I2c3ClockSelection));

    /* Configure the I2C3 clock source */
    __HAL_RCC_I2C3_CONFIG(PeriphClkInit->I2c3ClockSelection);
 80021aa:	4a32      	ldr	r2, [pc, #200]	; (8002274 <HAL_RCCEx_PeriphCLKConfig+0x1e4>)
 80021ac:	6cd3      	ldr	r3, [r2, #76]	; 0x4c
 80021ae:	4933      	ldr	r1, [pc, #204]	; (800227c <HAL_RCCEx_PeriphCLKConfig+0x1ec>)
 80021b0:	400b      	ands	r3, r1
 80021b2:	69e1      	ldr	r1, [r4, #28]
 80021b4:	430b      	orrs	r3, r1
 80021b6:	64d3      	str	r3, [r2, #76]	; 0x4c
  }
#endif /* RCC_CCIPR_I2C3SEL */

#if defined(USB)
 /*---------------------------- USB and RNG configuration --------------------*/
  if(((PeriphClkInit->PeriphClockSelection) & RCC_PERIPHCLK_USB) == (RCC_PERIPHCLK_USB))
 80021b8:	6823      	ldr	r3, [r4, #0]
 80021ba:	065b      	lsls	r3, r3, #25
 80021bc:	d506      	bpl.n	80021cc <HAL_RCCEx_PeriphCLKConfig+0x13c>
  {
    assert_param(IS_RCC_USBCLKSOURCE(PeriphClkInit->UsbClockSelection));
    __HAL_RCC_USB_CONFIG(PeriphClkInit->UsbClockSelection);
 80021be:	4a2d      	ldr	r2, [pc, #180]	; (8002274 <HAL_RCCEx_PeriphCLKConfig+0x1e4>)
 80021c0:	6cd3      	ldr	r3, [r2, #76]	; 0x4c
 80021c2:	4932      	ldr	r1, [pc, #200]	; (800228c <HAL_RCCEx_PeriphCLKConfig+0x1fc>)
 80021c4:	400b      	ands	r3, r1
 80021c6:	6a61      	ldr	r1, [r4, #36]	; 0x24
 80021c8:	430b      	orrs	r3, r1
 80021ca:	64d3      	str	r3, [r2, #76]	; 0x4c
  }
#endif /* USB */

  /*---------------------------- LPTIM1 configuration ------------------------*/
  if(((PeriphClkInit->PeriphClockSelection) & RCC_PERIPHCLK_LPTIM1) == (RCC_PERIPHCLK_LPTIM1))
 80021cc:	6823      	ldr	r3, [r4, #0]
 80021ce:	061b      	lsls	r3, r3, #24
 80021d0:	d54e      	bpl.n	8002270 <HAL_RCCEx_PeriphCLKConfig+0x1e0>
  {
    assert_param(IS_RCC_LPTIMCLK(PeriphClkInit->LptimClockSelection));
    __HAL_RCC_LPTIM1_CONFIG(PeriphClkInit->LptimClockSelection);
 80021d2:	4a28      	ldr	r2, [pc, #160]	; (8002274 <HAL_RCCEx_PeriphCLKConfig+0x1e4>)
 80021d4:	6cd3      	ldr	r3, [r2, #76]	; 0x4c
 80021d6:	492e      	ldr	r1, [pc, #184]	; (8002290 <HAL_RCCEx_PeriphCLKConfig+0x200>)
 80021d8:	400b      	ands	r3, r1
 80021da:	6a21      	ldr	r1, [r4, #32]
 80021dc:	430b      	orrs	r3, r1
 80021de:	64d3      	str	r3, [r2, #76]	; 0x4c
  }

  return HAL_OK;
 80021e0:	2000      	movs	r0, #0
}
 80021e2:	bd70      	pop	{r4, r5, r6, pc}
    FlagStatus       pwrclkchanged = RESET;
 80021e4:	2500      	movs	r5, #0
 80021e6:	e766      	b.n	80020b6 <HAL_RCCEx_PeriphCLKConfig+0x26>
      SET_BIT(PWR->CR, PWR_CR_DBP);
 80021e8:	4a23      	ldr	r2, [pc, #140]	; (8002278 <HAL_RCCEx_PeriphCLKConfig+0x1e8>)
 80021ea:	6811      	ldr	r1, [r2, #0]
 80021ec:	2380      	movs	r3, #128	; 0x80
 80021ee:	005b      	lsls	r3, r3, #1
 80021f0:	430b      	orrs	r3, r1
 80021f2:	6013      	str	r3, [r2, #0]
      tickstart = HAL_GetTick();
 80021f4:	f7ff f91c 	bl	8001430 <HAL_GetTick>
 80021f8:	0006      	movs	r6, r0
      while(HAL_IS_BIT_CLR(PWR->CR, PWR_CR_DBP))
 80021fa:	4b1f      	ldr	r3, [pc, #124]	; (8002278 <HAL_RCCEx_PeriphCLKConfig+0x1e8>)
 80021fc:	681b      	ldr	r3, [r3, #0]
 80021fe:	05db      	lsls	r3, r3, #23
 8002200:	d500      	bpl.n	8002204 <HAL_RCCEx_PeriphCLKConfig+0x174>
 8002202:	e75d      	b.n	80020c0 <HAL_RCCEx_PeriphCLKConfig+0x30>
        if((HAL_GetTick() - tickstart) > RCC_DBP_TIMEOUT_VALUE)
 8002204:	f7ff f914 	bl	8001430 <HAL_GetTick>
 8002208:	1b80      	subs	r0, r0, r6
 800220a:	2864      	cmp	r0, #100	; 0x64
 800220c:	d9f5      	bls.n	80021fa <HAL_RCCEx_PeriphCLKConfig+0x16a>
          return HAL_TIMEOUT;
 800220e:	2003      	movs	r0, #3
 8002210:	e7e7      	b.n	80021e2 <HAL_RCCEx_PeriphCLKConfig+0x152>
     || (temp_reg != (PeriphClkInit->LCDClockSelection & RCC_CR_RTCPRE))
 8002212:	23c0      	movs	r3, #192	; 0xc0
 8002214:	039b      	lsls	r3, r3, #14
 8002216:	68a0      	ldr	r0, [r4, #8]
 8002218:	4003      	ands	r3, r0
 800221a:	429a      	cmp	r2, r3
 800221c:	d000      	beq.n	8002220 <HAL_RCCEx_PeriphCLKConfig+0x190>
 800221e:	e759      	b.n	80020d4 <HAL_RCCEx_PeriphCLKConfig+0x44>
 8002220:	e75f      	b.n	80020e2 <HAL_RCCEx_PeriphCLKConfig+0x52>
        if (HAL_IS_BIT_SET(RCC->CR, RCC_CR_HSERDY))
 8002222:	4b14      	ldr	r3, [pc, #80]	; (8002274 <HAL_RCCEx_PeriphCLKConfig+0x1e4>)
 8002224:	681b      	ldr	r3, [r3, #0]
 8002226:	039b      	lsls	r3, r3, #14
 8002228:	d400      	bmi.n	800222c <HAL_RCCEx_PeriphCLKConfig+0x19c>
 800222a:	e75a      	b.n	80020e2 <HAL_RCCEx_PeriphCLKConfig+0x52>
          return HAL_ERROR;
 800222c:	2001      	movs	r0, #1
 800222e:	e7d8      	b.n	80021e2 <HAL_RCCEx_PeriphCLKConfig+0x152>
        tickstart = HAL_GetTick();
 8002230:	f7ff f8fe 	bl	8001430 <HAL_GetTick>
 8002234:	0006      	movs	r6, r0
        while(__HAL_RCC_GET_FLAG(RCC_FLAG_LSERDY) == 0U)
 8002236:	4b0f      	ldr	r3, [pc, #60]	; (8002274 <HAL_RCCEx_PeriphCLKConfig+0x1e4>)
 8002238:	6d1b      	ldr	r3, [r3, #80]	; 0x50
 800223a:	059b      	lsls	r3, r3, #22
 800223c:	d500      	bpl.n	8002240 <HAL_RCCEx_PeriphCLKConfig+0x1b0>
 800223e:	e776      	b.n	800212e <HAL_RCCEx_PeriphCLKConfig+0x9e>
          if((HAL_GetTick() - tickstart ) > RCC_LSE_TIMEOUT_VALUE)
 8002240:	f7ff f8f6 	bl	8001430 <HAL_GetTick>
 8002244:	1b80      	subs	r0, r0, r6
 8002246:	4b13      	ldr	r3, [pc, #76]	; (8002294 <HAL_RCCEx_PeriphCLKConfig+0x204>)
 8002248:	4298      	cmp	r0, r3
 800224a:	d9f4      	bls.n	8002236 <HAL_RCCEx_PeriphCLKConfig+0x1a6>
            return HAL_TIMEOUT;
 800224c:	2003      	movs	r0, #3
 800224e:	e7c8      	b.n	80021e2 <HAL_RCCEx_PeriphCLKConfig+0x152>
    __HAL_RCC_RTC_CONFIG(PeriphClkInit->RTCClockSelection);
 8002250:	4908      	ldr	r1, [pc, #32]	; (8002274 <HAL_RCCEx_PeriphCLKConfig+0x1e4>)
 8002252:	680b      	ldr	r3, [r1, #0]
 8002254:	4810      	ldr	r0, [pc, #64]	; (8002298 <HAL_RCCEx_PeriphCLKConfig+0x208>)
 8002256:	4003      	ands	r3, r0
 8002258:	20c0      	movs	r0, #192	; 0xc0
 800225a:	0380      	lsls	r0, r0, #14
 800225c:	4002      	ands	r2, r0
 800225e:	431a      	orrs	r2, r3
 8002260:	600a      	str	r2, [r1, #0]
 8002262:	e76c      	b.n	800213e <HAL_RCCEx_PeriphCLKConfig+0xae>
      __HAL_RCC_PWR_CLK_DISABLE();
 8002264:	000a      	movs	r2, r1
 8002266:	6b8b      	ldr	r3, [r1, #56]	; 0x38
 8002268:	490c      	ldr	r1, [pc, #48]	; (800229c <HAL_RCCEx_PeriphCLKConfig+0x20c>)
 800226a:	400b      	ands	r3, r1
 800226c:	6393      	str	r3, [r2, #56]	; 0x38
 800226e:	e771      	b.n	8002154 <HAL_RCCEx_PeriphCLKConfig+0xc4>
  return HAL_OK;
 8002270:	2000      	movs	r0, #0
 8002272:	e7b6      	b.n	80021e2 <HAL_RCCEx_PeriphCLKConfig+0x152>
 8002274:	40021000 	.word	0x40021000
 8002278:	40007000 	.word	0x40007000
 800227c:	fffcffff 	.word	0xfffcffff
 8002280:	fff7ffff 	.word	0xfff7ffff
 8002284:	fffff3ff 	.word	0xfffff3ff
 8002288:	ffffcfff 	.word	0xffffcfff
 800228c:	fbffffff 	.word	0xfbffffff
 8002290:	fff3ffff 	.word	0xfff3ffff
 8002294:	00001388 	.word	0x00001388
 8002298:	ffcfffff 	.word	0xffcfffff
 800229c:	efffffff 	.word	0xefffffff

080022a0 <TIM_Base_SetConfig>:
  * @retval None
  */
void TIM_Base_SetConfig(TIM_TypeDef *TIMx, TIM_Base_InitTypeDef *Structure)
{
  uint32_t tmpcr1;
  tmpcr1 = TIMx->CR1;
 80022a0:	6803      	ldr	r3, [r0, #0]

  /* Set TIM Time Base Unit parameters ---------------------------------------*/
  if (IS_TIM_COUNTER_MODE_SELECT_INSTANCE(TIMx))
 80022a2:	2280      	movs	r2, #128	; 0x80
 80022a4:	05d2      	lsls	r2, r2, #23
 80022a6:	4290      	cmp	r0, r2
 80022a8:	d025      	beq.n	80022f6 <TIM_Base_SetConfig+0x56>
 80022aa:	4a15      	ldr	r2, [pc, #84]	; (8002300 <TIM_Base_SetConfig+0x60>)
 80022ac:	4290      	cmp	r0, r2
 80022ae:	d022      	beq.n	80022f6 <TIM_Base_SetConfig+0x56>
 80022b0:	4a14      	ldr	r2, [pc, #80]	; (8002304 <TIM_Base_SetConfig+0x64>)
 80022b2:	4290      	cmp	r0, r2
 80022b4:	d01f      	beq.n	80022f6 <TIM_Base_SetConfig+0x56>
 80022b6:	4a14      	ldr	r2, [pc, #80]	; (8002308 <TIM_Base_SetConfig+0x68>)
 80022b8:	4290      	cmp	r0, r2
 80022ba:	d01c      	beq.n	80022f6 <TIM_Base_SetConfig+0x56>
    /* Select the Counter Mode */
    tmpcr1 &= ~(TIM_CR1_DIR | TIM_CR1_CMS);
    tmpcr1 |= Structure->CounterMode;
  }

  if (IS_TIM_CLOCK_DIVISION_INSTANCE(TIMx))
 80022bc:	2280      	movs	r2, #128	; 0x80
 80022be:	05d2      	lsls	r2, r2, #23
 80022c0:	4290      	cmp	r0, r2
 80022c2:	d008      	beq.n	80022d6 <TIM_Base_SetConfig+0x36>
 80022c4:	4a0e      	ldr	r2, [pc, #56]	; (8002300 <TIM_Base_SetConfig+0x60>)
 80022c6:	4290      	cmp	r0, r2
 80022c8:	d005      	beq.n	80022d6 <TIM_Base_SetConfig+0x36>
 80022ca:	4a0e      	ldr	r2, [pc, #56]	; (8002304 <TIM_Base_SetConfig+0x64>)
 80022cc:	4290      	cmp	r0, r2
 80022ce:	d002      	beq.n	80022d6 <TIM_Base_SetConfig+0x36>
 80022d0:	4a0d      	ldr	r2, [pc, #52]	; (8002308 <TIM_Base_SetConfig+0x68>)
 80022d2:	4290      	cmp	r0, r2
 80022d4:	d103      	bne.n	80022de <TIM_Base_SetConfig+0x3e>
  {
    /* Set the clock division */
    tmpcr1 &= ~TIM_CR1_CKD;
 80022d6:	4a0d      	ldr	r2, [pc, #52]	; (800230c <TIM_Base_SetConfig+0x6c>)
 80022d8:	4013      	ands	r3, r2
    tmpcr1 |= (uint32_t)Structure->ClockDivision;
 80022da:	68ca      	ldr	r2, [r1, #12]
 80022dc:	4313      	orrs	r3, r2
  }

  /* Set the auto-reload preload */
  MODIFY_REG(tmpcr1, TIM_CR1_ARPE, Structure->AutoReloadPreload);
 80022de:	2280      	movs	r2, #128	; 0x80
 80022e0:	4393      	bics	r3, r2
 80022e2:	690a      	ldr	r2, [r1, #16]
 80022e4:	4313      	orrs	r3, r2

  TIMx->CR1 = tmpcr1;
 80022e6:	6003      	str	r3, [r0, #0]

  /* Set the Autoreload value */
  TIMx->ARR = (uint32_t)Structure->Period ;
 80022e8:	688b      	ldr	r3, [r1, #8]
 80022ea:	62c3      	str	r3, [r0, #44]	; 0x2c

  /* Set the Prescaler value */
  TIMx->PSC = Structure->Prescaler;
 80022ec:	680b      	ldr	r3, [r1, #0]
 80022ee:	6283      	str	r3, [r0, #40]	; 0x28

  /* Generate an update event to reload the Prescaler
     and the repetition counter (only for advanced timer) value immediately */
  TIMx->EGR = TIM_EGR_UG;
 80022f0:	2301      	movs	r3, #1
 80022f2:	6143      	str	r3, [r0, #20]
}
 80022f4:	4770      	bx	lr
    tmpcr1 &= ~(TIM_CR1_DIR | TIM_CR1_CMS);
 80022f6:	2270      	movs	r2, #112	; 0x70
 80022f8:	4393      	bics	r3, r2
    tmpcr1 |= Structure->CounterMode;
 80022fa:	684a      	ldr	r2, [r1, #4]
 80022fc:	4313      	orrs	r3, r2
 80022fe:	e7dd      	b.n	80022bc <TIM_Base_SetConfig+0x1c>
 8002300:	40000400 	.word	0x40000400
 8002304:	40010800 	.word	0x40010800
 8002308:	40011400 	.word	0x40011400
 800230c:	fffffcff 	.word	0xfffffcff

08002310 <TIM_OC1_SetConfig>:
  * @param  TIMx to select the TIM peripheral
  * @param  OC_Config The ouput configuration structure
  * @retval None
  */
static void TIM_OC1_SetConfig(TIM_TypeDef *TIMx, TIM_OC_InitTypeDef *OC_Config)
{
 8002310:	b530      	push	{r4, r5, lr}
  uint32_t tmpccmrx;
  uint32_t tmpccer;
  uint32_t tmpcr2;

  /* Disable the Channel 1: Reset the CC1E Bit */
  TIMx->CCER &= ~TIM_CCER_CC1E;
 8002312:	6a03      	ldr	r3, [r0, #32]
 8002314:	2201      	movs	r2, #1
 8002316:	4393      	bics	r3, r2
 8002318:	6203      	str	r3, [r0, #32]

  /* Get the TIMx CCER register value */
  tmpccer = TIMx->CCER;
 800231a:	6a03      	ldr	r3, [r0, #32]
  /* Get the TIMx CR2 register value */
  tmpcr2 =  TIMx->CR2;
 800231c:	6844      	ldr	r4, [r0, #4]

  /* Get the TIMx CCMR1 register value */
  tmpccmrx = TIMx->CCMR1;
 800231e:	6982      	ldr	r2, [r0, #24]

  /* Reset the Output Compare Mode Bits */
  tmpccmrx &= ~TIM_CCMR1_OC1M;
  tmpccmrx &= ~TIM_CCMR1_CC1S;
 8002320:	2573      	movs	r5, #115	; 0x73
 8002322:	43aa      	bics	r2, r5
  /* Select the Output Compare Mode */
  tmpccmrx |= OC_Config->OCMode;
 8002324:	680d      	ldr	r5, [r1, #0]
 8002326:	432a      	orrs	r2, r5

  /* Reset the Output Polarity level */
  tmpccer &= ~TIM_CCER_CC1P;
 8002328:	2502      	movs	r5, #2
 800232a:	43ab      	bics	r3, r5
  /* Set the Output Compare Polarity */
  tmpccer |= OC_Config->OCPolarity;
 800232c:	688d      	ldr	r5, [r1, #8]
 800232e:	432b      	orrs	r3, r5

  /* Write to TIMx CR2 */
  TIMx->CR2 = tmpcr2;
 8002330:	6044      	str	r4, [r0, #4]

  /* Write to TIMx CCMR1 */
  TIMx->CCMR1 = tmpccmrx;
 8002332:	6182      	str	r2, [r0, #24]

  /* Set the Capture Compare Register value */
  TIMx->CCR1 = OC_Config->Pulse;
 8002334:	684a      	ldr	r2, [r1, #4]
 8002336:	6342      	str	r2, [r0, #52]	; 0x34

  /* Write to TIMx CCER */
  TIMx->CCER = tmpccer;
 8002338:	6203      	str	r3, [r0, #32]
}
 800233a:	bd30      	pop	{r4, r5, pc}

0800233c <TIM_OC2_SetConfig>:
  * @param  TIMx to select the TIM peripheral
  * @param  OC_Config The ouput configuration structure
  * @retval None
  */
static void TIM_OC2_SetConfig(TIM_TypeDef *TIMx, TIM_OC_InitTypeDef *OC_Config)
{
 800233c:	b530      	push	{r4, r5, lr}
  uint32_t tmpccmrx;
  uint32_t tmpccer;
  uint32_t tmpcr2;

  /* Disable the Channel 2: Reset the CC2E Bit */
  TIMx->CCER &= ~TIM_CCER_CC2E;
 800233e:	6a03      	ldr	r3, [r0, #32]
 8002340:	2210      	movs	r2, #16
 8002342:	4393      	bics	r3, r2
 8002344:	6203      	str	r3, [r0, #32]

  /* Get the TIMx CCER register value */
  tmpccer = TIMx->CCER;
 8002346:	6a03      	ldr	r3, [r0, #32]
  /* Get the TIMx CR2 register value */
  tmpcr2 =  TIMx->CR2;
 8002348:	6845      	ldr	r5, [r0, #4]

  /* Get the TIMx CCMR1 register value */
  tmpccmrx = TIMx->CCMR1;
 800234a:	6982      	ldr	r2, [r0, #24]

  /* Reset the Output Compare mode and Capture/Compare selection Bits */
  tmpccmrx &= ~TIM_CCMR1_OC2M;
  tmpccmrx &= ~TIM_CCMR1_CC2S;
 800234c:	4c07      	ldr	r4, [pc, #28]	; (800236c <TIM_OC2_SetConfig+0x30>)
 800234e:	4022      	ands	r2, r4

  /* Select the Output Compare Mode */
  tmpccmrx |= (OC_Config->OCMode << 8U);
 8002350:	680c      	ldr	r4, [r1, #0]
 8002352:	0224      	lsls	r4, r4, #8
 8002354:	4322      	orrs	r2, r4

  /* Reset the Output Polarity level */
  tmpccer &= ~TIM_CCER_CC2P;
 8002356:	2420      	movs	r4, #32
 8002358:	43a3      	bics	r3, r4
  /* Set the Output Compare Polarity */
  tmpccer |= (OC_Config->OCPolarity << 4U);
 800235a:	688c      	ldr	r4, [r1, #8]
 800235c:	0124      	lsls	r4, r4, #4
 800235e:	4323      	orrs	r3, r4

  /* Write to TIMx CR2 */
  TIMx->CR2 = tmpcr2;
 8002360:	6045      	str	r5, [r0, #4]

  /* Write to TIMx CCMR1 */
  TIMx->CCMR1 = tmpccmrx;
 8002362:	6182      	str	r2, [r0, #24]

  /* Set the Capture Compare Register value */
  TIMx->CCR2 = OC_Config->Pulse;
 8002364:	684a      	ldr	r2, [r1, #4]
 8002366:	6382      	str	r2, [r0, #56]	; 0x38

  /* Write to TIMx CCER */
  TIMx->CCER = tmpccer;
 8002368:	6203      	str	r3, [r0, #32]
}
 800236a:	bd30      	pop	{r4, r5, pc}
 800236c:	ffff8cff 	.word	0xffff8cff

08002370 <TIM_OC3_SetConfig>:
  * @param  TIMx to select the TIM peripheral
  * @param  OC_Config The ouput configuration structure
  * @retval None
  */
static void TIM_OC3_SetConfig(TIM_TypeDef *TIMx, TIM_OC_InitTypeDef *OC_Config)
{
 8002370:	b530      	push	{r4, r5, lr}
  uint32_t tmpccmrx;
  uint32_t tmpccer;
  uint32_t tmpcr2;

  /* Disable the Channel 3: Reset the CC2E Bit */
  TIMx->CCER &= ~TIM_CCER_CC3E;
 8002372:	6a03      	ldr	r3, [r0, #32]
 8002374:	4a0a      	ldr	r2, [pc, #40]	; (80023a0 <TIM_OC3_SetConfig+0x30>)
 8002376:	4013      	ands	r3, r2
 8002378:	6203      	str	r3, [r0, #32]

  /* Get the TIMx CCER register value */
  tmpccer = TIMx->CCER;
 800237a:	6a03      	ldr	r3, [r0, #32]
  /* Get the TIMx CR2 register value */
  tmpcr2 =  TIMx->CR2;
 800237c:	6845      	ldr	r5, [r0, #4]

  /* Get the TIMx CCMR2 register value */
  tmpccmrx = TIMx->CCMR2;
 800237e:	69c2      	ldr	r2, [r0, #28]

  /* Reset the Output Compare mode and Capture/Compare selection Bits */
  tmpccmrx &= ~TIM_CCMR2_OC3M;
  tmpccmrx &= ~TIM_CCMR2_CC3S;
 8002380:	2473      	movs	r4, #115	; 0x73
 8002382:	43a2      	bics	r2, r4
  /* Select the Output Compare Mode */
  tmpccmrx |= OC_Config->OCMode;
 8002384:	680c      	ldr	r4, [r1, #0]
 8002386:	4322      	orrs	r2, r4

  /* Reset the Output Polarity level */
  tmpccer &= ~TIM_CCER_CC3P;
 8002388:	4c06      	ldr	r4, [pc, #24]	; (80023a4 <TIM_OC3_SetConfig+0x34>)
 800238a:	4023      	ands	r3, r4
  /* Set the Output Compare Polarity */
  tmpccer |= (OC_Config->OCPolarity << 8U);
 800238c:	688c      	ldr	r4, [r1, #8]
 800238e:	0224      	lsls	r4, r4, #8
 8002390:	4323      	orrs	r3, r4

  /* Write to TIMx CR2 */
  TIMx->CR2 = tmpcr2;
 8002392:	6045      	str	r5, [r0, #4]

  /* Write to TIMx CCMR2 */
  TIMx->CCMR2 = tmpccmrx;
 8002394:	61c2      	str	r2, [r0, #28]

  /* Set the Capture Compare Register value */
  TIMx->CCR3 = OC_Config->Pulse;
 8002396:	684a      	ldr	r2, [r1, #4]
 8002398:	63c2      	str	r2, [r0, #60]	; 0x3c

  /* Write to TIMx CCER */
  TIMx->CCER = tmpccer;
 800239a:	6203      	str	r3, [r0, #32]
}
 800239c:	bd30      	pop	{r4, r5, pc}
 800239e:	46c0      	nop			; (mov r8, r8)
 80023a0:	fffffeff 	.word	0xfffffeff
 80023a4:	fffffdff 	.word	0xfffffdff

080023a8 <TIM_OC4_SetConfig>:
  * @param  TIMx to select the TIM peripheral
  * @param  OC_Config The ouput configuration structure
  * @retval None
  */
static void TIM_OC4_SetConfig(TIM_TypeDef *TIMx, TIM_OC_InitTypeDef *OC_Config)
{
 80023a8:	b530      	push	{r4, r5, lr}
  uint32_t tmpccmrx;
  uint32_t tmpccer;
  uint32_t tmpcr2;

  /* Disable the Channel 4: Reset the CC4E Bit */
  TIMx->CCER &= ~TIM_CCER_CC4E;
 80023aa:	6a03      	ldr	r3, [r0, #32]
 80023ac:	4a0a      	ldr	r2, [pc, #40]	; (80023d8 <TIM_OC4_SetConfig+0x30>)
 80023ae:	4013      	ands	r3, r2
 80023b0:	6203      	str	r3, [r0, #32]

  /* Get the TIMx CCER register value */
  tmpccer = TIMx->CCER;
 80023b2:	6a03      	ldr	r3, [r0, #32]
  /* Get the TIMx CR2 register value */
  tmpcr2 =  TIMx->CR2;
 80023b4:	6845      	ldr	r5, [r0, #4]

  /* Get the TIMx CCMR2 register value */
  tmpccmrx = TIMx->CCMR2;
 80023b6:	69c2      	ldr	r2, [r0, #28]

  /* Reset the Output Compare mode and Capture/Compare selection Bits */
  tmpccmrx &= ~TIM_CCMR2_OC4M;
  tmpccmrx &= ~TIM_CCMR2_CC4S;
 80023b8:	4c08      	ldr	r4, [pc, #32]	; (80023dc <TIM_OC4_SetConfig+0x34>)
 80023ba:	4022      	ands	r2, r4

  /* Select the Output Compare Mode */
  tmpccmrx |= (OC_Config->OCMode << 8U);
 80023bc:	680c      	ldr	r4, [r1, #0]
 80023be:	0224      	lsls	r4, r4, #8
 80023c0:	4322      	orrs	r2, r4

  /* Reset the Output Polarity level */
  tmpccer &= ~TIM_CCER_CC4P;
 80023c2:	4c07      	ldr	r4, [pc, #28]	; (80023e0 <TIM_OC4_SetConfig+0x38>)
 80023c4:	4023      	ands	r3, r4
  /* Set the Output Compare Polarity */
  tmpccer |= (OC_Config->OCPolarity << 12U);
 80023c6:	688c      	ldr	r4, [r1, #8]
 80023c8:	0324      	lsls	r4, r4, #12
 80023ca:	4323      	orrs	r3, r4

  /* Write to TIMx CR2 */
  TIMx->CR2 = tmpcr2;
 80023cc:	6045      	str	r5, [r0, #4]

  /* Write to TIMx CCMR2 */
  TIMx->CCMR2 = tmpccmrx;
 80023ce:	61c2      	str	r2, [r0, #28]

  /* Set the Capture Compare Register value */
  TIMx->CCR4 = OC_Config->Pulse;
 80023d0:	684a      	ldr	r2, [r1, #4]
 80023d2:	6402      	str	r2, [r0, #64]	; 0x40

  /* Write to TIMx CCER */
  TIMx->CCER = tmpccer;
 80023d4:	6203      	str	r3, [r0, #32]
}
 80023d6:	bd30      	pop	{r4, r5, pc}
 80023d8:	ffffefff 	.word	0xffffefff
 80023dc:	ffff8cff 	.word	0xffff8cff
 80023e0:	ffffdfff 	.word	0xffffdfff

080023e4 <TIM_TI1_ConfigInputStage>:
  * @param  TIM_ICFilter Specifies the Input Capture Filter.
  *          This parameter must be a value between 0x00 and 0x0F.
  * @retval None
  */
static void TIM_TI1_ConfigInputStage(TIM_TypeDef *TIMx, uint32_t TIM_ICPolarity, uint32_t TIM_ICFilter)
{
 80023e4:	b530      	push	{r4, r5, lr}
  uint32_t tmpccmr1;
  uint32_t tmpccer;

  /* Disable the Channel 1: Reset the CC1E Bit */
  tmpccer = TIMx->CCER;
 80023e6:	6a03      	ldr	r3, [r0, #32]
  TIMx->CCER &= ~TIM_CCER_CC1E;
 80023e8:	6a04      	ldr	r4, [r0, #32]
 80023ea:	2501      	movs	r5, #1
 80023ec:	43ac      	bics	r4, r5
 80023ee:	6204      	str	r4, [r0, #32]
  tmpccmr1 = TIMx->CCMR1;
 80023f0:	6984      	ldr	r4, [r0, #24]

  /* Set the filter */
  tmpccmr1 &= ~TIM_CCMR1_IC1F;
 80023f2:	35ef      	adds	r5, #239	; 0xef
 80023f4:	43ac      	bics	r4, r5
  tmpccmr1 |= (TIM_ICFilter << 4U);
 80023f6:	0112      	lsls	r2, r2, #4
 80023f8:	4322      	orrs	r2, r4

  /* Select the Polarity and set the CC1E Bit */
  tmpccer &= ~(TIM_CCER_CC1P | TIM_CCER_CC1NP);
 80023fa:	240a      	movs	r4, #10
 80023fc:	43a3      	bics	r3, r4
  tmpccer |= TIM_ICPolarity;
 80023fe:	4319      	orrs	r1, r3

  /* Write to TIMx CCMR1 and CCER registers */
  TIMx->CCMR1 = tmpccmr1;
 8002400:	6182      	str	r2, [r0, #24]
  TIMx->CCER = tmpccer;
 8002402:	6201      	str	r1, [r0, #32]
}
 8002404:	bd30      	pop	{r4, r5, pc}
	...

08002408 <TIM_TI2_ConfigInputStage>:
  * @param  TIM_ICFilter Specifies the Input Capture Filter.
  *          This parameter must be a value between 0x00 and 0x0F.
  * @retval None
  */
static void TIM_TI2_ConfigInputStage(TIM_TypeDef *TIMx, uint32_t TIM_ICPolarity, uint32_t TIM_ICFilter)
{
 8002408:	b530      	push	{r4, r5, lr}
  uint32_t tmpccmr1;
  uint32_t tmpccer;

  /* Disable the Channel 2: Reset the CC2E Bit */
  TIMx->CCER &= ~TIM_CCER_CC2E;
 800240a:	6a03      	ldr	r3, [r0, #32]
 800240c:	2410      	movs	r4, #16
 800240e:	43a3      	bics	r3, r4
 8002410:	6203      	str	r3, [r0, #32]
  tmpccmr1 = TIMx->CCMR1;
 8002412:	6984      	ldr	r4, [r0, #24]
  tmpccer = TIMx->CCER;
 8002414:	6a03      	ldr	r3, [r0, #32]

  /* Set the filter */
  tmpccmr1 &= ~TIM_CCMR1_IC2F;
 8002416:	4d05      	ldr	r5, [pc, #20]	; (800242c <TIM_TI2_ConfigInputStage+0x24>)
 8002418:	402c      	ands	r4, r5
  tmpccmr1 |= (TIM_ICFilter << 12U);
 800241a:	0312      	lsls	r2, r2, #12
 800241c:	4322      	orrs	r2, r4

  /* Select the Polarity and set the CC2E Bit */
  tmpccer &= ~(TIM_CCER_CC2P | TIM_CCER_CC2NP);
 800241e:	24a0      	movs	r4, #160	; 0xa0
 8002420:	43a3      	bics	r3, r4
  tmpccer |= (TIM_ICPolarity << 4U);
 8002422:	0109      	lsls	r1, r1, #4
 8002424:	4319      	orrs	r1, r3

  /* Write to TIMx CCMR1 and CCER registers */
  TIMx->CCMR1 = tmpccmr1 ;
 8002426:	6182      	str	r2, [r0, #24]
  TIMx->CCER = tmpccer;
 8002428:	6201      	str	r1, [r0, #32]
}
 800242a:	bd30      	pop	{r4, r5, pc}
 800242c:	ffff0fff 	.word	0xffff0fff

08002430 <TIM_ITRx_SetConfig>:
  *            @arg TIM_TS_TI2FP2: Filtered Timer Input 2
  *            @arg TIM_TS_ETRF: External Trigger input
  * @retval None
  */
static void TIM_ITRx_SetConfig(TIM_TypeDef *TIMx, uint32_t InputTriggerSource)
{
 8002430:	000b      	movs	r3, r1
  uint32_t tmpsmcr;

  /* Get the TIMx SMCR register value */
  tmpsmcr = TIMx->SMCR;
 8002432:	6881      	ldr	r1, [r0, #8]
  /* Reset the TS Bits */
  tmpsmcr &= ~TIM_SMCR_TS;
 8002434:	2270      	movs	r2, #112	; 0x70
 8002436:	4391      	bics	r1, r2
  /* Set the Input Trigger source and the slave mode*/
  tmpsmcr |= (InputTriggerSource | TIM_SLAVEMODE_EXTERNAL1);
 8002438:	4319      	orrs	r1, r3
 800243a:	2307      	movs	r3, #7
 800243c:	4319      	orrs	r1, r3
  /* Write to TIMx SMCR */
  TIMx->SMCR = tmpsmcr;
 800243e:	6081      	str	r1, [r0, #8]
}
 8002440:	4770      	bx	lr
	...

08002444 <TIM_ETR_SetConfig>:
  *          This parameter must be a value between 0x00 and 0x0F
  * @retval None
  */
static void TIM_ETR_SetConfig(TIM_TypeDef *TIMx, uint32_t TIM_ExtTRGPrescaler,
                              uint32_t TIM_ExtTRGPolarity, uint32_t ExtTRGFilter)
{
 8002444:	b530      	push	{r4, r5, lr}
  uint32_t tmpsmcr;

  tmpsmcr = TIMx->SMCR;
 8002446:	6884      	ldr	r4, [r0, #8]

  /* Reset the ETR Bits */
  tmpsmcr &= ~(TIM_SMCR_ETF | TIM_SMCR_ETPS | TIM_SMCR_ECE | TIM_SMCR_ETP);
 8002448:	4d03      	ldr	r5, [pc, #12]	; (8002458 <TIM_ETR_SetConfig+0x14>)
 800244a:	402c      	ands	r4, r5

  /* Set the Prescaler, the Filter value and the Polarity */
  tmpsmcr |= (uint32_t)(TIM_ExtTRGPrescaler | (TIM_ExtTRGPolarity | (ExtTRGFilter << 8U)));
 800244c:	021b      	lsls	r3, r3, #8
 800244e:	431a      	orrs	r2, r3
 8002450:	4311      	orrs	r1, r2
 8002452:	4321      	orrs	r1, r4

  /* Write to TIMx SMCR */
  TIMx->SMCR = tmpsmcr;
 8002454:	6081      	str	r1, [r0, #8]
}
 8002456:	bd30      	pop	{r4, r5, pc}
 8002458:	ffff00ff 	.word	0xffff00ff

0800245c <TIM_CCxChannelCmd>:
  * @param  ChannelState specifies the TIM Channel CCxE bit new state.
  *          This parameter can be: TIM_CCx_ENABLE or TIM_CCx_DISABLE.
  * @retval None
  */
static void TIM_CCxChannelCmd(TIM_TypeDef *TIMx, uint32_t Channel, uint32_t ChannelState)
{
 800245c:	b510      	push	{r4, lr}

  /* Check the parameters */
  assert_param(IS_TIM_CC1_INSTANCE(TIMx));
  assert_param(IS_TIM_CHANNELS(Channel));

  tmp = TIM_CCER_CC1E << (Channel & 0x1FU); /* 0x1FU = 31 bits max shift */
 800245e:	231f      	movs	r3, #31
 8002460:	4019      	ands	r1, r3
 8002462:	2401      	movs	r4, #1
 8002464:	408c      	lsls	r4, r1

  /* Reset the CCxE Bit */
  TIMx->CCER &= ~tmp;
 8002466:	6a03      	ldr	r3, [r0, #32]
 8002468:	43a3      	bics	r3, r4
 800246a:	6203      	str	r3, [r0, #32]

  /* Set or reset the CCxE Bit */
  TIMx->CCER |= (uint32_t)(ChannelState << (Channel & 0x1FU)); /* 0x1FU = 31 bits max shift */
 800246c:	6a03      	ldr	r3, [r0, #32]
 800246e:	408a      	lsls	r2, r1
 8002470:	431a      	orrs	r2, r3
 8002472:	6202      	str	r2, [r0, #32]
}
 8002474:	bd10      	pop	{r4, pc}

08002476 <HAL_TIM_Base_Init>:
{
 8002476:	b570      	push	{r4, r5, r6, lr}
 8002478:	1e04      	subs	r4, r0, #0
  if (htim == NULL)
 800247a:	d014      	beq.n	80024a6 <HAL_TIM_Base_Init+0x30>
  if (htim->State == HAL_TIM_STATE_RESET)
 800247c:	2339      	movs	r3, #57	; 0x39
 800247e:	5cc3      	ldrb	r3, [r0, r3]
 8002480:	2b00      	cmp	r3, #0
 8002482:	d00a      	beq.n	800249a <HAL_TIM_Base_Init+0x24>
  htim->State = HAL_TIM_STATE_BUSY;
 8002484:	2539      	movs	r5, #57	; 0x39
 8002486:	2302      	movs	r3, #2
 8002488:	5563      	strb	r3, [r4, r5]
  TIM_Base_SetConfig(htim->Instance, &htim->Init);
 800248a:	1d21      	adds	r1, r4, #4
 800248c:	6820      	ldr	r0, [r4, #0]
 800248e:	f7ff ff07 	bl	80022a0 <TIM_Base_SetConfig>
  htim->State = HAL_TIM_STATE_READY;
 8002492:	2301      	movs	r3, #1
 8002494:	5563      	strb	r3, [r4, r5]
  return HAL_OK;
 8002496:	2000      	movs	r0, #0
}
 8002498:	bd70      	pop	{r4, r5, r6, pc}
    htim->Lock = HAL_UNLOCKED;
 800249a:	2200      	movs	r2, #0
 800249c:	3338      	adds	r3, #56	; 0x38
 800249e:	54c2      	strb	r2, [r0, r3]
    HAL_TIM_Base_MspInit(htim);
 80024a0:	f001 fdce 	bl	8004040 <HAL_TIM_Base_MspInit>
 80024a4:	e7ee      	b.n	8002484 <HAL_TIM_Base_Init+0xe>
    return HAL_ERROR;
 80024a6:	2001      	movs	r0, #1
 80024a8:	e7f6      	b.n	8002498 <HAL_TIM_Base_Init+0x22>

080024aa <HAL_TIM_PWM_MspInit>:
}
 80024aa:	4770      	bx	lr

080024ac <HAL_TIM_PWM_Init>:
{
 80024ac:	b570      	push	{r4, r5, r6, lr}
 80024ae:	1e04      	subs	r4, r0, #0
  if (htim == NULL)
 80024b0:	d014      	beq.n	80024dc <HAL_TIM_PWM_Init+0x30>
  if (htim->State == HAL_TIM_STATE_RESET)
 80024b2:	2339      	movs	r3, #57	; 0x39
 80024b4:	5cc3      	ldrb	r3, [r0, r3]
 80024b6:	2b00      	cmp	r3, #0
 80024b8:	d00a      	beq.n	80024d0 <HAL_TIM_PWM_Init+0x24>
  htim->State = HAL_TIM_STATE_BUSY;
 80024ba:	2539      	movs	r5, #57	; 0x39
 80024bc:	2302      	movs	r3, #2
 80024be:	5563      	strb	r3, [r4, r5]
  TIM_Base_SetConfig(htim->Instance, &htim->Init);
 80024c0:	1d21      	adds	r1, r4, #4
 80024c2:	6820      	ldr	r0, [r4, #0]
 80024c4:	f7ff feec 	bl	80022a0 <TIM_Base_SetConfig>
  htim->State = HAL_TIM_STATE_READY;
 80024c8:	2301      	movs	r3, #1
 80024ca:	5563      	strb	r3, [r4, r5]
  return HAL_OK;
 80024cc:	2000      	movs	r0, #0
}
 80024ce:	bd70      	pop	{r4, r5, r6, pc}
    htim->Lock = HAL_UNLOCKED;
 80024d0:	2200      	movs	r2, #0
 80024d2:	3338      	adds	r3, #56	; 0x38
 80024d4:	54c2      	strb	r2, [r0, r3]
    HAL_TIM_PWM_MspInit(htim);
 80024d6:	f7ff ffe8 	bl	80024aa <HAL_TIM_PWM_MspInit>
 80024da:	e7ee      	b.n	80024ba <HAL_TIM_PWM_Init+0xe>
    return HAL_ERROR;
 80024dc:	2001      	movs	r0, #1
 80024de:	e7f6      	b.n	80024ce <HAL_TIM_PWM_Init+0x22>

080024e0 <HAL_TIM_PWM_Start>:
{
 80024e0:	b510      	push	{r4, lr}
 80024e2:	0004      	movs	r4, r0
  TIM_CCxChannelCmd(htim->Instance, Channel, TIM_CCx_ENABLE);
 80024e4:	2201      	movs	r2, #1
 80024e6:	6800      	ldr	r0, [r0, #0]
 80024e8:	f7ff ffb8 	bl	800245c <TIM_CCxChannelCmd>
  tmpsmcr = htim->Instance->SMCR & TIM_SMCR_SMS;
 80024ec:	6822      	ldr	r2, [r4, #0]
 80024ee:	6891      	ldr	r1, [r2, #8]
 80024f0:	2307      	movs	r3, #7
 80024f2:	400b      	ands	r3, r1
  if (!IS_TIM_SLAVEMODE_TRIGGER_ENABLED(tmpsmcr))
 80024f4:	2b06      	cmp	r3, #6
 80024f6:	d003      	beq.n	8002500 <HAL_TIM_PWM_Start+0x20>
    __HAL_TIM_ENABLE(htim);
 80024f8:	6813      	ldr	r3, [r2, #0]
 80024fa:	2101      	movs	r1, #1
 80024fc:	430b      	orrs	r3, r1
 80024fe:	6013      	str	r3, [r2, #0]
}
 8002500:	2000      	movs	r0, #0
 8002502:	bd10      	pop	{r4, pc}

08002504 <HAL_TIM_PWM_ConfigChannel>:
{
 8002504:	b570      	push	{r4, r5, r6, lr}
 8002506:	0004      	movs	r4, r0
 8002508:	000d      	movs	r5, r1
  __HAL_LOCK(htim);
 800250a:	2338      	movs	r3, #56	; 0x38
 800250c:	5cc3      	ldrb	r3, [r0, r3]
 800250e:	2b01      	cmp	r3, #1
 8002510:	d069      	beq.n	80025e6 <HAL_TIM_PWM_ConfigChannel+0xe2>
 8002512:	2101      	movs	r1, #1
 8002514:	2338      	movs	r3, #56	; 0x38
 8002516:	54c1      	strb	r1, [r0, r3]
  htim->State = HAL_TIM_STATE_BUSY;
 8002518:	3101      	adds	r1, #1
 800251a:	3301      	adds	r3, #1
 800251c:	54c1      	strb	r1, [r0, r3]
  switch (Channel)
 800251e:	2a04      	cmp	r2, #4
 8002520:	d037      	beq.n	8002592 <HAL_TIM_PWM_ConfigChannel+0x8e>
 8002522:	d919      	bls.n	8002558 <HAL_TIM_PWM_ConfigChannel+0x54>
 8002524:	2a08      	cmp	r2, #8
 8002526:	d04a      	beq.n	80025be <HAL_TIM_PWM_ConfigChannel+0xba>
 8002528:	2a0c      	cmp	r2, #12
 800252a:	d12a      	bne.n	8002582 <HAL_TIM_PWM_ConfigChannel+0x7e>
      TIM_OC4_SetConfig(htim->Instance, sConfig);
 800252c:	0029      	movs	r1, r5
 800252e:	6800      	ldr	r0, [r0, #0]
 8002530:	f7ff ff3a 	bl	80023a8 <TIM_OC4_SetConfig>
      htim->Instance->CCMR2 |= TIM_CCMR2_OC4PE;
 8002534:	6822      	ldr	r2, [r4, #0]
 8002536:	69d1      	ldr	r1, [r2, #28]
 8002538:	2380      	movs	r3, #128	; 0x80
 800253a:	011b      	lsls	r3, r3, #4
 800253c:	430b      	orrs	r3, r1
 800253e:	61d3      	str	r3, [r2, #28]
      htim->Instance->CCMR2 &= ~TIM_CCMR2_OC4FE;
 8002540:	6822      	ldr	r2, [r4, #0]
 8002542:	69d3      	ldr	r3, [r2, #28]
 8002544:	4929      	ldr	r1, [pc, #164]	; (80025ec <HAL_TIM_PWM_ConfigChannel+0xe8>)
 8002546:	400b      	ands	r3, r1
 8002548:	61d3      	str	r3, [r2, #28]
      htim->Instance->CCMR2 |= sConfig->OCFastMode << 8U;
 800254a:	6821      	ldr	r1, [r4, #0]
 800254c:	69cb      	ldr	r3, [r1, #28]
 800254e:	68ea      	ldr	r2, [r5, #12]
 8002550:	0212      	lsls	r2, r2, #8
 8002552:	4313      	orrs	r3, r2
 8002554:	61cb      	str	r3, [r1, #28]
      break;
 8002556:	e014      	b.n	8002582 <HAL_TIM_PWM_ConfigChannel+0x7e>
  switch (Channel)
 8002558:	2a00      	cmp	r2, #0
 800255a:	d112      	bne.n	8002582 <HAL_TIM_PWM_ConfigChannel+0x7e>
      TIM_OC1_SetConfig(htim->Instance, sConfig);
 800255c:	0029      	movs	r1, r5
 800255e:	6800      	ldr	r0, [r0, #0]
 8002560:	f7ff fed6 	bl	8002310 <TIM_OC1_SetConfig>
      htim->Instance->CCMR1 |= TIM_CCMR1_OC1PE;
 8002564:	6822      	ldr	r2, [r4, #0]
 8002566:	6993      	ldr	r3, [r2, #24]
 8002568:	2108      	movs	r1, #8
 800256a:	430b      	orrs	r3, r1
 800256c:	6193      	str	r3, [r2, #24]
      htim->Instance->CCMR1 &= ~TIM_CCMR1_OC1FE;
 800256e:	6822      	ldr	r2, [r4, #0]
 8002570:	6993      	ldr	r3, [r2, #24]
 8002572:	3904      	subs	r1, #4
 8002574:	438b      	bics	r3, r1
 8002576:	6193      	str	r3, [r2, #24]
      htim->Instance->CCMR1 |= sConfig->OCFastMode;
 8002578:	6822      	ldr	r2, [r4, #0]
 800257a:	6993      	ldr	r3, [r2, #24]
 800257c:	68e9      	ldr	r1, [r5, #12]
 800257e:	430b      	orrs	r3, r1
 8002580:	6193      	str	r3, [r2, #24]
  htim->State = HAL_TIM_STATE_READY;
 8002582:	2201      	movs	r2, #1
 8002584:	2339      	movs	r3, #57	; 0x39
 8002586:	54e2      	strb	r2, [r4, r3]
  __HAL_UNLOCK(htim);
 8002588:	2200      	movs	r2, #0
 800258a:	3b01      	subs	r3, #1
 800258c:	54e2      	strb	r2, [r4, r3]
  return HAL_OK;
 800258e:	2000      	movs	r0, #0
}
 8002590:	bd70      	pop	{r4, r5, r6, pc}
      TIM_OC2_SetConfig(htim->Instance, sConfig);
 8002592:	0029      	movs	r1, r5
 8002594:	6800      	ldr	r0, [r0, #0]
 8002596:	f7ff fed1 	bl	800233c <TIM_OC2_SetConfig>
      htim->Instance->CCMR1 |= TIM_CCMR1_OC2PE;
 800259a:	6822      	ldr	r2, [r4, #0]
 800259c:	6991      	ldr	r1, [r2, #24]
 800259e:	2380      	movs	r3, #128	; 0x80
 80025a0:	011b      	lsls	r3, r3, #4
 80025a2:	430b      	orrs	r3, r1
 80025a4:	6193      	str	r3, [r2, #24]
      htim->Instance->CCMR1 &= ~TIM_CCMR1_OC2FE;
 80025a6:	6822      	ldr	r2, [r4, #0]
 80025a8:	6993      	ldr	r3, [r2, #24]
 80025aa:	4910      	ldr	r1, [pc, #64]	; (80025ec <HAL_TIM_PWM_ConfigChannel+0xe8>)
 80025ac:	400b      	ands	r3, r1
 80025ae:	6193      	str	r3, [r2, #24]
      htim->Instance->CCMR1 |= sConfig->OCFastMode << 8U;
 80025b0:	6821      	ldr	r1, [r4, #0]
 80025b2:	698b      	ldr	r3, [r1, #24]
 80025b4:	68ea      	ldr	r2, [r5, #12]
 80025b6:	0212      	lsls	r2, r2, #8
 80025b8:	4313      	orrs	r3, r2
 80025ba:	618b      	str	r3, [r1, #24]
      break;
 80025bc:	e7e1      	b.n	8002582 <HAL_TIM_PWM_ConfigChannel+0x7e>
      TIM_OC3_SetConfig(htim->Instance, sConfig);
 80025be:	0029      	movs	r1, r5
 80025c0:	6800      	ldr	r0, [r0, #0]
 80025c2:	f7ff fed5 	bl	8002370 <TIM_OC3_SetConfig>
      htim->Instance->CCMR2 |= TIM_CCMR2_OC3PE;
 80025c6:	6822      	ldr	r2, [r4, #0]
 80025c8:	69d3      	ldr	r3, [r2, #28]
 80025ca:	2108      	movs	r1, #8
 80025cc:	430b      	orrs	r3, r1
 80025ce:	61d3      	str	r3, [r2, #28]
      htim->Instance->CCMR2 &= ~TIM_CCMR2_OC3FE;
 80025d0:	6822      	ldr	r2, [r4, #0]
 80025d2:	69d3      	ldr	r3, [r2, #28]
 80025d4:	3904      	subs	r1, #4
 80025d6:	438b      	bics	r3, r1
 80025d8:	61d3      	str	r3, [r2, #28]
      htim->Instance->CCMR2 |= sConfig->OCFastMode;
 80025da:	6822      	ldr	r2, [r4, #0]
 80025dc:	69d3      	ldr	r3, [r2, #28]
 80025de:	68e9      	ldr	r1, [r5, #12]
 80025e0:	430b      	orrs	r3, r1
 80025e2:	61d3      	str	r3, [r2, #28]
      break;
 80025e4:	e7cd      	b.n	8002582 <HAL_TIM_PWM_ConfigChannel+0x7e>
  __HAL_LOCK(htim);
 80025e6:	2002      	movs	r0, #2
 80025e8:	e7d2      	b.n	8002590 <HAL_TIM_PWM_ConfigChannel+0x8c>
 80025ea:	46c0      	nop			; (mov r8, r8)
 80025ec:	fffffbff 	.word	0xfffffbff

080025f0 <HAL_TIM_ConfigClockSource>:
{
 80025f0:	b510      	push	{r4, lr}
 80025f2:	0004      	movs	r4, r0
  __HAL_LOCK(htim);
 80025f4:	2338      	movs	r3, #56	; 0x38
 80025f6:	5cc3      	ldrb	r3, [r0, r3]
 80025f8:	2b01      	cmp	r3, #1
 80025fa:	d066      	beq.n	80026ca <HAL_TIM_ConfigClockSource+0xda>
 80025fc:	2201      	movs	r2, #1
 80025fe:	2338      	movs	r3, #56	; 0x38
 8002600:	54c2      	strb	r2, [r0, r3]
  htim->State = HAL_TIM_STATE_BUSY;
 8002602:	3201      	adds	r2, #1
 8002604:	3301      	adds	r3, #1
 8002606:	54c2      	strb	r2, [r0, r3]
  tmpsmcr = htim->Instance->SMCR;
 8002608:	6802      	ldr	r2, [r0, #0]
 800260a:	6893      	ldr	r3, [r2, #8]
  tmpsmcr &= ~(TIM_SMCR_ETF | TIM_SMCR_ETPS | TIM_SMCR_ECE | TIM_SMCR_ETP);
 800260c:	4830      	ldr	r0, [pc, #192]	; (80026d0 <HAL_TIM_ConfigClockSource+0xe0>)
 800260e:	4003      	ands	r3, r0
  htim->Instance->SMCR = tmpsmcr;
 8002610:	6093      	str	r3, [r2, #8]
  switch (sClockSourceConfig->ClockSource)
 8002612:	680b      	ldr	r3, [r1, #0]
 8002614:	2b40      	cmp	r3, #64	; 0x40
 8002616:	d04e      	beq.n	80026b6 <HAL_TIM_ConfigClockSource+0xc6>
 8002618:	d915      	bls.n	8002646 <HAL_TIM_ConfigClockSource+0x56>
 800261a:	2b60      	cmp	r3, #96	; 0x60
 800261c:	d041      	beq.n	80026a2 <HAL_TIM_ConfigClockSource+0xb2>
 800261e:	d921      	bls.n	8002664 <HAL_TIM_ConfigClockSource+0x74>
 8002620:	2b70      	cmp	r3, #112	; 0x70
 8002622:	d02b      	beq.n	800267c <HAL_TIM_ConfigClockSource+0x8c>
 8002624:	2280      	movs	r2, #128	; 0x80
 8002626:	0192      	lsls	r2, r2, #6
 8002628:	4293      	cmp	r3, r2
 800262a:	d132      	bne.n	8002692 <HAL_TIM_ConfigClockSource+0xa2>
      TIM_ETR_SetConfig(htim->Instance,
 800262c:	68cb      	ldr	r3, [r1, #12]
 800262e:	684a      	ldr	r2, [r1, #4]
 8002630:	6889      	ldr	r1, [r1, #8]
 8002632:	6820      	ldr	r0, [r4, #0]
 8002634:	f7ff ff06 	bl	8002444 <TIM_ETR_SetConfig>
      htim->Instance->SMCR |= TIM_SMCR_ECE;
 8002638:	6822      	ldr	r2, [r4, #0]
 800263a:	6891      	ldr	r1, [r2, #8]
 800263c:	2380      	movs	r3, #128	; 0x80
 800263e:	01db      	lsls	r3, r3, #7
 8002640:	430b      	orrs	r3, r1
 8002642:	6093      	str	r3, [r2, #8]
      break;
 8002644:	e025      	b.n	8002692 <HAL_TIM_ConfigClockSource+0xa2>
  switch (sClockSourceConfig->ClockSource)
 8002646:	2b10      	cmp	r3, #16
 8002648:	d007      	beq.n	800265a <HAL_TIM_ConfigClockSource+0x6a>
 800264a:	d904      	bls.n	8002656 <HAL_TIM_ConfigClockSource+0x66>
 800264c:	2b20      	cmp	r3, #32
 800264e:	d004      	beq.n	800265a <HAL_TIM_ConfigClockSource+0x6a>
 8002650:	2b30      	cmp	r3, #48	; 0x30
 8002652:	d002      	beq.n	800265a <HAL_TIM_ConfigClockSource+0x6a>
 8002654:	e01d      	b.n	8002692 <HAL_TIM_ConfigClockSource+0xa2>
 8002656:	2b00      	cmp	r3, #0
 8002658:	d11b      	bne.n	8002692 <HAL_TIM_ConfigClockSource+0xa2>
      TIM_ITRx_SetConfig(htim->Instance, sClockSourceConfig->ClockSource);
 800265a:	0019      	movs	r1, r3
 800265c:	6820      	ldr	r0, [r4, #0]
 800265e:	f7ff fee7 	bl	8002430 <TIM_ITRx_SetConfig>
      break;
 8002662:	e016      	b.n	8002692 <HAL_TIM_ConfigClockSource+0xa2>
  switch (sClockSourceConfig->ClockSource)
 8002664:	2b50      	cmp	r3, #80	; 0x50
 8002666:	d114      	bne.n	8002692 <HAL_TIM_ConfigClockSource+0xa2>
      TIM_TI1_ConfigInputStage(htim->Instance,
 8002668:	68ca      	ldr	r2, [r1, #12]
 800266a:	6849      	ldr	r1, [r1, #4]
 800266c:	6820      	ldr	r0, [r4, #0]
 800266e:	f7ff feb9 	bl	80023e4 <TIM_TI1_ConfigInputStage>
      TIM_ITRx_SetConfig(htim->Instance, TIM_CLOCKSOURCE_TI1);
 8002672:	2150      	movs	r1, #80	; 0x50
 8002674:	6820      	ldr	r0, [r4, #0]
 8002676:	f7ff fedb 	bl	8002430 <TIM_ITRx_SetConfig>
      break;
 800267a:	e00a      	b.n	8002692 <HAL_TIM_ConfigClockSource+0xa2>
      TIM_ETR_SetConfig(htim->Instance,
 800267c:	68cb      	ldr	r3, [r1, #12]
 800267e:	684a      	ldr	r2, [r1, #4]
 8002680:	6889      	ldr	r1, [r1, #8]
 8002682:	6820      	ldr	r0, [r4, #0]
 8002684:	f7ff fede 	bl	8002444 <TIM_ETR_SetConfig>
      tmpsmcr = htim->Instance->SMCR;
 8002688:	6822      	ldr	r2, [r4, #0]
 800268a:	6893      	ldr	r3, [r2, #8]
      tmpsmcr |= (TIM_SLAVEMODE_EXTERNAL1 | TIM_CLOCKSOURCE_ETRMODE1);
 800268c:	2177      	movs	r1, #119	; 0x77
 800268e:	430b      	orrs	r3, r1
      htim->Instance->SMCR = tmpsmcr;
 8002690:	6093      	str	r3, [r2, #8]
  htim->State = HAL_TIM_STATE_READY;
 8002692:	2201      	movs	r2, #1
 8002694:	2339      	movs	r3, #57	; 0x39
 8002696:	54e2      	strb	r2, [r4, r3]
  __HAL_UNLOCK(htim);
 8002698:	2200      	movs	r2, #0
 800269a:	3b01      	subs	r3, #1
 800269c:	54e2      	strb	r2, [r4, r3]
  return HAL_OK;
 800269e:	2000      	movs	r0, #0
}
 80026a0:	bd10      	pop	{r4, pc}
      TIM_TI2_ConfigInputStage(htim->Instance,
 80026a2:	68ca      	ldr	r2, [r1, #12]
 80026a4:	6849      	ldr	r1, [r1, #4]
 80026a6:	6820      	ldr	r0, [r4, #0]
 80026a8:	f7ff feae 	bl	8002408 <TIM_TI2_ConfigInputStage>
      TIM_ITRx_SetConfig(htim->Instance, TIM_CLOCKSOURCE_TI2);
 80026ac:	2160      	movs	r1, #96	; 0x60
 80026ae:	6820      	ldr	r0, [r4, #0]
 80026b0:	f7ff febe 	bl	8002430 <TIM_ITRx_SetConfig>
      break;
 80026b4:	e7ed      	b.n	8002692 <HAL_TIM_ConfigClockSource+0xa2>
      TIM_TI1_ConfigInputStage(htim->Instance,
 80026b6:	68ca      	ldr	r2, [r1, #12]
 80026b8:	6849      	ldr	r1, [r1, #4]
 80026ba:	6820      	ldr	r0, [r4, #0]
 80026bc:	f7ff fe92 	bl	80023e4 <TIM_TI1_ConfigInputStage>
      TIM_ITRx_SetConfig(htim->Instance, TIM_CLOCKSOURCE_TI1ED);
 80026c0:	2140      	movs	r1, #64	; 0x40
 80026c2:	6820      	ldr	r0, [r4, #0]
 80026c4:	f7ff feb4 	bl	8002430 <TIM_ITRx_SetConfig>
      break;
 80026c8:	e7e3      	b.n	8002692 <HAL_TIM_ConfigClockSource+0xa2>
  __HAL_LOCK(htim);
 80026ca:	2002      	movs	r0, #2
 80026cc:	e7e8      	b.n	80026a0 <HAL_TIM_ConfigClockSource+0xb0>
 80026ce:	46c0      	nop			; (mov r8, r8)
 80026d0:	ffff0088 	.word	0xffff0088

080026d4 <HAL_TIM_PeriodElapsedCallback>:
}
 80026d4:	4770      	bx	lr

080026d6 <HAL_TIM_OC_DelayElapsedCallback>:
}
 80026d6:	4770      	bx	lr

080026d8 <HAL_TIM_IC_CaptureCallback>:
}
 80026d8:	4770      	bx	lr

080026da <HAL_TIM_TriggerCallback>:
}
 80026da:	4770      	bx	lr

080026dc <HAL_TIM_IRQHandler>:
{
 80026dc:	b510      	push	{r4, lr}
 80026de:	0004      	movs	r4, r0
  if (__HAL_TIM_GET_FLAG(htim, TIM_FLAG_CC1) != RESET)
 80026e0:	6803      	ldr	r3, [r0, #0]
 80026e2:	691a      	ldr	r2, [r3, #16]
 80026e4:	0792      	lsls	r2, r2, #30
 80026e6:	d50f      	bpl.n	8002708 <HAL_TIM_IRQHandler+0x2c>
    if (__HAL_TIM_GET_IT_SOURCE(htim, TIM_IT_CC1) != RESET)
 80026e8:	68da      	ldr	r2, [r3, #12]
 80026ea:	0792      	lsls	r2, r2, #30
 80026ec:	d50c      	bpl.n	8002708 <HAL_TIM_IRQHandler+0x2c>
        __HAL_TIM_CLEAR_IT(htim, TIM_IT_CC1);
 80026ee:	2203      	movs	r2, #3
 80026f0:	4252      	negs	r2, r2
 80026f2:	611a      	str	r2, [r3, #16]
        htim->Channel = HAL_TIM_ACTIVE_CHANNEL_1;
 80026f4:	2301      	movs	r3, #1
 80026f6:	7603      	strb	r3, [r0, #24]
        if ((htim->Instance->CCMR1 & TIM_CCMR1_CC1S) != 0x00U)
 80026f8:	6803      	ldr	r3, [r0, #0]
 80026fa:	699b      	ldr	r3, [r3, #24]
 80026fc:	079b      	lsls	r3, r3, #30
 80026fe:	d055      	beq.n	80027ac <HAL_TIM_IRQHandler+0xd0>
          HAL_TIM_IC_CaptureCallback(htim);
 8002700:	f7ff ffea 	bl	80026d8 <HAL_TIM_IC_CaptureCallback>
        htim->Channel = HAL_TIM_ACTIVE_CHANNEL_CLEARED;
 8002704:	2300      	movs	r3, #0
 8002706:	7623      	strb	r3, [r4, #24]
  if (__HAL_TIM_GET_FLAG(htim, TIM_FLAG_CC2) != RESET)
 8002708:	6823      	ldr	r3, [r4, #0]
 800270a:	691a      	ldr	r2, [r3, #16]
 800270c:	0752      	lsls	r2, r2, #29
 800270e:	d512      	bpl.n	8002736 <HAL_TIM_IRQHandler+0x5a>
    if (__HAL_TIM_GET_IT_SOURCE(htim, TIM_IT_CC2) != RESET)
 8002710:	68da      	ldr	r2, [r3, #12]
 8002712:	0752      	lsls	r2, r2, #29
 8002714:	d50f      	bpl.n	8002736 <HAL_TIM_IRQHandler+0x5a>
      __HAL_TIM_CLEAR_IT(htim, TIM_IT_CC2);
 8002716:	2205      	movs	r2, #5
 8002718:	4252      	negs	r2, r2
 800271a:	611a      	str	r2, [r3, #16]
      htim->Channel = HAL_TIM_ACTIVE_CHANNEL_2;
 800271c:	2302      	movs	r3, #2
 800271e:	7623      	strb	r3, [r4, #24]
      if ((htim->Instance->CCMR1 & TIM_CCMR1_CC2S) != 0x00U)
 8002720:	6823      	ldr	r3, [r4, #0]
 8002722:	699a      	ldr	r2, [r3, #24]
 8002724:	23c0      	movs	r3, #192	; 0xc0
 8002726:	009b      	lsls	r3, r3, #2
 8002728:	421a      	tst	r2, r3
 800272a:	d045      	beq.n	80027b8 <HAL_TIM_IRQHandler+0xdc>
        HAL_TIM_IC_CaptureCallback(htim);
 800272c:	0020      	movs	r0, r4
 800272e:	f7ff ffd3 	bl	80026d8 <HAL_TIM_IC_CaptureCallback>
      htim->Channel = HAL_TIM_ACTIVE_CHANNEL_CLEARED;
 8002732:	2300      	movs	r3, #0
 8002734:	7623      	strb	r3, [r4, #24]
  if (__HAL_TIM_GET_FLAG(htim, TIM_FLAG_CC3) != RESET)
 8002736:	6823      	ldr	r3, [r4, #0]
 8002738:	691a      	ldr	r2, [r3, #16]
 800273a:	0712      	lsls	r2, r2, #28
 800273c:	d510      	bpl.n	8002760 <HAL_TIM_IRQHandler+0x84>
    if (__HAL_TIM_GET_IT_SOURCE(htim, TIM_IT_CC3) != RESET)
 800273e:	68da      	ldr	r2, [r3, #12]
 8002740:	0712      	lsls	r2, r2, #28
 8002742:	d50d      	bpl.n	8002760 <HAL_TIM_IRQHandler+0x84>
      __HAL_TIM_CLEAR_IT(htim, TIM_IT_CC3);
 8002744:	2209      	movs	r2, #9
 8002746:	4252      	negs	r2, r2
 8002748:	611a      	str	r2, [r3, #16]
      htim->Channel = HAL_TIM_ACTIVE_CHANNEL_3;
 800274a:	2304      	movs	r3, #4
 800274c:	7623      	strb	r3, [r4, #24]
      if ((htim->Instance->CCMR2 & TIM_CCMR2_CC3S) != 0x00U)
 800274e:	6823      	ldr	r3, [r4, #0]
 8002750:	69db      	ldr	r3, [r3, #28]
 8002752:	079b      	lsls	r3, r3, #30
 8002754:	d037      	beq.n	80027c6 <HAL_TIM_IRQHandler+0xea>
        HAL_TIM_IC_CaptureCallback(htim);
 8002756:	0020      	movs	r0, r4
 8002758:	f7ff ffbe 	bl	80026d8 <HAL_TIM_IC_CaptureCallback>
      htim->Channel = HAL_TIM_ACTIVE_CHANNEL_CLEARED;
 800275c:	2300      	movs	r3, #0
 800275e:	7623      	strb	r3, [r4, #24]
  if (__HAL_TIM_GET_FLAG(htim, TIM_FLAG_CC4) != RESET)
 8002760:	6823      	ldr	r3, [r4, #0]
 8002762:	691a      	ldr	r2, [r3, #16]
 8002764:	06d2      	lsls	r2, r2, #27
 8002766:	d512      	bpl.n	800278e <HAL_TIM_IRQHandler+0xb2>
    if (__HAL_TIM_GET_IT_SOURCE(htim, TIM_IT_CC4) != RESET)
 8002768:	68da      	ldr	r2, [r3, #12]
 800276a:	06d2      	lsls	r2, r2, #27
 800276c:	d50f      	bpl.n	800278e <HAL_TIM_IRQHandler+0xb2>
      __HAL_TIM_CLEAR_IT(htim, TIM_IT_CC4);
 800276e:	2211      	movs	r2, #17
 8002770:	4252      	negs	r2, r2
 8002772:	611a      	str	r2, [r3, #16]
      htim->Channel = HAL_TIM_ACTIVE_CHANNEL_4;
 8002774:	2308      	movs	r3, #8
 8002776:	7623      	strb	r3, [r4, #24]
      if ((htim->Instance->CCMR2 & TIM_CCMR2_CC4S) != 0x00U)
 8002778:	6823      	ldr	r3, [r4, #0]
 800277a:	69da      	ldr	r2, [r3, #28]
 800277c:	23c0      	movs	r3, #192	; 0xc0
 800277e:	009b      	lsls	r3, r3, #2
 8002780:	421a      	tst	r2, r3
 8002782:	d027      	beq.n	80027d4 <HAL_TIM_IRQHandler+0xf8>
        HAL_TIM_IC_CaptureCallback(htim);
 8002784:	0020      	movs	r0, r4
 8002786:	f7ff ffa7 	bl	80026d8 <HAL_TIM_IC_CaptureCallback>
      htim->Channel = HAL_TIM_ACTIVE_CHANNEL_CLEARED;
 800278a:	2300      	movs	r3, #0
 800278c:	7623      	strb	r3, [r4, #24]
  if (__HAL_TIM_GET_FLAG(htim, TIM_FLAG_UPDATE) != RESET)
 800278e:	6823      	ldr	r3, [r4, #0]
 8002790:	691a      	ldr	r2, [r3, #16]
 8002792:	07d2      	lsls	r2, r2, #31
 8002794:	d502      	bpl.n	800279c <HAL_TIM_IRQHandler+0xc0>
    if (__HAL_TIM_GET_IT_SOURCE(htim, TIM_IT_UPDATE) != RESET)
 8002796:	68da      	ldr	r2, [r3, #12]
 8002798:	07d2      	lsls	r2, r2, #31
 800279a:	d422      	bmi.n	80027e2 <HAL_TIM_IRQHandler+0x106>
  if (__HAL_TIM_GET_FLAG(htim, TIM_FLAG_TRIGGER) != RESET)
 800279c:	6823      	ldr	r3, [r4, #0]
 800279e:	691a      	ldr	r2, [r3, #16]
 80027a0:	0652      	lsls	r2, r2, #25
 80027a2:	d502      	bpl.n	80027aa <HAL_TIM_IRQHandler+0xce>
    if (__HAL_TIM_GET_IT_SOURCE(htim, TIM_IT_TRIGGER) != RESET)
 80027a4:	68da      	ldr	r2, [r3, #12]
 80027a6:	0652      	lsls	r2, r2, #25
 80027a8:	d422      	bmi.n	80027f0 <HAL_TIM_IRQHandler+0x114>
}
 80027aa:	bd10      	pop	{r4, pc}
          HAL_TIM_OC_DelayElapsedCallback(htim);
 80027ac:	f7ff ff93 	bl	80026d6 <HAL_TIM_OC_DelayElapsedCallback>
          HAL_TIM_PWM_PulseFinishedCallback(htim);
 80027b0:	0020      	movs	r0, r4
 80027b2:	f000 fe91 	bl	80034d8 <HAL_TIM_PWM_PulseFinishedCallback>
 80027b6:	e7a5      	b.n	8002704 <HAL_TIM_IRQHandler+0x28>
        HAL_TIM_OC_DelayElapsedCallback(htim);
 80027b8:	0020      	movs	r0, r4
 80027ba:	f7ff ff8c 	bl	80026d6 <HAL_TIM_OC_DelayElapsedCallback>
        HAL_TIM_PWM_PulseFinishedCallback(htim);
 80027be:	0020      	movs	r0, r4
 80027c0:	f000 fe8a 	bl	80034d8 <HAL_TIM_PWM_PulseFinishedCallback>
 80027c4:	e7b5      	b.n	8002732 <HAL_TIM_IRQHandler+0x56>
        HAL_TIM_OC_DelayElapsedCallback(htim);
 80027c6:	0020      	movs	r0, r4
 80027c8:	f7ff ff85 	bl	80026d6 <HAL_TIM_OC_DelayElapsedCallback>
        HAL_TIM_PWM_PulseFinishedCallback(htim);
 80027cc:	0020      	movs	r0, r4
 80027ce:	f000 fe83 	bl	80034d8 <HAL_TIM_PWM_PulseFinishedCallback>
 80027d2:	e7c3      	b.n	800275c <HAL_TIM_IRQHandler+0x80>
        HAL_TIM_OC_DelayElapsedCallback(htim);
 80027d4:	0020      	movs	r0, r4
 80027d6:	f7ff ff7e 	bl	80026d6 <HAL_TIM_OC_DelayElapsedCallback>
        HAL_TIM_PWM_PulseFinishedCallback(htim);
 80027da:	0020      	movs	r0, r4
 80027dc:	f000 fe7c 	bl	80034d8 <HAL_TIM_PWM_PulseFinishedCallback>
 80027e0:	e7d3      	b.n	800278a <HAL_TIM_IRQHandler+0xae>
      __HAL_TIM_CLEAR_IT(htim, TIM_IT_UPDATE);
 80027e2:	2202      	movs	r2, #2
 80027e4:	4252      	negs	r2, r2
 80027e6:	611a      	str	r2, [r3, #16]
      HAL_TIM_PeriodElapsedCallback(htim);
 80027e8:	0020      	movs	r0, r4
 80027ea:	f7ff ff73 	bl	80026d4 <HAL_TIM_PeriodElapsedCallback>
 80027ee:	e7d5      	b.n	800279c <HAL_TIM_IRQHandler+0xc0>
      __HAL_TIM_CLEAR_IT(htim, TIM_IT_TRIGGER);
 80027f0:	2241      	movs	r2, #65	; 0x41
 80027f2:	4252      	negs	r2, r2
 80027f4:	611a      	str	r2, [r3, #16]
      HAL_TIM_TriggerCallback(htim);
 80027f6:	0020      	movs	r0, r4
 80027f8:	f7ff ff6f 	bl	80026da <HAL_TIM_TriggerCallback>
}
 80027fc:	e7d5      	b.n	80027aa <HAL_TIM_IRQHandler+0xce>

080027fe <HAL_TIMEx_MasterConfigSynchronization>:
  *         mode.
  * @retval HAL status
  */
HAL_StatusTypeDef HAL_TIMEx_MasterConfigSynchronization(TIM_HandleTypeDef *htim,
                                                        TIM_MasterConfigTypeDef *sMasterConfig)
{
 80027fe:	b5f0      	push	{r4, r5, r6, r7, lr}
 8002800:	46ce      	mov	lr, r9
 8002802:	4647      	mov	r7, r8
 8002804:	b580      	push	{r7, lr}
  assert_param(IS_TIM_SYNCHRO_INSTANCE(htim->Instance));
  assert_param(IS_TIM_TRGO_SOURCE(sMasterConfig->MasterOutputTrigger));
  assert_param(IS_TIM_MSM_STATE(sMasterConfig->MasterSlaveMode));

  /* Check input state */
  __HAL_LOCK(htim);
 8002806:	2338      	movs	r3, #56	; 0x38
 8002808:	5cc3      	ldrb	r3, [r0, r3]
 800280a:	2b01      	cmp	r3, #1
 800280c:	d020      	beq.n	8002850 <HAL_TIMEx_MasterConfigSynchronization+0x52>
 800280e:	2538      	movs	r5, #56	; 0x38
 8002810:	2701      	movs	r7, #1
 8002812:	5547      	strb	r7, [r0, r5]

  /* Change the handler state */
  htim->State = HAL_TIM_STATE_BUSY;
 8002814:	2639      	movs	r6, #57	; 0x39
 8002816:	2302      	movs	r3, #2
 8002818:	5583      	strb	r3, [r0, r6]

  /* Get the TIMx CR2 register value */
  tmpcr2 = htim->Instance->CR2;
 800281a:	6804      	ldr	r4, [r0, #0]
 800281c:	6862      	ldr	r2, [r4, #4]

  /* Get the TIMx SMCR register value */
  tmpsmcr = htim->Instance->SMCR;
 800281e:	68a3      	ldr	r3, [r4, #8]
 8002820:	4698      	mov	r8, r3

  /* Reset the MMS Bits */
  tmpcr2 &= ~TIM_CR2_MMS;
 8002822:	2370      	movs	r3, #112	; 0x70
 8002824:	439a      	bics	r2, r3
  /* Select the TRGO source */
  tmpcr2 |=  sMasterConfig->MasterOutputTrigger;
 8002826:	680b      	ldr	r3, [r1, #0]
 8002828:	431a      	orrs	r2, r3
 800282a:	4691      	mov	r9, r2

  /* Reset the MSM Bit */
  tmpsmcr &= ~TIM_SMCR_MSM;
 800282c:	2380      	movs	r3, #128	; 0x80
 800282e:	4642      	mov	r2, r8
 8002830:	439a      	bics	r2, r3
 8002832:	0013      	movs	r3, r2
  /* Set master mode */
  tmpsmcr |= sMasterConfig->MasterSlaveMode;
 8002834:	6849      	ldr	r1, [r1, #4]
 8002836:	430b      	orrs	r3, r1

  /* Update TIMx CR2 */
  htim->Instance->CR2 = tmpcr2;
 8002838:	464a      	mov	r2, r9
 800283a:	6062      	str	r2, [r4, #4]

  /* Update TIMx SMCR */
  htim->Instance->SMCR = tmpsmcr;
 800283c:	6802      	ldr	r2, [r0, #0]
 800283e:	6093      	str	r3, [r2, #8]

  /* Change the htim state */
  htim->State = HAL_TIM_STATE_READY;
 8002840:	5587      	strb	r7, [r0, r6]

  __HAL_UNLOCK(htim);
 8002842:	2300      	movs	r3, #0
 8002844:	5543      	strb	r3, [r0, r5]

  return HAL_OK;
 8002846:	2000      	movs	r0, #0
}
 8002848:	bc0c      	pop	{r2, r3}
 800284a:	4690      	mov	r8, r2
 800284c:	4699      	mov	r9, r3
 800284e:	bdf0      	pop	{r4, r5, r6, r7, pc}
  __HAL_LOCK(htim);
 8002850:	2002      	movs	r0, #2
 8002852:	e7f9      	b.n	8002848 <HAL_TIMEx_MasterConfigSynchronization+0x4a>

08002854 <HAL_TIMEx_RemapConfig>:
  *
  * @retval HAL status
  */
HAL_StatusTypeDef HAL_TIMEx_RemapConfig(TIM_HandleTypeDef *htim, uint32_t Remap)
{
  __HAL_LOCK(htim);
 8002854:	2338      	movs	r3, #56	; 0x38
 8002856:	5cc3      	ldrb	r3, [r0, r3]
 8002858:	2b01      	cmp	r3, #1
 800285a:	d006      	beq.n	800286a <HAL_TIMEx_RemapConfig+0x16>

  /* Check parameters */
  assert_param(IS_TIM_REMAP(htim->Instance, Remap));

  /* Set the Timer remapping configuration */
  WRITE_REG(htim->Instance->OR, Remap);
 800285c:	6803      	ldr	r3, [r0, #0]
 800285e:	6519      	str	r1, [r3, #80]	; 0x50

  __HAL_UNLOCK(htim);
 8002860:	2200      	movs	r2, #0
 8002862:	2338      	movs	r3, #56	; 0x38
 8002864:	54c2      	strb	r2, [r0, r3]

  return HAL_OK;
 8002866:	2000      	movs	r0, #0
}
 8002868:	4770      	bx	lr
  __HAL_LOCK(htim);
 800286a:	2002      	movs	r0, #2
 800286c:	e7fc      	b.n	8002868 <HAL_TIMEx_RemapConfig+0x14>
	...

08002870 <UART_EndRxTransfer>:
  * @retval None
  */
static void UART_EndRxTransfer(UART_HandleTypeDef *huart)
{
  /* Disable RXNE, PE and ERR (Frame error, noise error, overrun error) interrupts */
  CLEAR_BIT(huart->Instance->CR1, (USART_CR1_RXNEIE | USART_CR1_PEIE));
 8002870:	6802      	ldr	r2, [r0, #0]
 8002872:	6813      	ldr	r3, [r2, #0]
 8002874:	4906      	ldr	r1, [pc, #24]	; (8002890 <UART_EndRxTransfer+0x20>)
 8002876:	400b      	ands	r3, r1
 8002878:	6013      	str	r3, [r2, #0]
  CLEAR_BIT(huart->Instance->CR3, USART_CR3_EIE);
 800287a:	6802      	ldr	r2, [r0, #0]
 800287c:	6893      	ldr	r3, [r2, #8]
 800287e:	3123      	adds	r1, #35	; 0x23
 8002880:	31ff      	adds	r1, #255	; 0xff
 8002882:	438b      	bics	r3, r1
 8002884:	6093      	str	r3, [r2, #8]

  /* At end of Rx process, restore huart->RxState to Ready */
  huart->RxState = HAL_UART_STATE_READY;
 8002886:	2320      	movs	r3, #32
 8002888:	6783      	str	r3, [r0, #120]	; 0x78

  /* Reset RxIsr function pointer */
  huart->RxISR = NULL;
 800288a:	2300      	movs	r3, #0
 800288c:	6603      	str	r3, [r0, #96]	; 0x60
}
 800288e:	4770      	bx	lr
 8002890:	fffffedf 	.word	0xfffffedf

08002894 <HAL_UART_Receive_IT>:
{
 8002894:	b530      	push	{r4, r5, lr}
  if (huart->RxState == HAL_UART_STATE_READY)
 8002896:	6f83      	ldr	r3, [r0, #120]	; 0x78
 8002898:	2b20      	cmp	r3, #32
 800289a:	d001      	beq.n	80028a0 <HAL_UART_Receive_IT+0xc>
    return HAL_BUSY;
 800289c:	2002      	movs	r0, #2
}
 800289e:	bd30      	pop	{r4, r5, pc}
    if ((pData == NULL) || (Size == 0U))
 80028a0:	2900      	cmp	r1, #0
 80028a2:	d069      	beq.n	8002978 <HAL_UART_Receive_IT+0xe4>
 80028a4:	2a00      	cmp	r2, #0
 80028a6:	d069      	beq.n	800297c <HAL_UART_Receive_IT+0xe8>
    if ((huart->Init.WordLength == UART_WORDLENGTH_9B) && (huart->Init.Parity == UART_PARITY_NONE))
 80028a8:	6883      	ldr	r3, [r0, #8]
 80028aa:	2480      	movs	r4, #128	; 0x80
 80028ac:	0164      	lsls	r4, r4, #5
 80028ae:	42a3      	cmp	r3, r4
 80028b0:	d01a      	beq.n	80028e8 <HAL_UART_Receive_IT+0x54>
    __HAL_LOCK(huart);
 80028b2:	2470      	movs	r4, #112	; 0x70
 80028b4:	5d04      	ldrb	r4, [r0, r4]
 80028b6:	2c01      	cmp	r4, #1
 80028b8:	d062      	beq.n	8002980 <HAL_UART_Receive_IT+0xec>
 80028ba:	2501      	movs	r5, #1
 80028bc:	2470      	movs	r4, #112	; 0x70
 80028be:	5505      	strb	r5, [r0, r4]
    huart->pRxBuffPtr  = pData;
 80028c0:	6541      	str	r1, [r0, #84]	; 0x54
    huart->RxXferSize  = Size;
 80028c2:	2158      	movs	r1, #88	; 0x58
 80028c4:	5242      	strh	r2, [r0, r1]
    huart->RxXferCount = Size;
 80028c6:	3102      	adds	r1, #2
 80028c8:	5242      	strh	r2, [r0, r1]
    huart->RxISR       = NULL;
 80028ca:	2200      	movs	r2, #0
 80028cc:	6602      	str	r2, [r0, #96]	; 0x60
    UART_MASK_COMPUTATION(huart);
 80028ce:	2280      	movs	r2, #128	; 0x80
 80028d0:	0152      	lsls	r2, r2, #5
 80028d2:	4293      	cmp	r3, r2
 80028d4:	d00f      	beq.n	80028f6 <HAL_UART_Receive_IT+0x62>
 80028d6:	2b00      	cmp	r3, #0
 80028d8:	d11c      	bne.n	8002914 <HAL_UART_Receive_IT+0x80>
 80028da:	6903      	ldr	r3, [r0, #16]
 80028dc:	2b00      	cmp	r3, #0
 80028de:	d115      	bne.n	800290c <HAL_UART_Receive_IT+0x78>
 80028e0:	22ff      	movs	r2, #255	; 0xff
 80028e2:	335c      	adds	r3, #92	; 0x5c
 80028e4:	52c2      	strh	r2, [r0, r3]
 80028e6:	e01c      	b.n	8002922 <HAL_UART_Receive_IT+0x8e>
    if ((huart->Init.WordLength == UART_WORDLENGTH_9B) && (huart->Init.Parity == UART_PARITY_NONE))
 80028e8:	6904      	ldr	r4, [r0, #16]
 80028ea:	2c00      	cmp	r4, #0
 80028ec:	d1e1      	bne.n	80028b2 <HAL_UART_Receive_IT+0x1e>
      if ((((uint32_t)pData) & 1) != 0)
 80028ee:	07cc      	lsls	r4, r1, #31
 80028f0:	d5df      	bpl.n	80028b2 <HAL_UART_Receive_IT+0x1e>
        return  HAL_ERROR;
 80028f2:	2001      	movs	r0, #1
 80028f4:	e7d3      	b.n	800289e <HAL_UART_Receive_IT+0xa>
    UART_MASK_COMPUTATION(huart);
 80028f6:	6903      	ldr	r3, [r0, #16]
 80028f8:	2b00      	cmp	r3, #0
 80028fa:	d103      	bne.n	8002904 <HAL_UART_Receive_IT+0x70>
 80028fc:	4a21      	ldr	r2, [pc, #132]	; (8002984 <HAL_UART_Receive_IT+0xf0>)
 80028fe:	335c      	adds	r3, #92	; 0x5c
 8002900:	52c2      	strh	r2, [r0, r3]
 8002902:	e00e      	b.n	8002922 <HAL_UART_Receive_IT+0x8e>
 8002904:	22ff      	movs	r2, #255	; 0xff
 8002906:	235c      	movs	r3, #92	; 0x5c
 8002908:	52c2      	strh	r2, [r0, r3]
 800290a:	e00a      	b.n	8002922 <HAL_UART_Receive_IT+0x8e>
 800290c:	227f      	movs	r2, #127	; 0x7f
 800290e:	235c      	movs	r3, #92	; 0x5c
 8002910:	52c2      	strh	r2, [r0, r3]
 8002912:	e006      	b.n	8002922 <HAL_UART_Receive_IT+0x8e>
 8002914:	2280      	movs	r2, #128	; 0x80
 8002916:	0552      	lsls	r2, r2, #21
 8002918:	4293      	cmp	r3, r2
 800291a:	d01c      	beq.n	8002956 <HAL_UART_Receive_IT+0xc2>
 800291c:	2200      	movs	r2, #0
 800291e:	235c      	movs	r3, #92	; 0x5c
 8002920:	52c2      	strh	r2, [r0, r3]
    huart->ErrorCode = HAL_UART_ERROR_NONE;
 8002922:	2300      	movs	r3, #0
 8002924:	67c3      	str	r3, [r0, #124]	; 0x7c
    huart->RxState = HAL_UART_STATE_BUSY_RX;
 8002926:	3322      	adds	r3, #34	; 0x22
 8002928:	6783      	str	r3, [r0, #120]	; 0x78
    SET_BIT(huart->Instance->CR3, USART_CR3_EIE);
 800292a:	6802      	ldr	r2, [r0, #0]
 800292c:	6893      	ldr	r3, [r2, #8]
 800292e:	2101      	movs	r1, #1
 8002930:	430b      	orrs	r3, r1
 8002932:	6093      	str	r3, [r2, #8]
    if ((huart->Init.WordLength == UART_WORDLENGTH_9B) && (huart->Init.Parity == UART_PARITY_NONE))
 8002934:	2380      	movs	r3, #128	; 0x80
 8002936:	015b      	lsls	r3, r3, #5
 8002938:	6882      	ldr	r2, [r0, #8]
 800293a:	429a      	cmp	r2, r3
 800293c:	d016      	beq.n	800296c <HAL_UART_Receive_IT+0xd8>
      huart->RxISR = UART_RxISR_8BIT;
 800293e:	4b12      	ldr	r3, [pc, #72]	; (8002988 <HAL_UART_Receive_IT+0xf4>)
 8002940:	6603      	str	r3, [r0, #96]	; 0x60
    __HAL_UNLOCK(huart);
 8002942:	2200      	movs	r2, #0
 8002944:	2370      	movs	r3, #112	; 0x70
 8002946:	54c2      	strb	r2, [r0, r3]
    SET_BIT(huart->Instance->CR1, USART_CR1_PEIE | USART_CR1_RXNEIE);
 8002948:	6802      	ldr	r2, [r0, #0]
 800294a:	6811      	ldr	r1, [r2, #0]
 800294c:	33b0      	adds	r3, #176	; 0xb0
 800294e:	430b      	orrs	r3, r1
 8002950:	6013      	str	r3, [r2, #0]
    return HAL_OK;
 8002952:	2000      	movs	r0, #0
 8002954:	e7a3      	b.n	800289e <HAL_UART_Receive_IT+0xa>
    UART_MASK_COMPUTATION(huart);
 8002956:	6903      	ldr	r3, [r0, #16]
 8002958:	2b00      	cmp	r3, #0
 800295a:	d103      	bne.n	8002964 <HAL_UART_Receive_IT+0xd0>
 800295c:	227f      	movs	r2, #127	; 0x7f
 800295e:	335c      	adds	r3, #92	; 0x5c
 8002960:	52c2      	strh	r2, [r0, r3]
 8002962:	e7de      	b.n	8002922 <HAL_UART_Receive_IT+0x8e>
 8002964:	223f      	movs	r2, #63	; 0x3f
 8002966:	235c      	movs	r3, #92	; 0x5c
 8002968:	52c2      	strh	r2, [r0, r3]
 800296a:	e7da      	b.n	8002922 <HAL_UART_Receive_IT+0x8e>
    if ((huart->Init.WordLength == UART_WORDLENGTH_9B) && (huart->Init.Parity == UART_PARITY_NONE))
 800296c:	6903      	ldr	r3, [r0, #16]
 800296e:	2b00      	cmp	r3, #0
 8002970:	d1e5      	bne.n	800293e <HAL_UART_Receive_IT+0xaa>
      huart->RxISR = UART_RxISR_16BIT;
 8002972:	4b06      	ldr	r3, [pc, #24]	; (800298c <HAL_UART_Receive_IT+0xf8>)
 8002974:	6603      	str	r3, [r0, #96]	; 0x60
 8002976:	e7e4      	b.n	8002942 <HAL_UART_Receive_IT+0xae>
      return HAL_ERROR;
 8002978:	2001      	movs	r0, #1
 800297a:	e790      	b.n	800289e <HAL_UART_Receive_IT+0xa>
 800297c:	2001      	movs	r0, #1
 800297e:	e78e      	b.n	800289e <HAL_UART_Receive_IT+0xa>
    __HAL_LOCK(huart);
 8002980:	2002      	movs	r0, #2
 8002982:	e78c      	b.n	800289e <HAL_UART_Receive_IT+0xa>
 8002984:	000001ff 	.word	0x000001ff
 8002988:	080029b1 	.word	0x080029b1
 800298c:	08002a15 	.word	0x08002a15

08002990 <HAL_UART_TxCpltCallback>:
}
 8002990:	4770      	bx	lr

08002992 <UART_EndTransmit_IT>:
  * @param  huart pointer to a UART_HandleTypeDef structure that contains
  *                the configuration information for the specified UART module.
  * @retval None
  */
static void UART_EndTransmit_IT(UART_HandleTypeDef *huart)
{
 8002992:	b510      	push	{r4, lr}
  /* Disable the UART Transmit Complete Interrupt */
  CLEAR_BIT(huart->Instance->CR1, USART_CR1_TCIE);
 8002994:	6802      	ldr	r2, [r0, #0]
 8002996:	6813      	ldr	r3, [r2, #0]
 8002998:	2140      	movs	r1, #64	; 0x40
 800299a:	438b      	bics	r3, r1
 800299c:	6013      	str	r3, [r2, #0]

  /* Tx process is ended, restore huart->gState to Ready */
  huart->gState = HAL_UART_STATE_READY;
 800299e:	2320      	movs	r3, #32
 80029a0:	6743      	str	r3, [r0, #116]	; 0x74

  /* Cleat TxISR function pointer */
  huart->TxISR = NULL;
 80029a2:	2300      	movs	r3, #0
 80029a4:	6643      	str	r3, [r0, #100]	; 0x64
#if (USE_HAL_UART_REGISTER_CALLBACKS == 1)
  /*Call registered Tx complete callback*/
  huart->TxCpltCallback(huart);
#else
  /*Call legacy weak Tx complete callback*/
  HAL_UART_TxCpltCallback(huart);
 80029a6:	f7ff fff3 	bl	8002990 <HAL_UART_TxCpltCallback>
#endif /* USE_HAL_UART_REGISTER_CALLBACKS */
}
 80029aa:	bd10      	pop	{r4, pc}

080029ac <HAL_UART_RxCpltCallback>:
}
 80029ac:	4770      	bx	lr
	...

080029b0 <UART_RxISR_8BIT>:
  * @brief RX interrrupt handler for 7 or 8 bits data word length .
  * @param huart UART handle.
  * @retval None
  */
static void UART_RxISR_8BIT(UART_HandleTypeDef *huart)
{
 80029b0:	b510      	push	{r4, lr}
  uint16_t uhMask = huart->Mask;
 80029b2:	235c      	movs	r3, #92	; 0x5c
 80029b4:	5ac2      	ldrh	r2, [r0, r3]
  uint16_t  uhdata;

  /* Check that a Rx process is ongoing */
  if (huart->RxState == HAL_UART_STATE_BUSY_RX)
 80029b6:	6f83      	ldr	r3, [r0, #120]	; 0x78
 80029b8:	2b22      	cmp	r3, #34	; 0x22
 80029ba:	d005      	beq.n	80029c8 <UART_RxISR_8BIT+0x18>
    }
  }
  else
  {
    /* Clear RXNE interrupt flag */
    __HAL_UART_SEND_REQ(huart, UART_RXDATA_FLUSH_REQUEST);
 80029bc:	6802      	ldr	r2, [r0, #0]
 80029be:	6993      	ldr	r3, [r2, #24]
 80029c0:	2108      	movs	r1, #8
 80029c2:	430b      	orrs	r3, r1
 80029c4:	6193      	str	r3, [r2, #24]
  }
}
 80029c6:	bd10      	pop	{r4, pc}
    uhdata = (uint16_t) READ_REG(huart->Instance->RDR);
 80029c8:	6803      	ldr	r3, [r0, #0]
 80029ca:	6a5b      	ldr	r3, [r3, #36]	; 0x24
    *huart->pRxBuffPtr = (uint8_t)(uhdata & (uint8_t)uhMask);
 80029cc:	b2d2      	uxtb	r2, r2
 80029ce:	401a      	ands	r2, r3
 80029d0:	6d43      	ldr	r3, [r0, #84]	; 0x54
 80029d2:	701a      	strb	r2, [r3, #0]
    huart->pRxBuffPtr++;
 80029d4:	6d43      	ldr	r3, [r0, #84]	; 0x54
 80029d6:	3301      	adds	r3, #1
 80029d8:	6543      	str	r3, [r0, #84]	; 0x54
    huart->RxXferCount--;
 80029da:	225a      	movs	r2, #90	; 0x5a
 80029dc:	5a83      	ldrh	r3, [r0, r2]
 80029de:	3b01      	subs	r3, #1
 80029e0:	b29b      	uxth	r3, r3
 80029e2:	5283      	strh	r3, [r0, r2]
    if (huart->RxXferCount == 0U)
 80029e4:	5a83      	ldrh	r3, [r0, r2]
 80029e6:	b29b      	uxth	r3, r3
 80029e8:	2b00      	cmp	r3, #0
 80029ea:	d1ec      	bne.n	80029c6 <UART_RxISR_8BIT+0x16>
      CLEAR_BIT(huart->Instance->CR1, (USART_CR1_RXNEIE | USART_CR1_PEIE));
 80029ec:	6802      	ldr	r2, [r0, #0]
 80029ee:	6813      	ldr	r3, [r2, #0]
 80029f0:	4907      	ldr	r1, [pc, #28]	; (8002a10 <UART_RxISR_8BIT+0x60>)
 80029f2:	400b      	ands	r3, r1
 80029f4:	6013      	str	r3, [r2, #0]
      CLEAR_BIT(huart->Instance->CR3, USART_CR3_EIE);
 80029f6:	6802      	ldr	r2, [r0, #0]
 80029f8:	6893      	ldr	r3, [r2, #8]
 80029fa:	3123      	adds	r1, #35	; 0x23
 80029fc:	31ff      	adds	r1, #255	; 0xff
 80029fe:	438b      	bics	r3, r1
 8002a00:	6093      	str	r3, [r2, #8]
      huart->RxState = HAL_UART_STATE_READY;
 8002a02:	2320      	movs	r3, #32
 8002a04:	6783      	str	r3, [r0, #120]	; 0x78
      huart->RxISR = NULL;
 8002a06:	2300      	movs	r3, #0
 8002a08:	6603      	str	r3, [r0, #96]	; 0x60
      HAL_UART_RxCpltCallback(huart);
 8002a0a:	f7ff ffcf 	bl	80029ac <HAL_UART_RxCpltCallback>
 8002a0e:	e7da      	b.n	80029c6 <UART_RxISR_8BIT+0x16>
 8002a10:	fffffedf 	.word	0xfffffedf

08002a14 <UART_RxISR_16BIT>:
  *         interruptions have been enabled by HAL_UART_Receive_IT()
  * @param huart UART handle.
  * @retval None
  */
static void UART_RxISR_16BIT(UART_HandleTypeDef *huart)
{
 8002a14:	b510      	push	{r4, lr}
  uint16_t *tmp;
  uint16_t uhMask = huart->Mask;
 8002a16:	235c      	movs	r3, #92	; 0x5c
 8002a18:	5ac2      	ldrh	r2, [r0, r3]
  uint16_t  uhdata;

  /* Check that a Rx process is ongoing */
  if (huart->RxState == HAL_UART_STATE_BUSY_RX)
 8002a1a:	6f83      	ldr	r3, [r0, #120]	; 0x78
 8002a1c:	2b22      	cmp	r3, #34	; 0x22
 8002a1e:	d005      	beq.n	8002a2c <UART_RxISR_16BIT+0x18>
    }
  }
  else
  {
    /* Clear RXNE interrupt flag */
    __HAL_UART_SEND_REQ(huart, UART_RXDATA_FLUSH_REQUEST);
 8002a20:	6802      	ldr	r2, [r0, #0]
 8002a22:	6993      	ldr	r3, [r2, #24]
 8002a24:	2108      	movs	r1, #8
 8002a26:	430b      	orrs	r3, r1
 8002a28:	6193      	str	r3, [r2, #24]
  }
}
 8002a2a:	bd10      	pop	{r4, pc}
    uhdata = (uint16_t) READ_REG(huart->Instance->RDR);
 8002a2c:	6803      	ldr	r3, [r0, #0]
 8002a2e:	6a5b      	ldr	r3, [r3, #36]	; 0x24
    *tmp = (uint16_t)(uhdata & uhMask);
 8002a30:	401a      	ands	r2, r3
 8002a32:	6d43      	ldr	r3, [r0, #84]	; 0x54
 8002a34:	801a      	strh	r2, [r3, #0]
    huart->pRxBuffPtr += 2U;
 8002a36:	6d43      	ldr	r3, [r0, #84]	; 0x54
 8002a38:	3302      	adds	r3, #2
 8002a3a:	6543      	str	r3, [r0, #84]	; 0x54
    huart->RxXferCount--;
 8002a3c:	225a      	movs	r2, #90	; 0x5a
 8002a3e:	5a83      	ldrh	r3, [r0, r2]
 8002a40:	3b01      	subs	r3, #1
 8002a42:	b29b      	uxth	r3, r3
 8002a44:	5283      	strh	r3, [r0, r2]
    if (huart->RxXferCount == 0U)
 8002a46:	5a83      	ldrh	r3, [r0, r2]
 8002a48:	b29b      	uxth	r3, r3
 8002a4a:	2b00      	cmp	r3, #0
 8002a4c:	d1ed      	bne.n	8002a2a <UART_RxISR_16BIT+0x16>
      CLEAR_BIT(huart->Instance->CR1, (USART_CR1_RXNEIE | USART_CR1_PEIE));
 8002a4e:	6802      	ldr	r2, [r0, #0]
 8002a50:	6813      	ldr	r3, [r2, #0]
 8002a52:	4908      	ldr	r1, [pc, #32]	; (8002a74 <UART_RxISR_16BIT+0x60>)
 8002a54:	400b      	ands	r3, r1
 8002a56:	6013      	str	r3, [r2, #0]
      CLEAR_BIT(huart->Instance->CR3, USART_CR3_EIE);
 8002a58:	6802      	ldr	r2, [r0, #0]
 8002a5a:	6893      	ldr	r3, [r2, #8]
 8002a5c:	3123      	adds	r1, #35	; 0x23
 8002a5e:	31ff      	adds	r1, #255	; 0xff
 8002a60:	438b      	bics	r3, r1
 8002a62:	6093      	str	r3, [r2, #8]
      huart->RxState = HAL_UART_STATE_READY;
 8002a64:	2320      	movs	r3, #32
 8002a66:	6783      	str	r3, [r0, #120]	; 0x78
      huart->RxISR = NULL;
 8002a68:	2300      	movs	r3, #0
 8002a6a:	6603      	str	r3, [r0, #96]	; 0x60
      HAL_UART_RxCpltCallback(huart);
 8002a6c:	f7ff ff9e 	bl	80029ac <HAL_UART_RxCpltCallback>
 8002a70:	e7db      	b.n	8002a2a <UART_RxISR_16BIT+0x16>
 8002a72:	46c0      	nop			; (mov r8, r8)
 8002a74:	fffffedf 	.word	0xfffffedf

08002a78 <HAL_UART_ErrorCallback>:
}
 8002a78:	4770      	bx	lr
	...

08002a7c <HAL_UART_IRQHandler>:
{
 8002a7c:	b570      	push	{r4, r5, r6, lr}
 8002a7e:	0004      	movs	r4, r0
  uint32_t isrflags   = READ_REG(huart->Instance->ISR);
 8002a80:	6801      	ldr	r1, [r0, #0]
 8002a82:	69cb      	ldr	r3, [r1, #28]
  uint32_t cr1its     = READ_REG(huart->Instance->CR1);
 8002a84:	6808      	ldr	r0, [r1, #0]
  uint32_t cr3its     = READ_REG(huart->Instance->CR3);
 8002a86:	688d      	ldr	r5, [r1, #8]
  errorflags = (isrflags & (uint32_t)(USART_ISR_PE | USART_ISR_FE | USART_ISR_ORE | USART_ISR_NE));
 8002a88:	220f      	movs	r2, #15
 8002a8a:	401a      	ands	r2, r3
  if (errorflags == 0U)
 8002a8c:	d10a      	bne.n	8002aa4 <HAL_UART_IRQHandler+0x28>
    if (((isrflags & USART_ISR_RXNE) != 0U)
 8002a8e:	069e      	lsls	r6, r3, #26
 8002a90:	d508      	bpl.n	8002aa4 <HAL_UART_IRQHandler+0x28>
        && ((cr1its & USART_CR1_RXNEIE) != 0U))
 8002a92:	0686      	lsls	r6, r0, #26
 8002a94:	d506      	bpl.n	8002aa4 <HAL_UART_IRQHandler+0x28>
      if (huart->RxISR != NULL)
 8002a96:	6e23      	ldr	r3, [r4, #96]	; 0x60
 8002a98:	2b00      	cmp	r3, #0
 8002a9a:	d100      	bne.n	8002a9e <HAL_UART_IRQHandler+0x22>
 8002a9c:	e089      	b.n	8002bb2 <HAL_UART_IRQHandler+0x136>
        huart->RxISR(huart);
 8002a9e:	0020      	movs	r0, r4
 8002aa0:	4798      	blx	r3
 8002aa2:	e086      	b.n	8002bb2 <HAL_UART_IRQHandler+0x136>
  if ((errorflags != 0U)
 8002aa4:	2a00      	cmp	r2, #0
 8002aa6:	d06b      	beq.n	8002b80 <HAL_UART_IRQHandler+0x104>
      && (((cr3its & USART_CR3_EIE) != 0U)
 8002aa8:	2201      	movs	r2, #1
 8002aaa:	402a      	ands	r2, r5
 8002aac:	d103      	bne.n	8002ab6 <HAL_UART_IRQHandler+0x3a>
          || ((cr1its & (USART_CR1_RXNEIE | USART_CR1_PEIE)) != 0U)))
 8002aae:	2690      	movs	r6, #144	; 0x90
 8002ab0:	0076      	lsls	r6, r6, #1
 8002ab2:	4230      	tst	r0, r6
 8002ab4:	d064      	beq.n	8002b80 <HAL_UART_IRQHandler+0x104>
    if (((isrflags & USART_ISR_PE) != 0U) && ((cr1its & USART_CR1_PEIE) != 0U))
 8002ab6:	07dd      	lsls	r5, r3, #31
 8002ab8:	d506      	bpl.n	8002ac8 <HAL_UART_IRQHandler+0x4c>
 8002aba:	05c5      	lsls	r5, r0, #23
 8002abc:	d504      	bpl.n	8002ac8 <HAL_UART_IRQHandler+0x4c>
      __HAL_UART_CLEAR_FLAG(huart, UART_CLEAR_PEF);
 8002abe:	2501      	movs	r5, #1
 8002ac0:	620d      	str	r5, [r1, #32]
      huart->ErrorCode |= HAL_UART_ERROR_PE;
 8002ac2:	6fe1      	ldr	r1, [r4, #124]	; 0x7c
 8002ac4:	4329      	orrs	r1, r5
 8002ac6:	67e1      	str	r1, [r4, #124]	; 0x7c
    if (((isrflags & USART_ISR_FE) != 0U) && ((cr3its & USART_CR3_EIE) != 0U))
 8002ac8:	0799      	lsls	r1, r3, #30
 8002aca:	d508      	bpl.n	8002ade <HAL_UART_IRQHandler+0x62>
 8002acc:	2a00      	cmp	r2, #0
 8002ace:	d006      	beq.n	8002ade <HAL_UART_IRQHandler+0x62>
      __HAL_UART_CLEAR_FLAG(huart, UART_CLEAR_FEF);
 8002ad0:	6821      	ldr	r1, [r4, #0]
 8002ad2:	2502      	movs	r5, #2
 8002ad4:	620d      	str	r5, [r1, #32]
      huart->ErrorCode |= HAL_UART_ERROR_FE;
 8002ad6:	6fe1      	ldr	r1, [r4, #124]	; 0x7c
 8002ad8:	3502      	adds	r5, #2
 8002ada:	4329      	orrs	r1, r5
 8002adc:	67e1      	str	r1, [r4, #124]	; 0x7c
    if (((isrflags & USART_ISR_NE) != 0U) && ((cr3its & USART_CR3_EIE) != 0U))
 8002ade:	0759      	lsls	r1, r3, #29
 8002ae0:	d508      	bpl.n	8002af4 <HAL_UART_IRQHandler+0x78>
 8002ae2:	2a00      	cmp	r2, #0
 8002ae4:	d006      	beq.n	8002af4 <HAL_UART_IRQHandler+0x78>
      __HAL_UART_CLEAR_FLAG(huart, UART_CLEAR_NEF);
 8002ae6:	6821      	ldr	r1, [r4, #0]
 8002ae8:	2504      	movs	r5, #4
 8002aea:	620d      	str	r5, [r1, #32]
      huart->ErrorCode |= HAL_UART_ERROR_NE;
 8002aec:	6fe1      	ldr	r1, [r4, #124]	; 0x7c
 8002aee:	3d02      	subs	r5, #2
 8002af0:	4329      	orrs	r1, r5
 8002af2:	67e1      	str	r1, [r4, #124]	; 0x7c
    if (((isrflags & USART_ISR_ORE) != 0U)
 8002af4:	0719      	lsls	r1, r3, #28
 8002af6:	d509      	bpl.n	8002b0c <HAL_UART_IRQHandler+0x90>
        && (((cr1its & USART_CR1_RXNEIE) != 0U) ||
 8002af8:	0681      	lsls	r1, r0, #26
 8002afa:	d401      	bmi.n	8002b00 <HAL_UART_IRQHandler+0x84>
 8002afc:	2a00      	cmp	r2, #0
 8002afe:	d005      	beq.n	8002b0c <HAL_UART_IRQHandler+0x90>
      __HAL_UART_CLEAR_FLAG(huart, UART_CLEAR_OREF);
 8002b00:	6822      	ldr	r2, [r4, #0]
 8002b02:	2108      	movs	r1, #8
 8002b04:	6211      	str	r1, [r2, #32]
      huart->ErrorCode |= HAL_UART_ERROR_ORE;
 8002b06:	6fe2      	ldr	r2, [r4, #124]	; 0x7c
 8002b08:	430a      	orrs	r2, r1
 8002b0a:	67e2      	str	r2, [r4, #124]	; 0x7c
    if (huart->ErrorCode != HAL_UART_ERROR_NONE)
 8002b0c:	6fe2      	ldr	r2, [r4, #124]	; 0x7c
 8002b0e:	2a00      	cmp	r2, #0
 8002b10:	d04f      	beq.n	8002bb2 <HAL_UART_IRQHandler+0x136>
      if (((isrflags & USART_ISR_RXNE) != 0U)
 8002b12:	069b      	lsls	r3, r3, #26
 8002b14:	d506      	bpl.n	8002b24 <HAL_UART_IRQHandler+0xa8>
          && ((cr1its & USART_CR1_RXNEIE) != 0U))
 8002b16:	0683      	lsls	r3, r0, #26
 8002b18:	d504      	bpl.n	8002b24 <HAL_UART_IRQHandler+0xa8>
        if (huart->RxISR != NULL)
 8002b1a:	6e23      	ldr	r3, [r4, #96]	; 0x60
 8002b1c:	2b00      	cmp	r3, #0
 8002b1e:	d001      	beq.n	8002b24 <HAL_UART_IRQHandler+0xa8>
          huart->RxISR(huart);
 8002b20:	0020      	movs	r0, r4
 8002b22:	4798      	blx	r3
      errorcode = huart->ErrorCode;
 8002b24:	6fe2      	ldr	r2, [r4, #124]	; 0x7c
      if ((HAL_IS_BIT_SET(huart->Instance->CR3, USART_CR3_DMAR)) ||
 8002b26:	6823      	ldr	r3, [r4, #0]
 8002b28:	689b      	ldr	r3, [r3, #8]
 8002b2a:	065b      	lsls	r3, r3, #25
 8002b2c:	d401      	bmi.n	8002b32 <HAL_UART_IRQHandler+0xb6>
 8002b2e:	0713      	lsls	r3, r2, #28
 8002b30:	d520      	bpl.n	8002b74 <HAL_UART_IRQHandler+0xf8>
        UART_EndRxTransfer(huart);
 8002b32:	0020      	movs	r0, r4
 8002b34:	f7ff fe9c 	bl	8002870 <UART_EndRxTransfer>
        if (HAL_IS_BIT_SET(huart->Instance->CR3, USART_CR3_DMAR))
 8002b38:	6823      	ldr	r3, [r4, #0]
 8002b3a:	689a      	ldr	r2, [r3, #8]
 8002b3c:	0652      	lsls	r2, r2, #25
 8002b3e:	d515      	bpl.n	8002b6c <HAL_UART_IRQHandler+0xf0>
          CLEAR_BIT(huart->Instance->CR3, USART_CR3_DMAR);
 8002b40:	689a      	ldr	r2, [r3, #8]
 8002b42:	2140      	movs	r1, #64	; 0x40
 8002b44:	438a      	bics	r2, r1
 8002b46:	609a      	str	r2, [r3, #8]
          if (huart->hdmarx != NULL)
 8002b48:	6ee3      	ldr	r3, [r4, #108]	; 0x6c
 8002b4a:	2b00      	cmp	r3, #0
 8002b4c:	d00a      	beq.n	8002b64 <HAL_UART_IRQHandler+0xe8>
            huart->hdmarx->XferAbortCallback = UART_DMAAbortOnError;
 8002b4e:	4a1b      	ldr	r2, [pc, #108]	; (8002bbc <HAL_UART_IRQHandler+0x140>)
 8002b50:	639a      	str	r2, [r3, #56]	; 0x38
            if (HAL_DMA_Abort_IT(huart->hdmarx) != HAL_OK)
 8002b52:	6ee0      	ldr	r0, [r4, #108]	; 0x6c
 8002b54:	f7fe fd24 	bl	80015a0 <HAL_DMA_Abort_IT>
 8002b58:	2800      	cmp	r0, #0
 8002b5a:	d02a      	beq.n	8002bb2 <HAL_UART_IRQHandler+0x136>
              huart->hdmarx->XferAbortCallback(huart->hdmarx);
 8002b5c:	6ee0      	ldr	r0, [r4, #108]	; 0x6c
 8002b5e:	6b83      	ldr	r3, [r0, #56]	; 0x38
 8002b60:	4798      	blx	r3
 8002b62:	e026      	b.n	8002bb2 <HAL_UART_IRQHandler+0x136>
            HAL_UART_ErrorCallback(huart);
 8002b64:	0020      	movs	r0, r4
 8002b66:	f7ff ff87 	bl	8002a78 <HAL_UART_ErrorCallback>
 8002b6a:	e022      	b.n	8002bb2 <HAL_UART_IRQHandler+0x136>
          HAL_UART_ErrorCallback(huart);
 8002b6c:	0020      	movs	r0, r4
 8002b6e:	f7ff ff83 	bl	8002a78 <HAL_UART_ErrorCallback>
 8002b72:	e01e      	b.n	8002bb2 <HAL_UART_IRQHandler+0x136>
        HAL_UART_ErrorCallback(huart);
 8002b74:	0020      	movs	r0, r4
 8002b76:	f7ff ff7f 	bl	8002a78 <HAL_UART_ErrorCallback>
        huart->ErrorCode = HAL_UART_ERROR_NONE;
 8002b7a:	2300      	movs	r3, #0
 8002b7c:	67e3      	str	r3, [r4, #124]	; 0x7c
 8002b7e:	e018      	b.n	8002bb2 <HAL_UART_IRQHandler+0x136>
  if (((isrflags & USART_ISR_WUF) != 0U) && ((cr3its & USART_CR3_WUFIE) != 0U))
 8002b80:	02da      	lsls	r2, r3, #11
 8002b82:	d501      	bpl.n	8002b88 <HAL_UART_IRQHandler+0x10c>
 8002b84:	026a      	lsls	r2, r5, #9
 8002b86:	d409      	bmi.n	8002b9c <HAL_UART_IRQHandler+0x120>
  if (((isrflags & USART_ISR_TXE) != 0U)
 8002b88:	061a      	lsls	r2, r3, #24
 8002b8a:	d50e      	bpl.n	8002baa <HAL_UART_IRQHandler+0x12e>
      && ((cr1its & USART_CR1_TXEIE) != 0U))
 8002b8c:	0602      	lsls	r2, r0, #24
 8002b8e:	d50c      	bpl.n	8002baa <HAL_UART_IRQHandler+0x12e>
    if (huart->TxISR != NULL)
 8002b90:	6e63      	ldr	r3, [r4, #100]	; 0x64
 8002b92:	2b00      	cmp	r3, #0
 8002b94:	d00d      	beq.n	8002bb2 <HAL_UART_IRQHandler+0x136>
      huart->TxISR(huart);
 8002b96:	0020      	movs	r0, r4
 8002b98:	4798      	blx	r3
 8002b9a:	e00a      	b.n	8002bb2 <HAL_UART_IRQHandler+0x136>
    __HAL_UART_CLEAR_FLAG(huart, UART_CLEAR_WUF);
 8002b9c:	2380      	movs	r3, #128	; 0x80
 8002b9e:	035b      	lsls	r3, r3, #13
 8002ba0:	620b      	str	r3, [r1, #32]
    HAL_UARTEx_WakeupCallback(huart);
 8002ba2:	0020      	movs	r0, r4
 8002ba4:	f000 faec 	bl	8003180 <HAL_UARTEx_WakeupCallback>
    return;
 8002ba8:	e003      	b.n	8002bb2 <HAL_UART_IRQHandler+0x136>
  if (((isrflags & USART_ISR_TC) != 0U) && ((cr1its & USART_CR1_TCIE) != 0U))
 8002baa:	065b      	lsls	r3, r3, #25
 8002bac:	d501      	bpl.n	8002bb2 <HAL_UART_IRQHandler+0x136>
 8002bae:	0643      	lsls	r3, r0, #25
 8002bb0:	d400      	bmi.n	8002bb4 <HAL_UART_IRQHandler+0x138>
}
 8002bb2:	bd70      	pop	{r4, r5, r6, pc}
    UART_EndTransmit_IT(huart);
 8002bb4:	0020      	movs	r0, r4
 8002bb6:	f7ff feec 	bl	8002992 <UART_EndTransmit_IT>
    return;
 8002bba:	e7fa      	b.n	8002bb2 <HAL_UART_IRQHandler+0x136>
 8002bbc:	08002bc1 	.word	0x08002bc1

08002bc0 <UART_DMAAbortOnError>:
{
 8002bc0:	b510      	push	{r4, lr}
  UART_HandleTypeDef *huart = (UART_HandleTypeDef *)(hdma->Parent);
 8002bc2:	6a80      	ldr	r0, [r0, #40]	; 0x28
  huart->RxXferCount = 0U;
 8002bc4:	2300      	movs	r3, #0
 8002bc6:	225a      	movs	r2, #90	; 0x5a
 8002bc8:	5283      	strh	r3, [r0, r2]
  huart->TxXferCount = 0U;
 8002bca:	3a08      	subs	r2, #8
 8002bcc:	5283      	strh	r3, [r0, r2]
  HAL_UART_ErrorCallback(huart);
 8002bce:	f7ff ff53 	bl	8002a78 <HAL_UART_ErrorCallback>
}
 8002bd2:	bd10      	pop	{r4, pc}

08002bd4 <UART_SetConfig>:
{
 8002bd4:	b5f8      	push	{r3, r4, r5, r6, r7, lr}
 8002bd6:	0005      	movs	r5, r0
  if (UART_INSTANCE_LOWPOWER(huart))
 8002bd8:	6801      	ldr	r1, [r0, #0]
  tmpreg = (uint32_t)huart->Init.WordLength | huart->Init.Parity | huart->Init.Mode | huart->Init.OverSampling ;
 8002bda:	6883      	ldr	r3, [r0, #8]
 8002bdc:	6902      	ldr	r2, [r0, #16]
 8002bde:	4313      	orrs	r3, r2
 8002be0:	6942      	ldr	r2, [r0, #20]
 8002be2:	4313      	orrs	r3, r2
 8002be4:	69c2      	ldr	r2, [r0, #28]
 8002be6:	4313      	orrs	r3, r2
  MODIFY_REG(huart->Instance->CR1, USART_CR1_FIELDS, tmpreg);
 8002be8:	680a      	ldr	r2, [r1, #0]
 8002bea:	48be      	ldr	r0, [pc, #760]	; (8002ee4 <UART_SetConfig+0x310>)
 8002bec:	4002      	ands	r2, r0
 8002bee:	4313      	orrs	r3, r2
 8002bf0:	600b      	str	r3, [r1, #0]
  MODIFY_REG(huart->Instance->CR2, USART_CR2_STOP, huart->Init.StopBits);
 8002bf2:	682a      	ldr	r2, [r5, #0]
 8002bf4:	6853      	ldr	r3, [r2, #4]
 8002bf6:	49bc      	ldr	r1, [pc, #752]	; (8002ee8 <UART_SetConfig+0x314>)
 8002bf8:	400b      	ands	r3, r1
 8002bfa:	68e9      	ldr	r1, [r5, #12]
 8002bfc:	430b      	orrs	r3, r1
 8002bfe:	6053      	str	r3, [r2, #4]
  tmpreg = (uint32_t)huart->Init.HwFlowCtl;
 8002c00:	69ab      	ldr	r3, [r5, #24]
  if (!(UART_INSTANCE_LOWPOWER(huart)))
 8002c02:	682a      	ldr	r2, [r5, #0]
 8002c04:	49b9      	ldr	r1, [pc, #740]	; (8002eec <UART_SetConfig+0x318>)
 8002c06:	428a      	cmp	r2, r1
 8002c08:	d001      	beq.n	8002c0e <UART_SetConfig+0x3a>
    tmpreg |= huart->Init.OneBitSampling;
 8002c0a:	6a29      	ldr	r1, [r5, #32]
 8002c0c:	430b      	orrs	r3, r1
  MODIFY_REG(huart->Instance->CR3, USART_CR3_FIELDS, tmpreg);
 8002c0e:	6891      	ldr	r1, [r2, #8]
 8002c10:	48b7      	ldr	r0, [pc, #732]	; (8002ef0 <UART_SetConfig+0x31c>)
 8002c12:	4001      	ands	r1, r0
 8002c14:	430b      	orrs	r3, r1
 8002c16:	6093      	str	r3, [r2, #8]
  UART_GETCLOCKSOURCE(huart, clocksource);
 8002c18:	682b      	ldr	r3, [r5, #0]
 8002c1a:	4ab6      	ldr	r2, [pc, #728]	; (8002ef4 <UART_SetConfig+0x320>)
 8002c1c:	4293      	cmp	r3, r2
 8002c1e:	d01c      	beq.n	8002c5a <UART_SetConfig+0x86>
 8002c20:	4ab5      	ldr	r2, [pc, #724]	; (8002ef8 <UART_SetConfig+0x324>)
 8002c22:	4293      	cmp	r3, r2
 8002c24:	d02d      	beq.n	8002c82 <UART_SetConfig+0xae>
 8002c26:	4ab5      	ldr	r2, [pc, #724]	; (8002efc <UART_SetConfig+0x328>)
 8002c28:	4293      	cmp	r3, r2
 8002c2a:	d05f      	beq.n	8002cec <UART_SetConfig+0x118>
 8002c2c:	4ab4      	ldr	r2, [pc, #720]	; (8002f00 <UART_SetConfig+0x32c>)
 8002c2e:	4293      	cmp	r3, r2
 8002c30:	d05e      	beq.n	8002cf0 <UART_SetConfig+0x11c>
 8002c32:	4aae      	ldr	r2, [pc, #696]	; (8002eec <UART_SetConfig+0x318>)
 8002c34:	4293      	cmp	r3, r2
 8002c36:	d039      	beq.n	8002cac <UART_SetConfig+0xd8>
 8002c38:	2210      	movs	r2, #16
  if (UART_INSTANCE_LOWPOWER(huart))
 8002c3a:	49ac      	ldr	r1, [pc, #688]	; (8002eec <UART_SetConfig+0x318>)
 8002c3c:	428b      	cmp	r3, r1
 8002c3e:	d05b      	beq.n	8002cf8 <UART_SetConfig+0x124>
  else if (huart->Init.OverSampling == UART_OVERSAMPLING_8)
 8002c40:	2380      	movs	r3, #128	; 0x80
 8002c42:	021b      	lsls	r3, r3, #8
 8002c44:	69e9      	ldr	r1, [r5, #28]
 8002c46:	4299      	cmp	r1, r3
 8002c48:	d100      	bne.n	8002c4c <UART_SetConfig+0x78>
 8002c4a:	e095      	b.n	8002d78 <UART_SetConfig+0x1a4>
    switch (clocksource)
 8002c4c:	2a08      	cmp	r2, #8
 8002c4e:	d900      	bls.n	8002c52 <UART_SetConfig+0x7e>
 8002c50:	e179      	b.n	8002f46 <UART_SetConfig+0x372>
 8002c52:	0092      	lsls	r2, r2, #2
 8002c54:	4bab      	ldr	r3, [pc, #684]	; (8002f04 <UART_SetConfig+0x330>)
 8002c56:	589b      	ldr	r3, [r3, r2]
 8002c58:	469f      	mov	pc, r3
  UART_GETCLOCKSOURCE(huart, clocksource);
 8002c5a:	4aab      	ldr	r2, [pc, #684]	; (8002f08 <UART_SetConfig+0x334>)
 8002c5c:	6cd1      	ldr	r1, [r2, #76]	; 0x4c
 8002c5e:	2203      	movs	r2, #3
 8002c60:	400a      	ands	r2, r1
 8002c62:	2a01      	cmp	r2, #1
 8002c64:	d009      	beq.n	8002c7a <UART_SetConfig+0xa6>
 8002c66:	2a00      	cmp	r2, #0
 8002c68:	d005      	beq.n	8002c76 <UART_SetConfig+0xa2>
 8002c6a:	2a02      	cmp	r2, #2
 8002c6c:	d03a      	beq.n	8002ce4 <UART_SetConfig+0x110>
 8002c6e:	2a03      	cmp	r2, #3
 8002c70:	d005      	beq.n	8002c7e <UART_SetConfig+0xaa>
 8002c72:	2210      	movs	r2, #16
 8002c74:	e7e1      	b.n	8002c3a <UART_SetConfig+0x66>
 8002c76:	2201      	movs	r2, #1
 8002c78:	e7df      	b.n	8002c3a <UART_SetConfig+0x66>
 8002c7a:	2204      	movs	r2, #4
 8002c7c:	e7dd      	b.n	8002c3a <UART_SetConfig+0x66>
 8002c7e:	2208      	movs	r2, #8
 8002c80:	e7db      	b.n	8002c3a <UART_SetConfig+0x66>
 8002c82:	4aa1      	ldr	r2, [pc, #644]	; (8002f08 <UART_SetConfig+0x334>)
 8002c84:	6cd1      	ldr	r1, [r2, #76]	; 0x4c
 8002c86:	220c      	movs	r2, #12
 8002c88:	400a      	ands	r2, r1
 8002c8a:	2a04      	cmp	r2, #4
 8002c8c:	d00a      	beq.n	8002ca4 <UART_SetConfig+0xd0>
 8002c8e:	d905      	bls.n	8002c9c <UART_SetConfig+0xc8>
 8002c90:	2a08      	cmp	r2, #8
 8002c92:	d029      	beq.n	8002ce8 <UART_SetConfig+0x114>
 8002c94:	2a0c      	cmp	r2, #12
 8002c96:	d107      	bne.n	8002ca8 <UART_SetConfig+0xd4>
 8002c98:	2208      	movs	r2, #8
 8002c9a:	e7ce      	b.n	8002c3a <UART_SetConfig+0x66>
 8002c9c:	2a00      	cmp	r2, #0
 8002c9e:	d103      	bne.n	8002ca8 <UART_SetConfig+0xd4>
 8002ca0:	2200      	movs	r2, #0
 8002ca2:	e7ca      	b.n	8002c3a <UART_SetConfig+0x66>
 8002ca4:	2204      	movs	r2, #4
 8002ca6:	e7c8      	b.n	8002c3a <UART_SetConfig+0x66>
 8002ca8:	2210      	movs	r2, #16
 8002caa:	e7c6      	b.n	8002c3a <UART_SetConfig+0x66>
 8002cac:	4a96      	ldr	r2, [pc, #600]	; (8002f08 <UART_SetConfig+0x334>)
 8002cae:	6cd2      	ldr	r2, [r2, #76]	; 0x4c
 8002cb0:	21c0      	movs	r1, #192	; 0xc0
 8002cb2:	0109      	lsls	r1, r1, #4
 8002cb4:	400a      	ands	r2, r1
 8002cb6:	2180      	movs	r1, #128	; 0x80
 8002cb8:	00c9      	lsls	r1, r1, #3
 8002cba:	428a      	cmp	r2, r1
 8002cbc:	d00e      	beq.n	8002cdc <UART_SetConfig+0x108>
 8002cbe:	d909      	bls.n	8002cd4 <UART_SetConfig+0x100>
 8002cc0:	2180      	movs	r1, #128	; 0x80
 8002cc2:	0109      	lsls	r1, r1, #4
 8002cc4:	428a      	cmp	r2, r1
 8002cc6:	d015      	beq.n	8002cf4 <UART_SetConfig+0x120>
 8002cc8:	21c0      	movs	r1, #192	; 0xc0
 8002cca:	0109      	lsls	r1, r1, #4
 8002ccc:	428a      	cmp	r2, r1
 8002cce:	d107      	bne.n	8002ce0 <UART_SetConfig+0x10c>
 8002cd0:	2208      	movs	r2, #8
 8002cd2:	e7b2      	b.n	8002c3a <UART_SetConfig+0x66>
 8002cd4:	2a00      	cmp	r2, #0
 8002cd6:	d103      	bne.n	8002ce0 <UART_SetConfig+0x10c>
 8002cd8:	2200      	movs	r2, #0
 8002cda:	e7ae      	b.n	8002c3a <UART_SetConfig+0x66>
 8002cdc:	2204      	movs	r2, #4
 8002cde:	e7ac      	b.n	8002c3a <UART_SetConfig+0x66>
 8002ce0:	2210      	movs	r2, #16
 8002ce2:	e7aa      	b.n	8002c3a <UART_SetConfig+0x66>
 8002ce4:	2202      	movs	r2, #2
 8002ce6:	e7a8      	b.n	8002c3a <UART_SetConfig+0x66>
 8002ce8:	2202      	movs	r2, #2
 8002cea:	e7a6      	b.n	8002c3a <UART_SetConfig+0x66>
 8002cec:	2200      	movs	r2, #0
 8002cee:	e7a4      	b.n	8002c3a <UART_SetConfig+0x66>
 8002cf0:	2200      	movs	r2, #0
 8002cf2:	e7a2      	b.n	8002c3a <UART_SetConfig+0x66>
 8002cf4:	2202      	movs	r2, #2
 8002cf6:	e7a0      	b.n	8002c3a <UART_SetConfig+0x66>
    switch (clocksource)
 8002cf8:	2a02      	cmp	r2, #2
 8002cfa:	d02c      	beq.n	8002d56 <UART_SetConfig+0x182>
 8002cfc:	d925      	bls.n	8002d4a <UART_SetConfig+0x176>
 8002cfe:	2a04      	cmp	r2, #4
 8002d00:	d030      	beq.n	8002d64 <UART_SetConfig+0x190>
 8002d02:	2a08      	cmp	r2, #8
 8002d04:	d132      	bne.n	8002d6c <UART_SetConfig+0x198>
        lpuart_ker_ck_pres = (uint32_t)LSE_VALUE;
 8002d06:	2080      	movs	r0, #128	; 0x80
 8002d08:	0200      	lsls	r0, r0, #8
  HAL_StatusTypeDef ret               = HAL_OK;
 8002d0a:	2400      	movs	r4, #0
    if (lpuart_ker_ck_pres != 0U)
 8002d0c:	2800      	cmp	r0, #0
 8002d0e:	d100      	bne.n	8002d12 <UART_SetConfig+0x13e>
 8002d10:	e0ae      	b.n	8002e70 <UART_SetConfig+0x29c>
      if ((lpuart_ker_ck_pres < (3U * huart->Init.BaudRate)) ||
 8002d12:	686a      	ldr	r2, [r5, #4]
 8002d14:	0053      	lsls	r3, r2, #1
 8002d16:	189b      	adds	r3, r3, r2
 8002d18:	4298      	cmp	r0, r3
 8002d1a:	d200      	bcs.n	8002d1e <UART_SetConfig+0x14a>
 8002d1c:	e116      	b.n	8002f4c <UART_SetConfig+0x378>
          (lpuart_ker_ck_pres > (4096U * huart->Init.BaudRate)))
 8002d1e:	0313      	lsls	r3, r2, #12
      if ((lpuart_ker_ck_pres < (3U * huart->Init.BaudRate)) ||
 8002d20:	4298      	cmp	r0, r3
 8002d22:	d900      	bls.n	8002d26 <UART_SetConfig+0x152>
 8002d24:	e114      	b.n	8002f50 <UART_SetConfig+0x37c>
        usartdiv = (uint32_t)(UART_DIV_LPUART(lpuart_ker_ck_pres, huart->Init.BaudRate));
 8002d26:	0e07      	lsrs	r7, r0, #24
 8002d28:	0206      	lsls	r6, r0, #8
 8002d2a:	0850      	lsrs	r0, r2, #1
 8002d2c:	2100      	movs	r1, #0
 8002d2e:	1980      	adds	r0, r0, r6
 8002d30:	4179      	adcs	r1, r7
 8002d32:	2300      	movs	r3, #0
 8002d34:	f7fd fb98 	bl	8000468 <__aeabi_uldivmod>
        if ((usartdiv >= LPUART_BRR_MIN) && (usartdiv <= LPUART_BRR_MAX))
 8002d38:	4b74      	ldr	r3, [pc, #464]	; (8002f0c <UART_SetConfig+0x338>)
 8002d3a:	18c2      	adds	r2, r0, r3
 8002d3c:	4b74      	ldr	r3, [pc, #464]	; (8002f10 <UART_SetConfig+0x33c>)
 8002d3e:	429a      	cmp	r2, r3
 8002d40:	d900      	bls.n	8002d44 <UART_SetConfig+0x170>
 8002d42:	e107      	b.n	8002f54 <UART_SetConfig+0x380>
          huart->Instance->BRR = usartdiv;
 8002d44:	682b      	ldr	r3, [r5, #0]
 8002d46:	60d8      	str	r0, [r3, #12]
 8002d48:	e092      	b.n	8002e70 <UART_SetConfig+0x29c>
    switch (clocksource)
 8002d4a:	2a00      	cmp	r2, #0
 8002d4c:	d10e      	bne.n	8002d6c <UART_SetConfig+0x198>
        lpuart_ker_ck_pres = HAL_RCC_GetPCLK1Freq();
 8002d4e:	f7ff f97f 	bl	8002050 <HAL_RCC_GetPCLK1Freq>
  HAL_StatusTypeDef ret               = HAL_OK;
 8002d52:	2400      	movs	r4, #0
        break;
 8002d54:	e7da      	b.n	8002d0c <UART_SetConfig+0x138>
        if (__HAL_RCC_GET_FLAG(RCC_FLAG_HSIDIV) != 0U)
 8002d56:	4b6c      	ldr	r3, [pc, #432]	; (8002f08 <UART_SetConfig+0x334>)
 8002d58:	681b      	ldr	r3, [r3, #0]
 8002d5a:	06db      	lsls	r3, r3, #27
 8002d5c:	d509      	bpl.n	8002d72 <UART_SetConfig+0x19e>
          lpuart_ker_ck_pres = (uint32_t)(HSI_VALUE >> 2U);
 8002d5e:	486d      	ldr	r0, [pc, #436]	; (8002f14 <UART_SetConfig+0x340>)
  HAL_StatusTypeDef ret               = HAL_OK;
 8002d60:	2400      	movs	r4, #0
 8002d62:	e7d3      	b.n	8002d0c <UART_SetConfig+0x138>
        lpuart_ker_ck_pres = HAL_RCC_GetSysClockFreq();
 8002d64:	f7fe fd8e 	bl	8001884 <HAL_RCC_GetSysClockFreq>
  HAL_StatusTypeDef ret               = HAL_OK;
 8002d68:	2400      	movs	r4, #0
        break;
 8002d6a:	e7cf      	b.n	8002d0c <UART_SetConfig+0x138>
  uint32_t lpuart_ker_ck_pres         = 0x00000000U;
 8002d6c:	2000      	movs	r0, #0
        ret = HAL_ERROR;
 8002d6e:	2401      	movs	r4, #1
 8002d70:	e7cc      	b.n	8002d0c <UART_SetConfig+0x138>
          lpuart_ker_ck_pres = (uint32_t)HSI_VALUE;
 8002d72:	4869      	ldr	r0, [pc, #420]	; (8002f18 <UART_SetConfig+0x344>)
  HAL_StatusTypeDef ret               = HAL_OK;
 8002d74:	2400      	movs	r4, #0
 8002d76:	e7c9      	b.n	8002d0c <UART_SetConfig+0x138>
    switch (clocksource)
 8002d78:	2a08      	cmp	r2, #8
 8002d7a:	d863      	bhi.n	8002e44 <UART_SetConfig+0x270>
 8002d7c:	0092      	lsls	r2, r2, #2
 8002d7e:	4b67      	ldr	r3, [pc, #412]	; (8002f1c <UART_SetConfig+0x348>)
 8002d80:	589b      	ldr	r3, [r3, r2]
 8002d82:	469f      	mov	pc, r3
        usartdiv = (uint16_t)(UART_DIV_SAMPLING8(HAL_RCC_GetPCLK1Freq(), huart->Init.BaudRate));
 8002d84:	f7ff f964 	bl	8002050 <HAL_RCC_GetPCLK1Freq>
 8002d88:	0040      	lsls	r0, r0, #1
 8002d8a:	686b      	ldr	r3, [r5, #4]
 8002d8c:	085b      	lsrs	r3, r3, #1
 8002d8e:	18c0      	adds	r0, r0, r3
 8002d90:	6869      	ldr	r1, [r5, #4]
 8002d92:	f7fd f9b9 	bl	8000108 <__udivsi3>
 8002d96:	0400      	lsls	r0, r0, #16
 8002d98:	0c00      	lsrs	r0, r0, #16
  HAL_StatusTypeDef ret               = HAL_OK;
 8002d9a:	2400      	movs	r4, #0
    if ((usartdiv >= UART_BRR_MIN) && (usartdiv <= UART_BRR_MAX))
 8002d9c:	4a60      	ldr	r2, [pc, #384]	; (8002f20 <UART_SetConfig+0x34c>)
 8002d9e:	0003      	movs	r3, r0
 8002da0:	3b10      	subs	r3, #16
 8002da2:	4293      	cmp	r3, r2
 8002da4:	d900      	bls.n	8002da8 <UART_SetConfig+0x1d4>
 8002da6:	e0d7      	b.n	8002f58 <UART_SetConfig+0x384>
      brrtemp = (uint16_t)(usartdiv & 0xFFF0U);
 8002da8:	230f      	movs	r3, #15
 8002daa:	0002      	movs	r2, r0
 8002dac:	439a      	bics	r2, r3
 8002dae:	0013      	movs	r3, r2
      brrtemp |= (uint16_t)((usartdiv & (uint16_t)0x000FU) >> 1U);
 8002db0:	0840      	lsrs	r0, r0, #1
 8002db2:	2207      	movs	r2, #7
 8002db4:	4010      	ands	r0, r2
 8002db6:	4318      	orrs	r0, r3
      huart->Instance->BRR = brrtemp;
 8002db8:	682b      	ldr	r3, [r5, #0]
 8002dba:	60d8      	str	r0, [r3, #12]
 8002dbc:	e058      	b.n	8002e70 <UART_SetConfig+0x29c>
        usartdiv = (uint16_t)(UART_DIV_SAMPLING8(HAL_RCC_GetPCLK2Freq(), huart->Init.BaudRate));
 8002dbe:	f7ff f957 	bl	8002070 <HAL_RCC_GetPCLK2Freq>
 8002dc2:	0040      	lsls	r0, r0, #1
 8002dc4:	686b      	ldr	r3, [r5, #4]
 8002dc6:	085b      	lsrs	r3, r3, #1
 8002dc8:	18c0      	adds	r0, r0, r3
 8002dca:	6869      	ldr	r1, [r5, #4]
 8002dcc:	f7fd f99c 	bl	8000108 <__udivsi3>
 8002dd0:	0400      	lsls	r0, r0, #16
 8002dd2:	0c00      	lsrs	r0, r0, #16
  HAL_StatusTypeDef ret               = HAL_OK;
 8002dd4:	2400      	movs	r4, #0
        break;
 8002dd6:	e7e1      	b.n	8002d9c <UART_SetConfig+0x1c8>
        if (__HAL_RCC_GET_FLAG(RCC_FLAG_HSIDIV) != 0U)
 8002dd8:	4b4b      	ldr	r3, [pc, #300]	; (8002f08 <UART_SetConfig+0x334>)
 8002dda:	681b      	ldr	r3, [r3, #0]
 8002ddc:	06db      	lsls	r3, r3, #27
 8002dde:	d50b      	bpl.n	8002df8 <UART_SetConfig+0x224>
          usartdiv = (uint16_t)(UART_DIV_SAMPLING8((HSI_VALUE >> 2U), huart->Init.BaudRate));
 8002de0:	686b      	ldr	r3, [r5, #4]
 8002de2:	0858      	lsrs	r0, r3, #1
 8002de4:	4b4f      	ldr	r3, [pc, #316]	; (8002f24 <UART_SetConfig+0x350>)
 8002de6:	469c      	mov	ip, r3
 8002de8:	4460      	add	r0, ip
 8002dea:	6869      	ldr	r1, [r5, #4]
 8002dec:	f7fd f98c 	bl	8000108 <__udivsi3>
 8002df0:	0400      	lsls	r0, r0, #16
 8002df2:	0c00      	lsrs	r0, r0, #16
  HAL_StatusTypeDef ret               = HAL_OK;
 8002df4:	2400      	movs	r4, #0
 8002df6:	e7d1      	b.n	8002d9c <UART_SetConfig+0x1c8>
          usartdiv = (uint16_t)(UART_DIV_SAMPLING8(HSI_VALUE, huart->Init.BaudRate));
 8002df8:	686b      	ldr	r3, [r5, #4]
 8002dfa:	0858      	lsrs	r0, r3, #1
 8002dfc:	4b4a      	ldr	r3, [pc, #296]	; (8002f28 <UART_SetConfig+0x354>)
 8002dfe:	469c      	mov	ip, r3
 8002e00:	4460      	add	r0, ip
 8002e02:	6869      	ldr	r1, [r5, #4]
 8002e04:	f7fd f980 	bl	8000108 <__udivsi3>
 8002e08:	0400      	lsls	r0, r0, #16
 8002e0a:	0c00      	lsrs	r0, r0, #16
  HAL_StatusTypeDef ret               = HAL_OK;
 8002e0c:	2400      	movs	r4, #0
 8002e0e:	e7c5      	b.n	8002d9c <UART_SetConfig+0x1c8>
        usartdiv = (uint16_t)(UART_DIV_SAMPLING8(HAL_RCC_GetSysClockFreq(), huart->Init.BaudRate));
 8002e10:	f7fe fd38 	bl	8001884 <HAL_RCC_GetSysClockFreq>
 8002e14:	0040      	lsls	r0, r0, #1
 8002e16:	686b      	ldr	r3, [r5, #4]
 8002e18:	085b      	lsrs	r3, r3, #1
 8002e1a:	18c0      	adds	r0, r0, r3
 8002e1c:	6869      	ldr	r1, [r5, #4]
 8002e1e:	f7fd f973 	bl	8000108 <__udivsi3>
 8002e22:	0400      	lsls	r0, r0, #16
 8002e24:	0c00      	lsrs	r0, r0, #16
  HAL_StatusTypeDef ret               = HAL_OK;
 8002e26:	2400      	movs	r4, #0
        break;
 8002e28:	e7b8      	b.n	8002d9c <UART_SetConfig+0x1c8>
        usartdiv = (uint16_t)(UART_DIV_SAMPLING8(LSE_VALUE, huart->Init.BaudRate));
 8002e2a:	686b      	ldr	r3, [r5, #4]
 8002e2c:	0858      	lsrs	r0, r3, #1
 8002e2e:	2380      	movs	r3, #128	; 0x80
 8002e30:	025b      	lsls	r3, r3, #9
 8002e32:	469c      	mov	ip, r3
 8002e34:	4460      	add	r0, ip
 8002e36:	6869      	ldr	r1, [r5, #4]
 8002e38:	f7fd f966 	bl	8000108 <__udivsi3>
 8002e3c:	0400      	lsls	r0, r0, #16
 8002e3e:	0c00      	lsrs	r0, r0, #16
  HAL_StatusTypeDef ret               = HAL_OK;
 8002e40:	2400      	movs	r4, #0
        break;
 8002e42:	e7ab      	b.n	8002d9c <UART_SetConfig+0x1c8>
        ret = HAL_ERROR;
 8002e44:	2401      	movs	r4, #1
  uint32_t usartdiv                   = 0x00000000U;
 8002e46:	2000      	movs	r0, #0
 8002e48:	e7a8      	b.n	8002d9c <UART_SetConfig+0x1c8>
        usartdiv = (uint16_t)(UART_DIV_SAMPLING16(HAL_RCC_GetPCLK1Freq(), huart->Init.BaudRate));
 8002e4a:	f7ff f901 	bl	8002050 <HAL_RCC_GetPCLK1Freq>
 8002e4e:	686b      	ldr	r3, [r5, #4]
 8002e50:	085b      	lsrs	r3, r3, #1
 8002e52:	18c0      	adds	r0, r0, r3
 8002e54:	6869      	ldr	r1, [r5, #4]
 8002e56:	f7fd f957 	bl	8000108 <__udivsi3>
 8002e5a:	0400      	lsls	r0, r0, #16
 8002e5c:	0c00      	lsrs	r0, r0, #16
  HAL_StatusTypeDef ret               = HAL_OK;
 8002e5e:	2400      	movs	r4, #0
    if ((usartdiv >= UART_BRR_MIN) && (usartdiv <= UART_BRR_MAX))
 8002e60:	4a2f      	ldr	r2, [pc, #188]	; (8002f20 <UART_SetConfig+0x34c>)
 8002e62:	0003      	movs	r3, r0
 8002e64:	3b10      	subs	r3, #16
 8002e66:	4293      	cmp	r3, r2
 8002e68:	d900      	bls.n	8002e6c <UART_SetConfig+0x298>
 8002e6a:	e077      	b.n	8002f5c <UART_SetConfig+0x388>
      huart->Instance->BRR = usartdiv;
 8002e6c:	682b      	ldr	r3, [r5, #0]
 8002e6e:	60d8      	str	r0, [r3, #12]
  huart->RxISR = NULL;
 8002e70:	2300      	movs	r3, #0
 8002e72:	662b      	str	r3, [r5, #96]	; 0x60
  huart->TxISR = NULL;
 8002e74:	666b      	str	r3, [r5, #100]	; 0x64
}
 8002e76:	0020      	movs	r0, r4
 8002e78:	bdf8      	pop	{r3, r4, r5, r6, r7, pc}
        usartdiv = (uint16_t)(UART_DIV_SAMPLING16(HAL_RCC_GetPCLK2Freq(), huart->Init.BaudRate));
 8002e7a:	f7ff f8f9 	bl	8002070 <HAL_RCC_GetPCLK2Freq>
 8002e7e:	686b      	ldr	r3, [r5, #4]
 8002e80:	085b      	lsrs	r3, r3, #1
 8002e82:	18c0      	adds	r0, r0, r3
 8002e84:	6869      	ldr	r1, [r5, #4]
 8002e86:	f7fd f93f 	bl	8000108 <__udivsi3>
 8002e8a:	0400      	lsls	r0, r0, #16
 8002e8c:	0c00      	lsrs	r0, r0, #16
  HAL_StatusTypeDef ret               = HAL_OK;
 8002e8e:	2400      	movs	r4, #0
        break;
 8002e90:	e7e6      	b.n	8002e60 <UART_SetConfig+0x28c>
        if (__HAL_RCC_GET_FLAG(RCC_FLAG_HSIDIV) != 0U)
 8002e92:	4b1d      	ldr	r3, [pc, #116]	; (8002f08 <UART_SetConfig+0x334>)
 8002e94:	681b      	ldr	r3, [r3, #0]
 8002e96:	06db      	lsls	r3, r3, #27
 8002e98:	d50b      	bpl.n	8002eb2 <UART_SetConfig+0x2de>
          usartdiv = (uint16_t)(UART_DIV_SAMPLING16((HSI_VALUE >> 2U), huart->Init.BaudRate));
 8002e9a:	686b      	ldr	r3, [r5, #4]
 8002e9c:	0858      	lsrs	r0, r3, #1
 8002e9e:	4b1d      	ldr	r3, [pc, #116]	; (8002f14 <UART_SetConfig+0x340>)
 8002ea0:	469c      	mov	ip, r3
 8002ea2:	4460      	add	r0, ip
 8002ea4:	6869      	ldr	r1, [r5, #4]
 8002ea6:	f7fd f92f 	bl	8000108 <__udivsi3>
 8002eaa:	0400      	lsls	r0, r0, #16
 8002eac:	0c00      	lsrs	r0, r0, #16
  HAL_StatusTypeDef ret               = HAL_OK;
 8002eae:	2400      	movs	r4, #0
 8002eb0:	e7d6      	b.n	8002e60 <UART_SetConfig+0x28c>
          usartdiv = (uint16_t)(UART_DIV_SAMPLING16(HSI_VALUE, huart->Init.BaudRate));
 8002eb2:	686b      	ldr	r3, [r5, #4]
 8002eb4:	0858      	lsrs	r0, r3, #1
 8002eb6:	4b18      	ldr	r3, [pc, #96]	; (8002f18 <UART_SetConfig+0x344>)
 8002eb8:	469c      	mov	ip, r3
 8002eba:	4460      	add	r0, ip
 8002ebc:	6869      	ldr	r1, [r5, #4]
 8002ebe:	f7fd f923 	bl	8000108 <__udivsi3>
 8002ec2:	0400      	lsls	r0, r0, #16
 8002ec4:	0c00      	lsrs	r0, r0, #16
  HAL_StatusTypeDef ret               = HAL_OK;
 8002ec6:	2400      	movs	r4, #0
 8002ec8:	e7ca      	b.n	8002e60 <UART_SetConfig+0x28c>
        usartdiv = (uint16_t)(UART_DIV_SAMPLING16(HAL_RCC_GetSysClockFreq(), huart->Init.BaudRate));
 8002eca:	f7fe fcdb 	bl	8001884 <HAL_RCC_GetSysClockFreq>
 8002ece:	686b      	ldr	r3, [r5, #4]
 8002ed0:	085b      	lsrs	r3, r3, #1
 8002ed2:	18c0      	adds	r0, r0, r3
 8002ed4:	6869      	ldr	r1, [r5, #4]
 8002ed6:	f7fd f917 	bl	8000108 <__udivsi3>
 8002eda:	0400      	lsls	r0, r0, #16
 8002edc:	0c00      	lsrs	r0, r0, #16
  HAL_StatusTypeDef ret               = HAL_OK;
 8002ede:	2400      	movs	r4, #0
        break;
 8002ee0:	e7be      	b.n	8002e60 <UART_SetConfig+0x28c>
 8002ee2:	46c0      	nop			; (mov r8, r8)
 8002ee4:	efff69f3 	.word	0xefff69f3
 8002ee8:	ffffcfff 	.word	0xffffcfff
 8002eec:	40004800 	.word	0x40004800
 8002ef0:	fffff4ff 	.word	0xfffff4ff
 8002ef4:	40013800 	.word	0x40013800
 8002ef8:	40004400 	.word	0x40004400
 8002efc:	40004c00 	.word	0x40004c00
 8002f00:	40005000 	.word	0x40005000
 8002f04:	0800442c 	.word	0x0800442c
 8002f08:	40021000 	.word	0x40021000
 8002f0c:	fffffd00 	.word	0xfffffd00
 8002f10:	000ffcff 	.word	0x000ffcff
 8002f14:	003d0900 	.word	0x003d0900
 8002f18:	00f42400 	.word	0x00f42400
 8002f1c:	08004450 	.word	0x08004450
 8002f20:	0000ffef 	.word	0x0000ffef
 8002f24:	007a1200 	.word	0x007a1200
 8002f28:	01e84800 	.word	0x01e84800
        usartdiv = (uint16_t)(UART_DIV_SAMPLING16(LSE_VALUE, huart->Init.BaudRate));
 8002f2c:	686b      	ldr	r3, [r5, #4]
 8002f2e:	0858      	lsrs	r0, r3, #1
 8002f30:	2380      	movs	r3, #128	; 0x80
 8002f32:	021b      	lsls	r3, r3, #8
 8002f34:	469c      	mov	ip, r3
 8002f36:	4460      	add	r0, ip
 8002f38:	6869      	ldr	r1, [r5, #4]
 8002f3a:	f7fd f8e5 	bl	8000108 <__udivsi3>
 8002f3e:	0400      	lsls	r0, r0, #16
 8002f40:	0c00      	lsrs	r0, r0, #16
  HAL_StatusTypeDef ret               = HAL_OK;
 8002f42:	2400      	movs	r4, #0
        break;
 8002f44:	e78c      	b.n	8002e60 <UART_SetConfig+0x28c>
        ret = HAL_ERROR;
 8002f46:	2401      	movs	r4, #1
  uint32_t usartdiv                   = 0x00000000U;
 8002f48:	2000      	movs	r0, #0
 8002f4a:	e789      	b.n	8002e60 <UART_SetConfig+0x28c>
        ret = HAL_ERROR;
 8002f4c:	2401      	movs	r4, #1
 8002f4e:	e78f      	b.n	8002e70 <UART_SetConfig+0x29c>
 8002f50:	2401      	movs	r4, #1
 8002f52:	e78d      	b.n	8002e70 <UART_SetConfig+0x29c>
          ret = HAL_ERROR;
 8002f54:	2401      	movs	r4, #1
 8002f56:	e78b      	b.n	8002e70 <UART_SetConfig+0x29c>
      ret = HAL_ERROR;
 8002f58:	2401      	movs	r4, #1
 8002f5a:	e789      	b.n	8002e70 <UART_SetConfig+0x29c>
      ret = HAL_ERROR;
 8002f5c:	2401      	movs	r4, #1
 8002f5e:	e787      	b.n	8002e70 <UART_SetConfig+0x29c>

08002f60 <UART_AdvFeatureConfig>:
  if (HAL_IS_BIT_SET(huart->AdvancedInit.AdvFeatureInit, UART_ADVFEATURE_TXINVERT_INIT))
 8002f60:	6a43      	ldr	r3, [r0, #36]	; 0x24
 8002f62:	07db      	lsls	r3, r3, #31
 8002f64:	d506      	bpl.n	8002f74 <UART_AdvFeatureConfig+0x14>
    MODIFY_REG(huart->Instance->CR2, USART_CR2_TXINV, huart->AdvancedInit.TxPinLevelInvert);
 8002f66:	6802      	ldr	r2, [r0, #0]
 8002f68:	6853      	ldr	r3, [r2, #4]
 8002f6a:	492c      	ldr	r1, [pc, #176]	; (800301c <UART_AdvFeatureConfig+0xbc>)
 8002f6c:	400b      	ands	r3, r1
 8002f6e:	6a81      	ldr	r1, [r0, #40]	; 0x28
 8002f70:	430b      	orrs	r3, r1
 8002f72:	6053      	str	r3, [r2, #4]
  if (HAL_IS_BIT_SET(huart->AdvancedInit.AdvFeatureInit, UART_ADVFEATURE_RXINVERT_INIT))
 8002f74:	6a43      	ldr	r3, [r0, #36]	; 0x24
 8002f76:	079b      	lsls	r3, r3, #30
 8002f78:	d506      	bpl.n	8002f88 <UART_AdvFeatureConfig+0x28>
    MODIFY_REG(huart->Instance->CR2, USART_CR2_RXINV, huart->AdvancedInit.RxPinLevelInvert);
 8002f7a:	6802      	ldr	r2, [r0, #0]
 8002f7c:	6853      	ldr	r3, [r2, #4]
 8002f7e:	4928      	ldr	r1, [pc, #160]	; (8003020 <UART_AdvFeatureConfig+0xc0>)
 8002f80:	400b      	ands	r3, r1
 8002f82:	6ac1      	ldr	r1, [r0, #44]	; 0x2c
 8002f84:	430b      	orrs	r3, r1
 8002f86:	6053      	str	r3, [r2, #4]
  if (HAL_IS_BIT_SET(huart->AdvancedInit.AdvFeatureInit, UART_ADVFEATURE_DATAINVERT_INIT))
 8002f88:	6a43      	ldr	r3, [r0, #36]	; 0x24
 8002f8a:	075b      	lsls	r3, r3, #29
 8002f8c:	d506      	bpl.n	8002f9c <UART_AdvFeatureConfig+0x3c>
    MODIFY_REG(huart->Instance->CR2, USART_CR2_DATAINV, huart->AdvancedInit.DataInvert);
 8002f8e:	6802      	ldr	r2, [r0, #0]
 8002f90:	6853      	ldr	r3, [r2, #4]
 8002f92:	4924      	ldr	r1, [pc, #144]	; (8003024 <UART_AdvFeatureConfig+0xc4>)
 8002f94:	400b      	ands	r3, r1
 8002f96:	6b01      	ldr	r1, [r0, #48]	; 0x30
 8002f98:	430b      	orrs	r3, r1
 8002f9a:	6053      	str	r3, [r2, #4]
  if (HAL_IS_BIT_SET(huart->AdvancedInit.AdvFeatureInit, UART_ADVFEATURE_SWAP_INIT))
 8002f9c:	6a43      	ldr	r3, [r0, #36]	; 0x24
 8002f9e:	071b      	lsls	r3, r3, #28
 8002fa0:	d506      	bpl.n	8002fb0 <UART_AdvFeatureConfig+0x50>
    MODIFY_REG(huart->Instance->CR2, USART_CR2_SWAP, huart->AdvancedInit.Swap);
 8002fa2:	6802      	ldr	r2, [r0, #0]
 8002fa4:	6853      	ldr	r3, [r2, #4]
 8002fa6:	4920      	ldr	r1, [pc, #128]	; (8003028 <UART_AdvFeatureConfig+0xc8>)
 8002fa8:	400b      	ands	r3, r1
 8002faa:	6b41      	ldr	r1, [r0, #52]	; 0x34
 8002fac:	430b      	orrs	r3, r1
 8002fae:	6053      	str	r3, [r2, #4]
  if (HAL_IS_BIT_SET(huart->AdvancedInit.AdvFeatureInit, UART_ADVFEATURE_RXOVERRUNDISABLE_INIT))
 8002fb0:	6a43      	ldr	r3, [r0, #36]	; 0x24
 8002fb2:	06db      	lsls	r3, r3, #27
 8002fb4:	d506      	bpl.n	8002fc4 <UART_AdvFeatureConfig+0x64>
    MODIFY_REG(huart->Instance->CR3, USART_CR3_OVRDIS, huart->AdvancedInit.OverrunDisable);
 8002fb6:	6802      	ldr	r2, [r0, #0]
 8002fb8:	6893      	ldr	r3, [r2, #8]
 8002fba:	491c      	ldr	r1, [pc, #112]	; (800302c <UART_AdvFeatureConfig+0xcc>)
 8002fbc:	400b      	ands	r3, r1
 8002fbe:	6b81      	ldr	r1, [r0, #56]	; 0x38
 8002fc0:	430b      	orrs	r3, r1
 8002fc2:	6093      	str	r3, [r2, #8]
  if (HAL_IS_BIT_SET(huart->AdvancedInit.AdvFeatureInit, UART_ADVFEATURE_DMADISABLEONERROR_INIT))
 8002fc4:	6a43      	ldr	r3, [r0, #36]	; 0x24
 8002fc6:	069b      	lsls	r3, r3, #26
 8002fc8:	d506      	bpl.n	8002fd8 <UART_AdvFeatureConfig+0x78>
    MODIFY_REG(huart->Instance->CR3, USART_CR3_DDRE, huart->AdvancedInit.DMADisableonRxError);
 8002fca:	6802      	ldr	r2, [r0, #0]
 8002fcc:	6893      	ldr	r3, [r2, #8]
 8002fce:	4918      	ldr	r1, [pc, #96]	; (8003030 <UART_AdvFeatureConfig+0xd0>)
 8002fd0:	400b      	ands	r3, r1
 8002fd2:	6bc1      	ldr	r1, [r0, #60]	; 0x3c
 8002fd4:	430b      	orrs	r3, r1
 8002fd6:	6093      	str	r3, [r2, #8]
  if (HAL_IS_BIT_SET(huart->AdvancedInit.AdvFeatureInit, UART_ADVFEATURE_AUTOBAUDRATE_INIT))
 8002fd8:	6a43      	ldr	r3, [r0, #36]	; 0x24
 8002fda:	065b      	lsls	r3, r3, #25
 8002fdc:	d50b      	bpl.n	8002ff6 <UART_AdvFeatureConfig+0x96>
    MODIFY_REG(huart->Instance->CR2, USART_CR2_ABREN, huart->AdvancedInit.AutoBaudRateEnable);
 8002fde:	6802      	ldr	r2, [r0, #0]
 8002fe0:	6853      	ldr	r3, [r2, #4]
 8002fe2:	4914      	ldr	r1, [pc, #80]	; (8003034 <UART_AdvFeatureConfig+0xd4>)
 8002fe4:	400b      	ands	r3, r1
 8002fe6:	6c01      	ldr	r1, [r0, #64]	; 0x40
 8002fe8:	430b      	orrs	r3, r1
 8002fea:	6053      	str	r3, [r2, #4]
    if (huart->AdvancedInit.AutoBaudRateEnable == UART_ADVFEATURE_AUTOBAUDRATE_ENABLE)
 8002fec:	2380      	movs	r3, #128	; 0x80
 8002fee:	035b      	lsls	r3, r3, #13
 8002ff0:	6c02      	ldr	r2, [r0, #64]	; 0x40
 8002ff2:	429a      	cmp	r2, r3
 8002ff4:	d00a      	beq.n	800300c <UART_AdvFeatureConfig+0xac>
  if (HAL_IS_BIT_SET(huart->AdvancedInit.AdvFeatureInit, UART_ADVFEATURE_MSBFIRST_INIT))
 8002ff6:	6a43      	ldr	r3, [r0, #36]	; 0x24
 8002ff8:	061b      	lsls	r3, r3, #24
 8002ffa:	d506      	bpl.n	800300a <UART_AdvFeatureConfig+0xaa>
    MODIFY_REG(huart->Instance->CR2, USART_CR2_MSBFIRST, huart->AdvancedInit.MSBFirst);
 8002ffc:	6802      	ldr	r2, [r0, #0]
 8002ffe:	6853      	ldr	r3, [r2, #4]
 8003000:	490d      	ldr	r1, [pc, #52]	; (8003038 <UART_AdvFeatureConfig+0xd8>)
 8003002:	400b      	ands	r3, r1
 8003004:	6c81      	ldr	r1, [r0, #72]	; 0x48
 8003006:	430b      	orrs	r3, r1
 8003008:	6053      	str	r3, [r2, #4]
}
 800300a:	4770      	bx	lr
      MODIFY_REG(huart->Instance->CR2, USART_CR2_ABRMODE, huart->AdvancedInit.AutoBaudRateMode);
 800300c:	6802      	ldr	r2, [r0, #0]
 800300e:	6853      	ldr	r3, [r2, #4]
 8003010:	490a      	ldr	r1, [pc, #40]	; (800303c <UART_AdvFeatureConfig+0xdc>)
 8003012:	400b      	ands	r3, r1
 8003014:	6c41      	ldr	r1, [r0, #68]	; 0x44
 8003016:	430b      	orrs	r3, r1
 8003018:	6053      	str	r3, [r2, #4]
 800301a:	e7ec      	b.n	8002ff6 <UART_AdvFeatureConfig+0x96>
 800301c:	fffdffff 	.word	0xfffdffff
 8003020:	fffeffff 	.word	0xfffeffff
 8003024:	fffbffff 	.word	0xfffbffff
 8003028:	ffff7fff 	.word	0xffff7fff
 800302c:	ffffefff 	.word	0xffffefff
 8003030:	ffffdfff 	.word	0xffffdfff
 8003034:	ffefffff 	.word	0xffefffff
 8003038:	fff7ffff 	.word	0xfff7ffff
 800303c:	ff9fffff 	.word	0xff9fffff

08003040 <UART_WaitOnFlagUntilTimeout>:
{
 8003040:	b5f0      	push	{r4, r5, r6, r7, lr}
 8003042:	46c6      	mov	lr, r8
 8003044:	b500      	push	{lr}
 8003046:	0005      	movs	r5, r0
 8003048:	000f      	movs	r7, r1
 800304a:	0016      	movs	r6, r2
 800304c:	4698      	mov	r8, r3
 800304e:	9c06      	ldr	r4, [sp, #24]
  while ((__HAL_UART_GET_FLAG(huart, Flag) ? SET : RESET) == Status)
 8003050:	682b      	ldr	r3, [r5, #0]
 8003052:	69db      	ldr	r3, [r3, #28]
 8003054:	003a      	movs	r2, r7
 8003056:	439a      	bics	r2, r3
 8003058:	0013      	movs	r3, r2
 800305a:	425a      	negs	r2, r3
 800305c:	4153      	adcs	r3, r2
 800305e:	42b3      	cmp	r3, r6
 8003060:	d11c      	bne.n	800309c <UART_WaitOnFlagUntilTimeout+0x5c>
    if (Timeout != HAL_MAX_DELAY)
 8003062:	1c63      	adds	r3, r4, #1
 8003064:	d0f4      	beq.n	8003050 <UART_WaitOnFlagUntilTimeout+0x10>
      if (((HAL_GetTick() - Tickstart) > Timeout) || (Timeout == 0U))
 8003066:	f7fe f9e3 	bl	8001430 <HAL_GetTick>
 800306a:	4643      	mov	r3, r8
 800306c:	1ac0      	subs	r0, r0, r3
 800306e:	4284      	cmp	r4, r0
 8003070:	d301      	bcc.n	8003076 <UART_WaitOnFlagUntilTimeout+0x36>
 8003072:	2c00      	cmp	r4, #0
 8003074:	d1ec      	bne.n	8003050 <UART_WaitOnFlagUntilTimeout+0x10>
        CLEAR_BIT(huart->Instance->CR1, (USART_CR1_RXNEIE | USART_CR1_PEIE | USART_CR1_TXEIE));
 8003076:	682a      	ldr	r2, [r5, #0]
 8003078:	6813      	ldr	r3, [r2, #0]
 800307a:	490a      	ldr	r1, [pc, #40]	; (80030a4 <UART_WaitOnFlagUntilTimeout+0x64>)
 800307c:	400b      	ands	r3, r1
 800307e:	6013      	str	r3, [r2, #0]
        CLEAR_BIT(huart->Instance->CR3, USART_CR3_EIE);
 8003080:	682a      	ldr	r2, [r5, #0]
 8003082:	6893      	ldr	r3, [r2, #8]
 8003084:	31a3      	adds	r1, #163	; 0xa3
 8003086:	31ff      	adds	r1, #255	; 0xff
 8003088:	438b      	bics	r3, r1
 800308a:	6093      	str	r3, [r2, #8]
        huart->gState = HAL_UART_STATE_READY;
 800308c:	2320      	movs	r3, #32
 800308e:	676b      	str	r3, [r5, #116]	; 0x74
        huart->RxState = HAL_UART_STATE_READY;
 8003090:	67ab      	str	r3, [r5, #120]	; 0x78
        __HAL_UNLOCK(huart);
 8003092:	2200      	movs	r2, #0
 8003094:	3350      	adds	r3, #80	; 0x50
 8003096:	54ea      	strb	r2, [r5, r3]
        return HAL_TIMEOUT;
 8003098:	2003      	movs	r0, #3
 800309a:	e000      	b.n	800309e <UART_WaitOnFlagUntilTimeout+0x5e>
  return HAL_OK;
 800309c:	2000      	movs	r0, #0
}
 800309e:	bc04      	pop	{r2}
 80030a0:	4690      	mov	r8, r2
 80030a2:	bdf0      	pop	{r4, r5, r6, r7, pc}
 80030a4:	fffffe5f 	.word	0xfffffe5f

080030a8 <UART_CheckIdleState>:
{
 80030a8:	b530      	push	{r4, r5, lr}
 80030aa:	b083      	sub	sp, #12
 80030ac:	0004      	movs	r4, r0
  huart->ErrorCode = HAL_UART_ERROR_NONE;
 80030ae:	2300      	movs	r3, #0
 80030b0:	67c3      	str	r3, [r0, #124]	; 0x7c
  tickstart = HAL_GetTick();
 80030b2:	f7fe f9bd 	bl	8001430 <HAL_GetTick>
 80030b6:	0005      	movs	r5, r0
  if ((huart->Instance->CR1 & USART_CR1_TE) == USART_CR1_TE)
 80030b8:	6823      	ldr	r3, [r4, #0]
 80030ba:	681b      	ldr	r3, [r3, #0]
 80030bc:	071b      	lsls	r3, r3, #28
 80030be:	d40c      	bmi.n	80030da <UART_CheckIdleState+0x32>
  if ((huart->Instance->CR1 & USART_CR1_RE) == USART_CR1_RE)
 80030c0:	6823      	ldr	r3, [r4, #0]
 80030c2:	681b      	ldr	r3, [r3, #0]
 80030c4:	075b      	lsls	r3, r3, #29
 80030c6:	d415      	bmi.n	80030f4 <UART_CheckIdleState+0x4c>
  huart->gState = HAL_UART_STATE_READY;
 80030c8:	2320      	movs	r3, #32
 80030ca:	6763      	str	r3, [r4, #116]	; 0x74
  huart->RxState = HAL_UART_STATE_READY;
 80030cc:	67a3      	str	r3, [r4, #120]	; 0x78
  __HAL_UNLOCK(huart);
 80030ce:	2200      	movs	r2, #0
 80030d0:	3350      	adds	r3, #80	; 0x50
 80030d2:	54e2      	strb	r2, [r4, r3]
  return HAL_OK;
 80030d4:	2000      	movs	r0, #0
}
 80030d6:	b003      	add	sp, #12
 80030d8:	bd30      	pop	{r4, r5, pc}
    if (UART_WaitOnFlagUntilTimeout(huart, USART_ISR_TEACK, RESET, tickstart, HAL_UART_TIMEOUT_VALUE) != HAL_OK)
 80030da:	4b0d      	ldr	r3, [pc, #52]	; (8003110 <UART_CheckIdleState+0x68>)
 80030dc:	9300      	str	r3, [sp, #0]
 80030de:	0003      	movs	r3, r0
 80030e0:	2200      	movs	r2, #0
 80030e2:	2180      	movs	r1, #128	; 0x80
 80030e4:	0389      	lsls	r1, r1, #14
 80030e6:	0020      	movs	r0, r4
 80030e8:	f7ff ffaa 	bl	8003040 <UART_WaitOnFlagUntilTimeout>
 80030ec:	2800      	cmp	r0, #0
 80030ee:	d0e7      	beq.n	80030c0 <UART_CheckIdleState+0x18>
      return HAL_TIMEOUT;
 80030f0:	2003      	movs	r0, #3
 80030f2:	e7f0      	b.n	80030d6 <UART_CheckIdleState+0x2e>
    if (UART_WaitOnFlagUntilTimeout(huart, USART_ISR_REACK, RESET, tickstart, HAL_UART_TIMEOUT_VALUE) != HAL_OK)
 80030f4:	4b06      	ldr	r3, [pc, #24]	; (8003110 <UART_CheckIdleState+0x68>)
 80030f6:	9300      	str	r3, [sp, #0]
 80030f8:	002b      	movs	r3, r5
 80030fa:	2200      	movs	r2, #0
 80030fc:	2180      	movs	r1, #128	; 0x80
 80030fe:	03c9      	lsls	r1, r1, #15
 8003100:	0020      	movs	r0, r4
 8003102:	f7ff ff9d 	bl	8003040 <UART_WaitOnFlagUntilTimeout>
 8003106:	2800      	cmp	r0, #0
 8003108:	d0de      	beq.n	80030c8 <UART_CheckIdleState+0x20>
      return HAL_TIMEOUT;
 800310a:	2003      	movs	r0, #3
 800310c:	e7e3      	b.n	80030d6 <UART_CheckIdleState+0x2e>
 800310e:	46c0      	nop			; (mov r8, r8)
 8003110:	01ffffff 	.word	0x01ffffff

08003114 <HAL_UART_Init>:
{
 8003114:	b510      	push	{r4, lr}
 8003116:	1e04      	subs	r4, r0, #0
  if (huart == NULL)
 8003118:	d02e      	beq.n	8003178 <HAL_UART_Init+0x64>
  if (huart->gState == HAL_UART_STATE_RESET)
 800311a:	6f43      	ldr	r3, [r0, #116]	; 0x74
 800311c:	2b00      	cmp	r3, #0
 800311e:	d021      	beq.n	8003164 <HAL_UART_Init+0x50>
  huart->gState = HAL_UART_STATE_BUSY;
 8003120:	2324      	movs	r3, #36	; 0x24
 8003122:	6763      	str	r3, [r4, #116]	; 0x74
  __HAL_UART_DISABLE(huart);
 8003124:	6822      	ldr	r2, [r4, #0]
 8003126:	6813      	ldr	r3, [r2, #0]
 8003128:	2101      	movs	r1, #1
 800312a:	438b      	bics	r3, r1
 800312c:	6013      	str	r3, [r2, #0]
  if (UART_SetConfig(huart) == HAL_ERROR)
 800312e:	0020      	movs	r0, r4
 8003130:	f7ff fd50 	bl	8002bd4 <UART_SetConfig>
 8003134:	2801      	cmp	r0, #1
 8003136:	d014      	beq.n	8003162 <HAL_UART_Init+0x4e>
  if (huart->AdvancedInit.AdvFeatureInit != UART_ADVFEATURE_NO_INIT)
 8003138:	6a63      	ldr	r3, [r4, #36]	; 0x24
 800313a:	2b00      	cmp	r3, #0
 800313c:	d118      	bne.n	8003170 <HAL_UART_Init+0x5c>
  CLEAR_BIT(huart->Instance->CR2, (USART_CR2_LINEN | USART_CR2_CLKEN));
 800313e:	6822      	ldr	r2, [r4, #0]
 8003140:	6853      	ldr	r3, [r2, #4]
 8003142:	490e      	ldr	r1, [pc, #56]	; (800317c <HAL_UART_Init+0x68>)
 8003144:	400b      	ands	r3, r1
 8003146:	6053      	str	r3, [r2, #4]
  CLEAR_BIT(huart->Instance->CR3, (USART_CR3_SCEN | USART_CR3_HDSEL | USART_CR3_IREN));
 8003148:	6822      	ldr	r2, [r4, #0]
 800314a:	6893      	ldr	r3, [r2, #8]
 800314c:	212a      	movs	r1, #42	; 0x2a
 800314e:	438b      	bics	r3, r1
 8003150:	6093      	str	r3, [r2, #8]
  __HAL_UART_ENABLE(huart);
 8003152:	6822      	ldr	r2, [r4, #0]
 8003154:	6813      	ldr	r3, [r2, #0]
 8003156:	3929      	subs	r1, #41	; 0x29
 8003158:	430b      	orrs	r3, r1
 800315a:	6013      	str	r3, [r2, #0]
  return (UART_CheckIdleState(huart));
 800315c:	0020      	movs	r0, r4
 800315e:	f7ff ffa3 	bl	80030a8 <UART_CheckIdleState>
}
 8003162:	bd10      	pop	{r4, pc}
    huart->Lock = HAL_UNLOCKED;
 8003164:	2200      	movs	r2, #0
 8003166:	3370      	adds	r3, #112	; 0x70
 8003168:	54c2      	strb	r2, [r0, r3]
    HAL_UART_MspInit(huart);
 800316a:	f000 fffb 	bl	8004164 <HAL_UART_MspInit>
 800316e:	e7d7      	b.n	8003120 <HAL_UART_Init+0xc>
    UART_AdvFeatureConfig(huart);
 8003170:	0020      	movs	r0, r4
 8003172:	f7ff fef5 	bl	8002f60 <UART_AdvFeatureConfig>
 8003176:	e7e2      	b.n	800313e <HAL_UART_Init+0x2a>
    return HAL_ERROR;
 8003178:	2001      	movs	r0, #1
 800317a:	e7f2      	b.n	8003162 <HAL_UART_Init+0x4e>
 800317c:	ffffb7ff 	.word	0xffffb7ff

08003180 <HAL_UARTEx_WakeupCallback>:
  UNUSED(huart);

  /* NOTE : This function should not be modified, when the callback is needed,
            the HAL_UARTEx_WakeupCallback can be implemented in the user file.
   */
}
 8003180:	4770      	bx	lr
	...

08003184 <interupt_bluetooth_return>:
	  HAL_Delay(1000);
	  HAL_UART_Receive_IT(huart,&bluetooth_memory,1);
}
uint8_t* interupt_bluetooth_return(void){
	return &bluetooth_memory;
}
 8003184:	4800      	ldr	r0, [pc, #0]	; (8003188 <interupt_bluetooth_return+0x4>)
 8003186:	4770      	bx	lr
 8003188:	20000024 	.word	0x20000024

0800318c <HAL_IncTick>:
#include "main.h"
int counter_cerpadlo;
int cerpadlo1;
int cerpadlo2;
void HAL_IncTick(void)
{
 800318c:	b510      	push	{r4, lr}
  uwTick++;
 800318e:	4a19      	ldr	r2, [pc, #100]	; (80031f4 <HAL_IncTick+0x68>)
 8003190:	6813      	ldr	r3, [r2, #0]
 8003192:	3301      	adds	r3, #1
 8003194:	6013      	str	r3, [r2, #0]
  counter_cerpadlo++;
 8003196:	4a18      	ldr	r2, [pc, #96]	; (80031f8 <HAL_IncTick+0x6c>)
 8003198:	6813      	ldr	r3, [r2, #0]
 800319a:	3301      	adds	r3, #1
 800319c:	6013      	str	r3, [r2, #0]
  if (counter_cerpadlo>100){
 800319e:	2b64      	cmp	r3, #100	; 0x64
 80031a0:	dd02      	ble.n	80031a8 <HAL_IncTick+0x1c>
	  counter_cerpadlo = 0;
 80031a2:	2200      	movs	r2, #0
 80031a4:	4b14      	ldr	r3, [pc, #80]	; (80031f8 <HAL_IncTick+0x6c>)
 80031a6:	601a      	str	r2, [r3, #0]
  }
  if (counter_cerpadlo<(100-max_rychlost_cerpadla)){
 80031a8:	4b13      	ldr	r3, [pc, #76]	; (80031f8 <HAL_IncTick+0x6c>)
 80031aa:	681b      	ldr	r3, [r3, #0]
 80031ac:	2b5a      	cmp	r3, #90	; 0x5a
 80031ae:	dd04      	ble.n	80031ba <HAL_IncTick+0x2e>
	  HAL_GPIO_WritePin(Cerpadlo_posun1_GPIO_Port,Cerpadlo_posun1_Pin,GPIO_PIN_RESET);
	  HAL_GPIO_WritePin(Cerpadlo_posun2_GPIO_Port,Cerpadlo_posun2_Pin,GPIO_PIN_RESET);
  }
  if (counter_cerpadlo>(100-max_rychlost_cerpadla)){
 80031b0:	4b11      	ldr	r3, [pc, #68]	; (80031f8 <HAL_IncTick+0x6c>)
 80031b2:	681b      	ldr	r3, [r3, #0]
 80031b4:	2b5b      	cmp	r3, #91	; 0x5b
 80031b6:	dc0d      	bgt.n	80031d4 <HAL_IncTick+0x48>
	  HAL_GPIO_WritePin(Cerpadlo_posun1_GPIO_Port,Cerpadlo_posun1_Pin,cerpadlo1);
	  HAL_GPIO_WritePin(Cerpadlo_posun2_GPIO_Port,Cerpadlo_posun2_Pin,cerpadlo2);
  }
}
 80031b8:	bd10      	pop	{r4, pc}
	  HAL_GPIO_WritePin(Cerpadlo_posun1_GPIO_Port,Cerpadlo_posun1_Pin,GPIO_PIN_RESET);
 80031ba:	2200      	movs	r2, #0
 80031bc:	2120      	movs	r1, #32
 80031be:	480f      	ldr	r0, [pc, #60]	; (80031fc <HAL_IncTick+0x70>)
 80031c0:	f7fe fb4b 	bl	800185a <HAL_GPIO_WritePin>
	  HAL_GPIO_WritePin(Cerpadlo_posun2_GPIO_Port,Cerpadlo_posun2_Pin,GPIO_PIN_RESET);
 80031c4:	2200      	movs	r2, #0
 80031c6:	2180      	movs	r1, #128	; 0x80
 80031c8:	0149      	lsls	r1, r1, #5
 80031ca:	20a0      	movs	r0, #160	; 0xa0
 80031cc:	05c0      	lsls	r0, r0, #23
 80031ce:	f7fe fb44 	bl	800185a <HAL_GPIO_WritePin>
 80031d2:	e7ed      	b.n	80031b0 <HAL_IncTick+0x24>
	  HAL_GPIO_WritePin(Cerpadlo_posun1_GPIO_Port,Cerpadlo_posun1_Pin,cerpadlo1);
 80031d4:	4b0a      	ldr	r3, [pc, #40]	; (8003200 <HAL_IncTick+0x74>)
 80031d6:	781a      	ldrb	r2, [r3, #0]
 80031d8:	2120      	movs	r1, #32
 80031da:	4808      	ldr	r0, [pc, #32]	; (80031fc <HAL_IncTick+0x70>)
 80031dc:	f7fe fb3d 	bl	800185a <HAL_GPIO_WritePin>
	  HAL_GPIO_WritePin(Cerpadlo_posun2_GPIO_Port,Cerpadlo_posun2_Pin,cerpadlo2);
 80031e0:	4b08      	ldr	r3, [pc, #32]	; (8003204 <HAL_IncTick+0x78>)
 80031e2:	781a      	ldrb	r2, [r3, #0]
 80031e4:	2180      	movs	r1, #128	; 0x80
 80031e6:	0149      	lsls	r1, r1, #5
 80031e8:	20a0      	movs	r0, #160	; 0xa0
 80031ea:	05c0      	lsls	r0, r0, #23
 80031ec:	f7fe fb35 	bl	800185a <HAL_GPIO_WritePin>
}
 80031f0:	e7e2      	b.n	80031b8 <HAL_IncTick+0x2c>
 80031f2:	46c0      	nop			; (mov r8, r8)
 80031f4:	20000020 	.word	0x20000020
 80031f8:	20000034 	.word	0x20000034
 80031fc:	50000800 	.word	0x50000800
 8003200:	2000002c 	.word	0x2000002c
 8003204:	20000044 	.word	0x20000044

08003208 <start_cerpani_v_nadrzi>:

int speed_cerpadla;
int timeout;
void start_cerpani_v_nadrzi(int time){
 8003208:	b510      	push	{r4, lr}
 800320a:	0004      	movs	r4, r0
	HAL_GPIO_WritePin(cerpadlo_interni_GPIO_Port,cerpadlo_interni_Pin,GPIO_PIN_SET);
 800320c:	2201      	movs	r2, #1
 800320e:	2180      	movs	r1, #128	; 0x80
 8003210:	0049      	lsls	r1, r1, #1
 8003212:	480b      	ldr	r0, [pc, #44]	; (8003240 <start_cerpani_v_nadrzi+0x38>)
 8003214:	f7fe fb21 	bl	800185a <HAL_GPIO_WritePin>
	timeout = HAL_GetTick()+(time*100);
 8003218:	f7fe f90a 	bl	8001430 <HAL_GetTick>
 800321c:	2364      	movs	r3, #100	; 0x64
 800321e:	4363      	muls	r3, r4
 8003220:	18c0      	adds	r0, r0, r3
 8003222:	4b08      	ldr	r3, [pc, #32]	; (8003244 <start_cerpani_v_nadrzi+0x3c>)
 8003224:	6018      	str	r0, [r3, #0]
	while(HAL_GetTick()<timeout){
 8003226:	f7fe f903 	bl	8001430 <HAL_GetTick>
 800322a:	4b06      	ldr	r3, [pc, #24]	; (8003244 <start_cerpani_v_nadrzi+0x3c>)
 800322c:	681b      	ldr	r3, [r3, #0]
 800322e:	4298      	cmp	r0, r3
 8003230:	d3f9      	bcc.n	8003226 <start_cerpani_v_nadrzi+0x1e>
	}
	HAL_GPIO_WritePin(cerpadlo_interni_GPIO_Port,cerpadlo_interni_Pin,GPIO_PIN_RESET);
 8003232:	2200      	movs	r2, #0
 8003234:	2180      	movs	r1, #128	; 0x80
 8003236:	0049      	lsls	r1, r1, #1
 8003238:	4801      	ldr	r0, [pc, #4]	; (8003240 <start_cerpani_v_nadrzi+0x38>)
 800323a:	f7fe fb0e 	bl	800185a <HAL_GPIO_WritePin>
}
 800323e:	bd10      	pop	{r4, pc}
 8003240:	50000800 	.word	0x50000800
 8003244:	20000040 	.word	0x20000040

08003248 <start_cerpani_v_rameni>:
void start_cerpani_v_rameni(int time){
 8003248:	b510      	push	{r4, lr}
 800324a:	0004      	movs	r4, r0
	HAL_GPIO_WritePin(cerpadlo_externi_GPIO_Port,cerpadlo_externi_Pin,GPIO_PIN_SET);
 800324c:	2201      	movs	r2, #1
 800324e:	2120      	movs	r1, #32
 8003250:	480a      	ldr	r0, [pc, #40]	; (800327c <start_cerpani_v_rameni+0x34>)
 8003252:	f7fe fb02 	bl	800185a <HAL_GPIO_WritePin>
	timeout = HAL_GetTick()+(time*100);
 8003256:	f7fe f8eb 	bl	8001430 <HAL_GetTick>
 800325a:	2364      	movs	r3, #100	; 0x64
 800325c:	4363      	muls	r3, r4
 800325e:	18c0      	adds	r0, r0, r3
 8003260:	4b07      	ldr	r3, [pc, #28]	; (8003280 <start_cerpani_v_rameni+0x38>)
 8003262:	6018      	str	r0, [r3, #0]
	while(HAL_GetTick()<timeout){
 8003264:	f7fe f8e4 	bl	8001430 <HAL_GetTick>
 8003268:	4b05      	ldr	r3, [pc, #20]	; (8003280 <start_cerpani_v_rameni+0x38>)
 800326a:	681b      	ldr	r3, [r3, #0]
 800326c:	4298      	cmp	r0, r3
 800326e:	d3f9      	bcc.n	8003264 <start_cerpani_v_rameni+0x1c>
	}
	HAL_GPIO_WritePin(cerpadlo_externi_GPIO_Port,cerpadlo_externi_Pin,GPIO_PIN_RESET);
 8003270:	2200      	movs	r2, #0
 8003272:	2120      	movs	r1, #32
 8003274:	4801      	ldr	r0, [pc, #4]	; (800327c <start_cerpani_v_rameni+0x34>)
 8003276:	f7fe faf0 	bl	800185a <HAL_GPIO_WritePin>
}
 800327a:	bd10      	pop	{r4, pc}
 800327c:	50000400 	.word	0x50000400
 8003280:	20000040 	.word	0x20000040

08003284 <set_speed_cerpadla>:


void set_speed_cerpadla(int speed_cerpadla){
	if(speed_cerpadla>0){
 8003284:	2800      	cmp	r0, #0
 8003286:	dd05      	ble.n	8003294 <set_speed_cerpadla+0x10>
		cerpadlo1 = GPIO_PIN_SET;
 8003288:	2201      	movs	r2, #1
 800328a:	4b0b      	ldr	r3, [pc, #44]	; (80032b8 <set_speed_cerpadla+0x34>)
 800328c:	601a      	str	r2, [r3, #0]
		cerpadlo2 = GPIO_PIN_RESET;
 800328e:	2200      	movs	r2, #0
 8003290:	4b0a      	ldr	r3, [pc, #40]	; (80032bc <set_speed_cerpadla+0x38>)
 8003292:	601a      	str	r2, [r3, #0]
	}
	if(speed_cerpadla<0){
 8003294:	2800      	cmp	r0, #0
 8003296:	db07      	blt.n	80032a8 <set_speed_cerpadla+0x24>
		cerpadlo1 = GPIO_PIN_RESET;
		cerpadlo2 = GPIO_PIN_SET;
	}
	if(speed_cerpadla==0){
 8003298:	2800      	cmp	r0, #0
 800329a:	d104      	bne.n	80032a6 <set_speed_cerpadla+0x22>
		cerpadlo1 = GPIO_PIN_RESET;
 800329c:	2300      	movs	r3, #0
 800329e:	4a06      	ldr	r2, [pc, #24]	; (80032b8 <set_speed_cerpadla+0x34>)
 80032a0:	6013      	str	r3, [r2, #0]
		cerpadlo2 = GPIO_PIN_RESET;
 80032a2:	4a06      	ldr	r2, [pc, #24]	; (80032bc <set_speed_cerpadla+0x38>)
 80032a4:	6013      	str	r3, [r2, #0]
	}
}
 80032a6:	4770      	bx	lr
		cerpadlo1 = GPIO_PIN_RESET;
 80032a8:	2200      	movs	r2, #0
 80032aa:	4b03      	ldr	r3, [pc, #12]	; (80032b8 <set_speed_cerpadla+0x34>)
 80032ac:	601a      	str	r2, [r3, #0]
		cerpadlo2 = GPIO_PIN_SET;
 80032ae:	3201      	adds	r2, #1
 80032b0:	4b02      	ldr	r3, [pc, #8]	; (80032bc <set_speed_cerpadla+0x38>)
 80032b2:	601a      	str	r2, [r3, #0]
 80032b4:	e7f0      	b.n	8003298 <set_speed_cerpadla+0x14>
 80032b6:	46c0      	nop			; (mov r8, r8)
 80032b8:	2000002c 	.word	0x2000002c
 80032bc:	20000044 	.word	0x20000044

080032c0 <posun_cerpadla>:

int tempdistance;
void posun_cerpadla(uint8_t smer)
{
 80032c0:	b570      	push	{r4, r5, r6, lr}
 80032c2:	0006      	movs	r6, r0
	if (smer == nahoru){
 80032c4:	2801      	cmp	r0, #1
 80032c6:	d002      	beq.n	80032ce <posun_cerpadla+0xe>
		}
		speed_cerpadla = 0;
		set_speed_cerpadla(speed_cerpadla);

	}
	if (smer == dolu){
 80032c8:	2e00      	cmp	r6, #0
 80032ca:	d032      	beq.n	8003332 <posun_cerpadla+0x72>
		}
		speed_cerpadla = 0;
		set_speed_cerpadla(speed_cerpadla);

	}
}
 80032cc:	bd70      	pop	{r4, r5, r6, pc}
		distance_cerpadlo = 0;
 80032ce:	2400      	movs	r4, #0
 80032d0:	4b31      	ldr	r3, [pc, #196]	; (8003398 <posun_cerpadla+0xd8>)
 80032d2:	601c      	str	r4, [r3, #0]
		speed_cerpadla = max_rychlost_cerpadla;
 80032d4:	2209      	movs	r2, #9
 80032d6:	4b31      	ldr	r3, [pc, #196]	; (800339c <posun_cerpadla+0xdc>)
 80032d8:	601a      	str	r2, [r3, #0]
		set_speed_cerpadla(speed_cerpadla);
 80032da:	2009      	movs	r0, #9
 80032dc:	f7ff ffd2 	bl	8003284 <set_speed_cerpadla>
		tempdistance = 0;
 80032e0:	4b2f      	ldr	r3, [pc, #188]	; (80033a0 <posun_cerpadla+0xe0>)
 80032e2:	601c      	str	r4, [r3, #0]
		timeout = 0;
 80032e4:	4b2f      	ldr	r3, [pc, #188]	; (80033a4 <posun_cerpadla+0xe4>)
 80032e6:	601c      	str	r4, [r3, #0]
 80032e8:	e00c      	b.n	8003304 <posun_cerpadla+0x44>
			if ((timeout!=0)&(timeout<HAL_GetTick())){
 80032ea:	4d2e      	ldr	r5, [pc, #184]	; (80033a4 <posun_cerpadla+0xe4>)
 80032ec:	682c      	ldr	r4, [r5, #0]
 80032ee:	1e63      	subs	r3, r4, #1
 80032f0:	419c      	sbcs	r4, r3
 80032f2:	b2e4      	uxtb	r4, r4
 80032f4:	f7fe f89c 	bl	8001430 <HAL_GetTick>
 80032f8:	682b      	ldr	r3, [r5, #0]
 80032fa:	4283      	cmp	r3, r0
 80032fc:	4180      	sbcs	r0, r0
 80032fe:	4240      	negs	r0, r0
 8003300:	4220      	tst	r0, r4
 8003302:	d10f      	bne.n	8003324 <posun_cerpadla+0x64>
			if (tempdistance!=distance_cerpadlo){
 8003304:	4b26      	ldr	r3, [pc, #152]	; (80033a0 <posun_cerpadla+0xe0>)
 8003306:	681a      	ldr	r2, [r3, #0]
 8003308:	4b23      	ldr	r3, [pc, #140]	; (8003398 <posun_cerpadla+0xd8>)
 800330a:	681b      	ldr	r3, [r3, #0]
 800330c:	429a      	cmp	r2, r3
 800330e:	d0ec      	beq.n	80032ea <posun_cerpadla+0x2a>
				timeout = HAL_GetTick()+cerpadlo_timeout;
 8003310:	f7fe f88e 	bl	8001430 <HAL_GetTick>
 8003314:	3064      	adds	r0, #100	; 0x64
 8003316:	4b23      	ldr	r3, [pc, #140]	; (80033a4 <posun_cerpadla+0xe4>)
 8003318:	6018      	str	r0, [r3, #0]
				tempdistance = distance_cerpadlo;
 800331a:	4b1f      	ldr	r3, [pc, #124]	; (8003398 <posun_cerpadla+0xd8>)
 800331c:	681a      	ldr	r2, [r3, #0]
 800331e:	4b20      	ldr	r3, [pc, #128]	; (80033a0 <posun_cerpadla+0xe0>)
 8003320:	601a      	str	r2, [r3, #0]
 8003322:	e7e2      	b.n	80032ea <posun_cerpadla+0x2a>
		speed_cerpadla = 0;
 8003324:	2200      	movs	r2, #0
 8003326:	4b1d      	ldr	r3, [pc, #116]	; (800339c <posun_cerpadla+0xdc>)
 8003328:	601a      	str	r2, [r3, #0]
		set_speed_cerpadla(speed_cerpadla);
 800332a:	2000      	movs	r0, #0
 800332c:	f7ff ffaa 	bl	8003284 <set_speed_cerpadla>
 8003330:	e7ca      	b.n	80032c8 <posun_cerpadla+0x8>
		distance_cerpadlo = 0;
 8003332:	2400      	movs	r4, #0
 8003334:	4b18      	ldr	r3, [pc, #96]	; (8003398 <posun_cerpadla+0xd8>)
 8003336:	601c      	str	r4, [r3, #0]
		speed_cerpadla = -max_rychlost_cerpadla;
 8003338:	2009      	movs	r0, #9
 800333a:	4240      	negs	r0, r0
 800333c:	4b17      	ldr	r3, [pc, #92]	; (800339c <posun_cerpadla+0xdc>)
 800333e:	6018      	str	r0, [r3, #0]
		set_speed_cerpadla(speed_cerpadla);
 8003340:	f7ff ffa0 	bl	8003284 <set_speed_cerpadla>
		tempdistance = 0;
 8003344:	4b16      	ldr	r3, [pc, #88]	; (80033a0 <posun_cerpadla+0xe0>)
 8003346:	601c      	str	r4, [r3, #0]
		timeout = 0;
 8003348:	4b16      	ldr	r3, [pc, #88]	; (80033a4 <posun_cerpadla+0xe4>)
 800334a:	601c      	str	r4, [r3, #0]
 800334c:	e00c      	b.n	8003368 <posun_cerpadla+0xa8>
			if ((timeout!=0)&(timeout<HAL_GetTick())){
 800334e:	4d15      	ldr	r5, [pc, #84]	; (80033a4 <posun_cerpadla+0xe4>)
 8003350:	682c      	ldr	r4, [r5, #0]
 8003352:	1e63      	subs	r3, r4, #1
 8003354:	419c      	sbcs	r4, r3
 8003356:	b2e4      	uxtb	r4, r4
 8003358:	f7fe f86a 	bl	8001430 <HAL_GetTick>
 800335c:	682b      	ldr	r3, [r5, #0]
 800335e:	4283      	cmp	r3, r0
 8003360:	4180      	sbcs	r0, r0
 8003362:	4240      	negs	r0, r0
 8003364:	4220      	tst	r0, r4
 8003366:	d10f      	bne.n	8003388 <posun_cerpadla+0xc8>
			if (tempdistance!=distance_cerpadlo){
 8003368:	4b0d      	ldr	r3, [pc, #52]	; (80033a0 <posun_cerpadla+0xe0>)
 800336a:	681a      	ldr	r2, [r3, #0]
 800336c:	4b0a      	ldr	r3, [pc, #40]	; (8003398 <posun_cerpadla+0xd8>)
 800336e:	681b      	ldr	r3, [r3, #0]
 8003370:	429a      	cmp	r2, r3
 8003372:	d0ec      	beq.n	800334e <posun_cerpadla+0x8e>
				timeout = HAL_GetTick()+cerpadlo_timeout;
 8003374:	f7fe f85c 	bl	8001430 <HAL_GetTick>
 8003378:	3064      	adds	r0, #100	; 0x64
 800337a:	4b0a      	ldr	r3, [pc, #40]	; (80033a4 <posun_cerpadla+0xe4>)
 800337c:	6018      	str	r0, [r3, #0]
				tempdistance = distance_cerpadlo;
 800337e:	4b06      	ldr	r3, [pc, #24]	; (8003398 <posun_cerpadla+0xd8>)
 8003380:	681a      	ldr	r2, [r3, #0]
 8003382:	4b07      	ldr	r3, [pc, #28]	; (80033a0 <posun_cerpadla+0xe0>)
 8003384:	601a      	str	r2, [r3, #0]
 8003386:	e7e2      	b.n	800334e <posun_cerpadla+0x8e>
		speed_cerpadla = 0;
 8003388:	2200      	movs	r2, #0
 800338a:	4b04      	ldr	r3, [pc, #16]	; (800339c <posun_cerpadla+0xdc>)
 800338c:	601a      	str	r2, [r3, #0]
		set_speed_cerpadla(speed_cerpadla);
 800338e:	2000      	movs	r0, #0
 8003390:	f7ff ff78 	bl	8003284 <set_speed_cerpadla>
}
 8003394:	e79a      	b.n	80032cc <posun_cerpadla+0xc>
 8003396:	46c0      	nop			; (mov r8, r8)
 8003398:	20000030 	.word	0x20000030
 800339c:	20000048 	.word	0x20000048
 80033a0:	20000028 	.word	0x20000028
 80033a4:	20000040 	.word	0x20000040

080033a8 <start_cerpadlo_control>:
void start_cerpadlo_control(){
	speed_cerpadla = 0;
 80033a8:	2300      	movs	r3, #0
 80033aa:	4a03      	ldr	r2, [pc, #12]	; (80033b8 <start_cerpadlo_control+0x10>)
 80033ac:	6013      	str	r3, [r2, #0]
	cerpadlo1 = GPIO_PIN_RESET;
 80033ae:	4a03      	ldr	r2, [pc, #12]	; (80033bc <start_cerpadlo_control+0x14>)
 80033b0:	6013      	str	r3, [r2, #0]
	cerpadlo2 = GPIO_PIN_RESET;
 80033b2:	4a03      	ldr	r2, [pc, #12]	; (80033c0 <start_cerpadlo_control+0x18>)
 80033b4:	6013      	str	r3, [r2, #0]
}
 80033b6:	4770      	bx	lr
 80033b8:	20000048 	.word	0x20000048
 80033bc:	2000002c 	.word	0x2000002c
 80033c0:	20000044 	.word	0x20000044

080033c4 <HAL_GPIO_EXTI_Callback>:
#include "motorcontrol.h"
#include "main.h"
#include "Cerpadlo.h"

void HAL_GPIO_EXTI_Callback(uint16_t GPIO_Pin)
{
 80033c4:	b510      	push	{r4, lr}
 80033c6:	0004      	movs	r4, r0

	if (GPIO_Pin == Utrasound_sens1_Pin){
 80033c8:	2380      	movs	r3, #128	; 0x80
 80033ca:	005b      	lsls	r3, r3, #1
 80033cc:	4298      	cmp	r0, r3
 80033ce:	d014      	beq.n	80033fa <HAL_GPIO_EXTI_Callback+0x36>
			dist1 = (dist1 + TIM_ultrasound->Instance->CNT)/2;
			//htim22.Instance->CNT = 0;
			logic1 =1;
		}
	}
	if (GPIO_Pin == Utrasound_sens2_Pin){
 80033d0:	2c10      	cmp	r4, #16
 80033d2:	d027      	beq.n	8003424 <HAL_GPIO_EXTI_Callback+0x60>
				dist2 = (dist2 + TIM_ultrasound->Instance->CNT)/2;
				//htim22.Instance->CNT = 0;
				logic2 =1;
			}
		}
	if (GPIO_Pin == EncoderRigth1_Pin){
 80033d4:	2380      	movs	r3, #128	; 0x80
 80033d6:	021b      	lsls	r3, r3, #8
 80033d8:	429c      	cmp	r4, r3
 80033da:	d037      	beq.n	800344c <HAL_GPIO_EXTI_Callback+0x88>
		if (HAL_GPIO_ReadPin(EncoderRigth1_GPIO_Port, EncoderRigth1_Pin) == GPIO_PIN_SET){
			distance2++; //posun o dan hel
		}
	}
	if (GPIO_Pin == EncoderLeft1_Pin){
 80033dc:	2380      	movs	r3, #128	; 0x80
 80033de:	01db      	lsls	r3, r3, #7
 80033e0:	429c      	cmp	r4, r3
 80033e2:	d03e      	beq.n	8003462 <HAL_GPIO_EXTI_Callback+0x9e>
		if (HAL_GPIO_ReadPin(EncoderLeft1_GPIO_Port, EncoderLeft1_Pin) == GPIO_PIN_SET){
			distance1++; //posun o dan hel
		}
	}
	if (GPIO_Pin == Encoder_cerpadlo_Pin){
 80033e4:	2380      	movs	r3, #128	; 0x80
 80033e6:	00db      	lsls	r3, r3, #3
 80033e8:	429c      	cmp	r4, r3
 80033ea:	d045      	beq.n	8003478 <HAL_GPIO_EXTI_Callback+0xb4>
			if (HAL_GPIO_ReadPin(Encoder_cerpadlo_GPIO_Port, Encoder_cerpadlo_Pin) == GPIO_PIN_SET){
				distance_cerpadlo++; //posun o dan hel
			}
		}
	if (GPIO_Pin == Mikrofon1_Pin){
 80033ec:	2c80      	cmp	r4, #128	; 0x80
 80033ee:	d04e      	beq.n	800348e <HAL_GPIO_EXTI_Callback+0xca>
			if (HAL_GPIO_ReadPin(EncoderLeft1_GPIO_Port, EncoderLeft1_Pin) == GPIO_PIN_SET){
				 //
			}
		}
	if (GPIO_Pin == Dotek_senzor_Pin){
 80033f0:	2380      	movs	r3, #128	; 0x80
 80033f2:	009b      	lsls	r3, r3, #2
 80033f4:	429c      	cmp	r4, r3
 80033f6:	d050      	beq.n	800349a <HAL_GPIO_EXTI_Callback+0xd6>
		if (HAL_GPIO_ReadPin(Dotek_senzor_GPIO_Port, Dotek_senzor_Pin) == GPIO_PIN_SET){
			set_stop(0,1);
		}
	}
}
 80033f8:	bd10      	pop	{r4, pc}
		if (HAL_GPIO_ReadPin(Utrasound_sens1_GPIO_Port, Utrasound_sens1_Pin) == GPIO_PIN_RESET){
 80033fa:	0019      	movs	r1, r3
 80033fc:	20a0      	movs	r0, #160	; 0xa0
 80033fe:	05c0      	lsls	r0, r0, #23
 8003400:	f7fe fa24 	bl	800184c <HAL_GPIO_ReadPin>
 8003404:	2800      	cmp	r0, #0
 8003406:	d1e3      	bne.n	80033d0 <HAL_GPIO_EXTI_Callback+0xc>
			dist1 = (dist1 + TIM_ultrasound->Instance->CNT)/2;
 8003408:	4b29      	ldr	r3, [pc, #164]	; (80034b0 <HAL_GPIO_EXTI_Callback+0xec>)
 800340a:	681b      	ldr	r3, [r3, #0]
 800340c:	681b      	ldr	r3, [r3, #0]
 800340e:	6a5b      	ldr	r3, [r3, #36]	; 0x24
 8003410:	4a28      	ldr	r2, [pc, #160]	; (80034b4 <HAL_GPIO_EXTI_Callback+0xf0>)
 8003412:	6811      	ldr	r1, [r2, #0]
 8003414:	468c      	mov	ip, r1
 8003416:	4463      	add	r3, ip
 8003418:	085b      	lsrs	r3, r3, #1
 800341a:	6013      	str	r3, [r2, #0]
			logic1 =1;
 800341c:	2201      	movs	r2, #1
 800341e:	4b26      	ldr	r3, [pc, #152]	; (80034b8 <HAL_GPIO_EXTI_Callback+0xf4>)
 8003420:	701a      	strb	r2, [r3, #0]
 8003422:	e7d5      	b.n	80033d0 <HAL_GPIO_EXTI_Callback+0xc>
			if (HAL_GPIO_ReadPin(Utrasound_sens2_GPIO_Port, Utrasound_sens2_Pin) == GPIO_PIN_RESET){
 8003424:	2110      	movs	r1, #16
 8003426:	4825      	ldr	r0, [pc, #148]	; (80034bc <HAL_GPIO_EXTI_Callback+0xf8>)
 8003428:	f7fe fa10 	bl	800184c <HAL_GPIO_ReadPin>
 800342c:	2800      	cmp	r0, #0
 800342e:	d1d1      	bne.n	80033d4 <HAL_GPIO_EXTI_Callback+0x10>
				dist2 = (dist2 + TIM_ultrasound->Instance->CNT)/2;
 8003430:	4b1f      	ldr	r3, [pc, #124]	; (80034b0 <HAL_GPIO_EXTI_Callback+0xec>)
 8003432:	681b      	ldr	r3, [r3, #0]
 8003434:	681b      	ldr	r3, [r3, #0]
 8003436:	6a5b      	ldr	r3, [r3, #36]	; 0x24
 8003438:	4a21      	ldr	r2, [pc, #132]	; (80034c0 <HAL_GPIO_EXTI_Callback+0xfc>)
 800343a:	6811      	ldr	r1, [r2, #0]
 800343c:	468c      	mov	ip, r1
 800343e:	4463      	add	r3, ip
 8003440:	085b      	lsrs	r3, r3, #1
 8003442:	6013      	str	r3, [r2, #0]
				logic2 =1;
 8003444:	2201      	movs	r2, #1
 8003446:	4b1f      	ldr	r3, [pc, #124]	; (80034c4 <HAL_GPIO_EXTI_Callback+0x100>)
 8003448:	701a      	strb	r2, [r3, #0]
 800344a:	e7c3      	b.n	80033d4 <HAL_GPIO_EXTI_Callback+0x10>
		if (HAL_GPIO_ReadPin(EncoderRigth1_GPIO_Port, EncoderRigth1_Pin) == GPIO_PIN_SET){
 800344c:	0019      	movs	r1, r3
 800344e:	481e      	ldr	r0, [pc, #120]	; (80034c8 <HAL_GPIO_EXTI_Callback+0x104>)
 8003450:	f7fe f9fc 	bl	800184c <HAL_GPIO_ReadPin>
 8003454:	2801      	cmp	r0, #1
 8003456:	d1c1      	bne.n	80033dc <HAL_GPIO_EXTI_Callback+0x18>
			distance2++; //posun o dan hel
 8003458:	4a1c      	ldr	r2, [pc, #112]	; (80034cc <HAL_GPIO_EXTI_Callback+0x108>)
 800345a:	6813      	ldr	r3, [r2, #0]
 800345c:	3301      	adds	r3, #1
 800345e:	6013      	str	r3, [r2, #0]
 8003460:	e7bc      	b.n	80033dc <HAL_GPIO_EXTI_Callback+0x18>
		if (HAL_GPIO_ReadPin(EncoderLeft1_GPIO_Port, EncoderLeft1_Pin) == GPIO_PIN_SET){
 8003462:	0019      	movs	r1, r3
 8003464:	4818      	ldr	r0, [pc, #96]	; (80034c8 <HAL_GPIO_EXTI_Callback+0x104>)
 8003466:	f7fe f9f1 	bl	800184c <HAL_GPIO_ReadPin>
 800346a:	2801      	cmp	r0, #1
 800346c:	d1ba      	bne.n	80033e4 <HAL_GPIO_EXTI_Callback+0x20>
			distance1++; //posun o dan hel
 800346e:	4a18      	ldr	r2, [pc, #96]	; (80034d0 <HAL_GPIO_EXTI_Callback+0x10c>)
 8003470:	6813      	ldr	r3, [r2, #0]
 8003472:	3301      	adds	r3, #1
 8003474:	6013      	str	r3, [r2, #0]
 8003476:	e7b5      	b.n	80033e4 <HAL_GPIO_EXTI_Callback+0x20>
			if (HAL_GPIO_ReadPin(Encoder_cerpadlo_GPIO_Port, Encoder_cerpadlo_Pin) == GPIO_PIN_SET){
 8003478:	0019      	movs	r1, r3
 800347a:	4813      	ldr	r0, [pc, #76]	; (80034c8 <HAL_GPIO_EXTI_Callback+0x104>)
 800347c:	f7fe f9e6 	bl	800184c <HAL_GPIO_ReadPin>
 8003480:	2801      	cmp	r0, #1
 8003482:	d1b3      	bne.n	80033ec <HAL_GPIO_EXTI_Callback+0x28>
				distance_cerpadlo++; //posun o dan hel
 8003484:	4a13      	ldr	r2, [pc, #76]	; (80034d4 <HAL_GPIO_EXTI_Callback+0x110>)
 8003486:	6813      	ldr	r3, [r2, #0]
 8003488:	3301      	adds	r3, #1
 800348a:	6013      	str	r3, [r2, #0]
 800348c:	e7ae      	b.n	80033ec <HAL_GPIO_EXTI_Callback+0x28>
			if (HAL_GPIO_ReadPin(EncoderLeft1_GPIO_Port, EncoderLeft1_Pin) == GPIO_PIN_SET){
 800348e:	2180      	movs	r1, #128	; 0x80
 8003490:	01c9      	lsls	r1, r1, #7
 8003492:	480d      	ldr	r0, [pc, #52]	; (80034c8 <HAL_GPIO_EXTI_Callback+0x104>)
 8003494:	f7fe f9da 	bl	800184c <HAL_GPIO_ReadPin>
 8003498:	e7aa      	b.n	80033f0 <HAL_GPIO_EXTI_Callback+0x2c>
		if (HAL_GPIO_ReadPin(Dotek_senzor_GPIO_Port, Dotek_senzor_Pin) == GPIO_PIN_SET){
 800349a:	0019      	movs	r1, r3
 800349c:	4807      	ldr	r0, [pc, #28]	; (80034bc <HAL_GPIO_EXTI_Callback+0xf8>)
 800349e:	f7fe f9d5 	bl	800184c <HAL_GPIO_ReadPin>
 80034a2:	2801      	cmp	r0, #1
 80034a4:	d1a8      	bne.n	80033f8 <HAL_GPIO_EXTI_Callback+0x34>
			set_stop(0,1);
 80034a6:	2101      	movs	r1, #1
 80034a8:	2000      	movs	r0, #0
 80034aa:	f000 fabd 	bl	8003a28 <set_stop>
}
 80034ae:	e7a3      	b.n	80033f8 <HAL_GPIO_EXTI_Callback+0x34>
 80034b0:	20000050 	.word	0x20000050
 80034b4:	20000058 	.word	0x20000058
 80034b8:	2000004c 	.word	0x2000004c
 80034bc:	50000800 	.word	0x50000800
 80034c0:	20000054 	.word	0x20000054
 80034c4:	2000005c 	.word	0x2000005c
 80034c8:	50000400 	.word	0x50000400
 80034cc:	2000003c 	.word	0x2000003c
 80034d0:	20000038 	.word	0x20000038
 80034d4:	20000030 	.word	0x20000030

080034d8 <HAL_TIM_PWM_PulseFinishedCallback>:


void HAL_TIM_PWM_PulseFinishedCallback(TIM_HandleTypeDef *htim)
{
  /* Prevent unused argument(s) compilation warning */
	if (htim->Instance == TIM22){
 80034d8:	6803      	ldr	r3, [r0, #0]
 80034da:	4a12      	ldr	r2, [pc, #72]	; (8003524 <HAL_TIM_PWM_PulseFinishedCallback+0x4c>)
 80034dc:	4293      	cmp	r3, r2
 80034de:	d000      	beq.n	80034e2 <HAL_TIM_PWM_PulseFinishedCallback+0xa>
	}

  /* NOTE : This function should not be modified, when the callback is needed,
            the HAL_TIM_PWM_PulseFinishedCallback could be implemented in the user file
   */
}
 80034e0:	4770      	bx	lr
		if (logic1!=1){
 80034e2:	4a11      	ldr	r2, [pc, #68]	; (8003528 <HAL_TIM_PWM_PulseFinishedCallback+0x50>)
 80034e4:	7812      	ldrb	r2, [r2, #0]
 80034e6:	2a01      	cmp	r2, #1
 80034e8:	d013      	beq.n	8003512 <HAL_TIM_PWM_PulseFinishedCallback+0x3a>
			dist1 = (100000 + htim->Instance->CNT)/2;
 80034ea:	6a5b      	ldr	r3, [r3, #36]	; 0x24
 80034ec:	4a0f      	ldr	r2, [pc, #60]	; (800352c <HAL_TIM_PWM_PulseFinishedCallback+0x54>)
 80034ee:	4694      	mov	ip, r2
 80034f0:	4463      	add	r3, ip
 80034f2:	085b      	lsrs	r3, r3, #1
 80034f4:	4a0e      	ldr	r2, [pc, #56]	; (8003530 <HAL_TIM_PWM_PulseFinishedCallback+0x58>)
 80034f6:	6013      	str	r3, [r2, #0]
		if (logic2!=1){
 80034f8:	4b0e      	ldr	r3, [pc, #56]	; (8003534 <HAL_TIM_PWM_PulseFinishedCallback+0x5c>)
 80034fa:	781b      	ldrb	r3, [r3, #0]
 80034fc:	2b01      	cmp	r3, #1
 80034fe:	d00c      	beq.n	800351a <HAL_TIM_PWM_PulseFinishedCallback+0x42>
			dist2 = (100000 + htim->Instance->CNT)/2;
 8003500:	6803      	ldr	r3, [r0, #0]
 8003502:	6a5b      	ldr	r3, [r3, #36]	; 0x24
 8003504:	4a09      	ldr	r2, [pc, #36]	; (800352c <HAL_TIM_PWM_PulseFinishedCallback+0x54>)
 8003506:	4694      	mov	ip, r2
 8003508:	4463      	add	r3, ip
 800350a:	085b      	lsrs	r3, r3, #1
 800350c:	4a0a      	ldr	r2, [pc, #40]	; (8003538 <HAL_TIM_PWM_PulseFinishedCallback+0x60>)
 800350e:	6013      	str	r3, [r2, #0]
 8003510:	e7e6      	b.n	80034e0 <HAL_TIM_PWM_PulseFinishedCallback+0x8>
			logic1 =0;
 8003512:	2200      	movs	r2, #0
 8003514:	4b04      	ldr	r3, [pc, #16]	; (8003528 <HAL_TIM_PWM_PulseFinishedCallback+0x50>)
 8003516:	701a      	strb	r2, [r3, #0]
 8003518:	e7ee      	b.n	80034f8 <HAL_TIM_PWM_PulseFinishedCallback+0x20>
			logic2 =0;
 800351a:	2200      	movs	r2, #0
 800351c:	4b05      	ldr	r3, [pc, #20]	; (8003534 <HAL_TIM_PWM_PulseFinishedCallback+0x5c>)
 800351e:	701a      	strb	r2, [r3, #0]
}
 8003520:	e7de      	b.n	80034e0 <HAL_TIM_PWM_PulseFinishedCallback+0x8>
 8003522:	46c0      	nop			; (mov r8, r8)
 8003524:	40011400 	.word	0x40011400
 8003528:	2000004c 	.word	0x2000004c
 800352c:	000186a0 	.word	0x000186a0
 8003530:	20000058 	.word	0x20000058
 8003534:	2000005c 	.word	0x2000005c
 8003538:	20000054 	.word	0x20000054

0800353c <init_ultrasound>:
void init_ultrasound(TIM_HandleTypeDef *htim){
 800353c:	b510      	push	{r4, lr}
 800353e:	0004      	movs	r4, r0
    dist1 = 2000;
 8003540:	22fa      	movs	r2, #250	; 0xfa
 8003542:	00d2      	lsls	r2, r2, #3
 8003544:	4b08      	ldr	r3, [pc, #32]	; (8003568 <init_ultrasound+0x2c>)
 8003546:	601a      	str	r2, [r3, #0]
    logic1 = 0;
 8003548:	2300      	movs	r3, #0
 800354a:	4908      	ldr	r1, [pc, #32]	; (800356c <init_ultrasound+0x30>)
 800354c:	700b      	strb	r3, [r1, #0]
    dist2 = 2000;
 800354e:	4908      	ldr	r1, [pc, #32]	; (8003570 <init_ultrasound+0x34>)
 8003550:	600a      	str	r2, [r1, #0]
    logic2 = 0;
 8003552:	4a08      	ldr	r2, [pc, #32]	; (8003574 <init_ultrasound+0x38>)
 8003554:	7013      	strb	r3, [r2, #0]
    HAL_TIM_PWM_Init(htim);
 8003556:	f7fe ffa9 	bl	80024ac <HAL_TIM_PWM_Init>
    HAL_TIM_PWM_Start(htim,TIM_CHANNEL_1);
 800355a:	2100      	movs	r1, #0
 800355c:	0020      	movs	r0, r4
 800355e:	f7fe ffbf 	bl	80024e0 <HAL_TIM_PWM_Start>
    TIM_ultrasound = htim;
 8003562:	4b05      	ldr	r3, [pc, #20]	; (8003578 <init_ultrasound+0x3c>)
 8003564:	601c      	str	r4, [r3, #0]
}
 8003566:	bd10      	pop	{r4, pc}
 8003568:	20000058 	.word	0x20000058
 800356c:	2000004c 	.word	0x2000004c
 8003570:	20000054 	.word	0x20000054
 8003574:	2000005c 	.word	0x2000005c
 8003578:	20000050 	.word	0x20000050

0800357c <MX_GPIO_Init>:
  * @brief GPIO Initialization Function
  * @param None
  * @retval None
  */
static void MX_GPIO_Init(void)
{
 800357c:	b5f0      	push	{r4, r5, r6, r7, lr}
 800357e:	46de      	mov	lr, fp
 8003580:	4657      	mov	r7, sl
 8003582:	464e      	mov	r6, r9
 8003584:	4645      	mov	r5, r8
 8003586:	b5e0      	push	{r5, r6, r7, lr}
 8003588:	b089      	sub	sp, #36	; 0x24
  GPIO_InitTypeDef GPIO_InitStruct = {0};
 800358a:	2214      	movs	r2, #20
 800358c:	2100      	movs	r1, #0
 800358e:	a803      	add	r0, sp, #12
 8003590:	f000 ff38 	bl	8004404 <memset>

  /* GPIO Ports Clock Enable */
  __HAL_RCC_GPIOC_CLK_ENABLE();
 8003594:	4b4a      	ldr	r3, [pc, #296]	; (80036c0 <MX_GPIO_Init+0x144>)
 8003596:	6ad9      	ldr	r1, [r3, #44]	; 0x2c
 8003598:	2204      	movs	r2, #4
 800359a:	4311      	orrs	r1, r2
 800359c:	62d9      	str	r1, [r3, #44]	; 0x2c
 800359e:	6ad9      	ldr	r1, [r3, #44]	; 0x2c
 80035a0:	400a      	ands	r2, r1
 80035a2:	9200      	str	r2, [sp, #0]
 80035a4:	9a00      	ldr	r2, [sp, #0]
  __HAL_RCC_GPIOA_CLK_ENABLE();
 80035a6:	6ada      	ldr	r2, [r3, #44]	; 0x2c
 80035a8:	2501      	movs	r5, #1
 80035aa:	432a      	orrs	r2, r5
 80035ac:	62da      	str	r2, [r3, #44]	; 0x2c
 80035ae:	6ada      	ldr	r2, [r3, #44]	; 0x2c
 80035b0:	402a      	ands	r2, r5
 80035b2:	9201      	str	r2, [sp, #4]
 80035b4:	9a01      	ldr	r2, [sp, #4]
  __HAL_RCC_GPIOB_CLK_ENABLE();
 80035b6:	6ada      	ldr	r2, [r3, #44]	; 0x2c
 80035b8:	2602      	movs	r6, #2
 80035ba:	4332      	orrs	r2, r6
 80035bc:	62da      	str	r2, [r3, #44]	; 0x2c
 80035be:	6adb      	ldr	r3, [r3, #44]	; 0x2c
 80035c0:	4033      	ands	r3, r6
 80035c2:	9302      	str	r3, [sp, #8]
 80035c4:	9b02      	ldr	r3, [sp, #8]

  /*Configure GPIO pin Output Level */
  HAL_GPIO_WritePin(GPIOC, Cerpadlo_posun1_Pin|cerpadlo_interni_Pin, GPIO_PIN_RESET);
 80035c6:	2200      	movs	r2, #0
 80035c8:	2190      	movs	r1, #144	; 0x90
 80035ca:	0049      	lsls	r1, r1, #1
 80035cc:	483d      	ldr	r0, [pc, #244]	; (80036c4 <MX_GPIO_Init+0x148>)
 80035ce:	f7fe f944 	bl	800185a <HAL_GPIO_WritePin>

  /*Configure GPIO pin Output Level */
  HAL_GPIO_WritePin(Cerpadlo_posun2_GPIO_Port, Cerpadlo_posun2_Pin, GPIO_PIN_RESET);
 80035d2:	2380      	movs	r3, #128	; 0x80
 80035d4:	015b      	lsls	r3, r3, #5
 80035d6:	4699      	mov	r9, r3
 80035d8:	2200      	movs	r2, #0
 80035da:	0019      	movs	r1, r3
 80035dc:	20a0      	movs	r0, #160	; 0xa0
 80035de:	05c0      	lsls	r0, r0, #23
 80035e0:	f7fe f93b 	bl	800185a <HAL_GPIO_WritePin>

  /*Configure GPIO pin Output Level */
  HAL_GPIO_WritePin(GPIOB, cerpadlo_externi_Pin|STEP4_Pin|STEP1_Pin|STEP3_Pin 
 80035e4:	23f8      	movs	r3, #248	; 0xf8
 80035e6:	009b      	lsls	r3, r3, #2
 80035e8:	4698      	mov	r8, r3
 80035ea:	2200      	movs	r2, #0
 80035ec:	0019      	movs	r1, r3
 80035ee:	4836      	ldr	r0, [pc, #216]	; (80036c8 <MX_GPIO_Init+0x14c>)
 80035f0:	f7fe f933 	bl	800185a <HAL_GPIO_WritePin>
                          |STEP2_Pin, GPIO_PIN_RESET);

  /*Configure GPIO pin : Utrasound_sens2_Pin */
  GPIO_InitStruct.Pin = Utrasound_sens2_Pin;
 80035f4:	2310      	movs	r3, #16
 80035f6:	9303      	str	r3, [sp, #12]
  GPIO_InitStruct.Mode = GPIO_MODE_IT_RISING_FALLING;
 80035f8:	4b34      	ldr	r3, [pc, #208]	; (80036cc <MX_GPIO_Init+0x150>)
 80035fa:	469a      	mov	sl, r3
 80035fc:	9304      	str	r3, [sp, #16]
  GPIO_InitStruct.Pull = GPIO_NOPULL;
 80035fe:	2400      	movs	r4, #0
 8003600:	9405      	str	r4, [sp, #20]
  HAL_GPIO_Init(Utrasound_sens2_GPIO_Port, &GPIO_InitStruct);
 8003602:	a903      	add	r1, sp, #12
 8003604:	482f      	ldr	r0, [pc, #188]	; (80036c4 <MX_GPIO_Init+0x148>)
 8003606:	f7fe f84f 	bl	80016a8 <HAL_GPIO_Init>

  /*Configure GPIO pin : Cerpadlo_posun1_Pin */
  GPIO_InitStruct.Pin = Cerpadlo_posun1_Pin;
 800360a:	2320      	movs	r3, #32
 800360c:	9303      	str	r3, [sp, #12]
  GPIO_InitStruct.Mode = GPIO_MODE_OUTPUT_PP;
 800360e:	9504      	str	r5, [sp, #16]
  GPIO_InitStruct.Pull = GPIO_NOPULL;
 8003610:	9405      	str	r4, [sp, #20]
  GPIO_InitStruct.Speed = GPIO_SPEED_FREQ_MEDIUM;
 8003612:	9506      	str	r5, [sp, #24]
  HAL_GPIO_Init(Cerpadlo_posun1_GPIO_Port, &GPIO_InitStruct);
 8003614:	a903      	add	r1, sp, #12
 8003616:	482b      	ldr	r0, [pc, #172]	; (80036c4 <MX_GPIO_Init+0x148>)
 8003618:	f7fe f846 	bl	80016a8 <HAL_GPIO_Init>

  /*Configure GPIO pins : Encoder_cerpadlo_Pin Mikrofon3_Pin EncoderLeft2_Pin EncoderRigth2_Pin 
                           EncoderLeft1_Pin EncoderRigth1_Pin */
  GPIO_InitStruct.Pin = Encoder_cerpadlo_Pin|Mikrofon3_Pin|EncoderLeft2_Pin|EncoderRigth2_Pin 
 800361c:	23fc      	movs	r3, #252	; 0xfc
 800361e:	021b      	lsls	r3, r3, #8
 8003620:	9303      	str	r3, [sp, #12]
                          |EncoderLeft1_Pin|EncoderRigth1_Pin;
  GPIO_InitStruct.Mode = GPIO_MODE_IT_RISING;
 8003622:	4f2b      	ldr	r7, [pc, #172]	; (80036d0 <MX_GPIO_Init+0x154>)
 8003624:	9704      	str	r7, [sp, #16]
  GPIO_InitStruct.Pull = GPIO_NOPULL;
 8003626:	9405      	str	r4, [sp, #20]
  HAL_GPIO_Init(GPIOB, &GPIO_InitStruct);
 8003628:	a903      	add	r1, sp, #12
 800362a:	4827      	ldr	r0, [pc, #156]	; (80036c8 <MX_GPIO_Init+0x14c>)
 800362c:	f7fe f83c 	bl	80016a8 <HAL_GPIO_Init>

  /*Configure GPIO pin : Mikrofon1_Pin */
  GPIO_InitStruct.Pin = Mikrofon1_Pin;
 8003630:	2380      	movs	r3, #128	; 0x80
 8003632:	9303      	str	r3, [sp, #12]
  GPIO_InitStruct.Mode = GPIO_MODE_IT_RISING;
 8003634:	9704      	str	r7, [sp, #16]
  GPIO_InitStruct.Pull = GPIO_NOPULL;
 8003636:	9405      	str	r4, [sp, #20]
  HAL_GPIO_Init(Mikrofon1_GPIO_Port, &GPIO_InitStruct);
 8003638:	a903      	add	r1, sp, #12
 800363a:	4822      	ldr	r0, [pc, #136]	; (80036c4 <MX_GPIO_Init+0x148>)
 800363c:	f7fe f834 	bl	80016a8 <HAL_GPIO_Init>

  /*Configure GPIO pin : cerpadlo_interni_Pin */
  GPIO_InitStruct.Pin = cerpadlo_interni_Pin;
 8003640:	2380      	movs	r3, #128	; 0x80
 8003642:	005b      	lsls	r3, r3, #1
 8003644:	469b      	mov	fp, r3
 8003646:	9303      	str	r3, [sp, #12]
  GPIO_InitStruct.Mode = GPIO_MODE_OUTPUT_PP;
 8003648:	9504      	str	r5, [sp, #16]
  GPIO_InitStruct.Pull = GPIO_NOPULL;
 800364a:	9405      	str	r4, [sp, #20]
  GPIO_InitStruct.Speed = GPIO_SPEED_FREQ_LOW;
 800364c:	9406      	str	r4, [sp, #24]
  HAL_GPIO_Init(cerpadlo_interni_GPIO_Port, &GPIO_InitStruct);
 800364e:	a903      	add	r1, sp, #12
 8003650:	481c      	ldr	r0, [pc, #112]	; (80036c4 <MX_GPIO_Init+0x148>)
 8003652:	f7fe f829 	bl	80016a8 <HAL_GPIO_Init>

  /*Configure GPIO pin : Dotek_senzor_Pin */
  GPIO_InitStruct.Pin = Dotek_senzor_Pin;
 8003656:	2380      	movs	r3, #128	; 0x80
 8003658:	009b      	lsls	r3, r3, #2
 800365a:	9303      	str	r3, [sp, #12]
  GPIO_InitStruct.Mode = GPIO_MODE_IT_RISING;
 800365c:	9704      	str	r7, [sp, #16]
  GPIO_InitStruct.Pull = GPIO_PULLDOWN;
 800365e:	9605      	str	r6, [sp, #20]
  HAL_GPIO_Init(Dotek_senzor_GPIO_Port, &GPIO_InitStruct);
 8003660:	a903      	add	r1, sp, #12
 8003662:	4818      	ldr	r0, [pc, #96]	; (80036c4 <MX_GPIO_Init+0x148>)
 8003664:	f7fe f820 	bl	80016a8 <HAL_GPIO_Init>

  /*Configure GPIO pin : Utrasound_sens1_Pin */
  GPIO_InitStruct.Pin = Utrasound_sens1_Pin;
 8003668:	465b      	mov	r3, fp
 800366a:	9303      	str	r3, [sp, #12]
  GPIO_InitStruct.Mode = GPIO_MODE_IT_RISING_FALLING;
 800366c:	4653      	mov	r3, sl
 800366e:	9304      	str	r3, [sp, #16]
  GPIO_InitStruct.Pull = GPIO_NOPULL;
 8003670:	9405      	str	r4, [sp, #20]
  HAL_GPIO_Init(Utrasound_sens1_GPIO_Port, &GPIO_InitStruct);
 8003672:	a903      	add	r1, sp, #12
 8003674:	20a0      	movs	r0, #160	; 0xa0
 8003676:	05c0      	lsls	r0, r0, #23
 8003678:	f7fe f816 	bl	80016a8 <HAL_GPIO_Init>

  /*Configure GPIO pin : Cerpadlo_posun2_Pin */
  GPIO_InitStruct.Pin = Cerpadlo_posun2_Pin;
 800367c:	464b      	mov	r3, r9
 800367e:	9303      	str	r3, [sp, #12]
  GPIO_InitStruct.Mode = GPIO_MODE_OUTPUT_PP;
 8003680:	9504      	str	r5, [sp, #16]
  GPIO_InitStruct.Pull = GPIO_NOPULL;
 8003682:	9405      	str	r4, [sp, #20]
  GPIO_InitStruct.Speed = GPIO_SPEED_FREQ_MEDIUM;
 8003684:	9506      	str	r5, [sp, #24]
  HAL_GPIO_Init(Cerpadlo_posun2_GPIO_Port, &GPIO_InitStruct);
 8003686:	a903      	add	r1, sp, #12
 8003688:	20a0      	movs	r0, #160	; 0xa0
 800368a:	05c0      	lsls	r0, r0, #23
 800368c:	f7fe f80c 	bl	80016a8 <HAL_GPIO_Init>

  /*Configure GPIO pins : cerpadlo_externi_Pin STEP4_Pin STEP1_Pin STEP3_Pin 
                           STEP2_Pin */
  GPIO_InitStruct.Pin = cerpadlo_externi_Pin|STEP4_Pin|STEP1_Pin|STEP3_Pin 
 8003690:	4643      	mov	r3, r8
 8003692:	9303      	str	r3, [sp, #12]
                          |STEP2_Pin;
  GPIO_InitStruct.Mode = GPIO_MODE_OUTPUT_PP;
 8003694:	9504      	str	r5, [sp, #16]
  GPIO_InitStruct.Pull = GPIO_NOPULL;
 8003696:	9405      	str	r4, [sp, #20]
  GPIO_InitStruct.Speed = GPIO_SPEED_FREQ_LOW;
 8003698:	9406      	str	r4, [sp, #24]
  HAL_GPIO_Init(GPIOB, &GPIO_InitStruct);
 800369a:	a903      	add	r1, sp, #12
 800369c:	480a      	ldr	r0, [pc, #40]	; (80036c8 <MX_GPIO_Init+0x14c>)
 800369e:	f7fe f803 	bl	80016a8 <HAL_GPIO_Init>

  /* EXTI interrupt init*/
  HAL_NVIC_SetPriority(EXTI4_15_IRQn, 0, 0);
 80036a2:	2200      	movs	r2, #0
 80036a4:	2100      	movs	r1, #0
 80036a6:	2007      	movs	r0, #7
 80036a8:	f7fd fed6 	bl	8001458 <HAL_NVIC_SetPriority>
  HAL_NVIC_EnableIRQ(EXTI4_15_IRQn);
 80036ac:	2007      	movs	r0, #7
 80036ae:	f7fd ff05 	bl	80014bc <HAL_NVIC_EnableIRQ>

}
 80036b2:	b009      	add	sp, #36	; 0x24
 80036b4:	bc3c      	pop	{r2, r3, r4, r5}
 80036b6:	4690      	mov	r8, r2
 80036b8:	4699      	mov	r9, r3
 80036ba:	46a2      	mov	sl, r4
 80036bc:	46ab      	mov	fp, r5
 80036be:	bdf0      	pop	{r4, r5, r6, r7, pc}
 80036c0:	40021000 	.word	0x40021000
 80036c4:	50000800 	.word	0x50000800
 80036c8:	50000400 	.word	0x50000400
 80036cc:	10310000 	.word	0x10310000
 80036d0:	10110000 	.word	0x10110000

080036d4 <MX_DMA_Init>:
{
 80036d4:	b500      	push	{lr}
 80036d6:	b083      	sub	sp, #12
  __HAL_RCC_DMA1_CLK_ENABLE();
 80036d8:	4a09      	ldr	r2, [pc, #36]	; (8003700 <MX_DMA_Init+0x2c>)
 80036da:	6b11      	ldr	r1, [r2, #48]	; 0x30
 80036dc:	2301      	movs	r3, #1
 80036de:	4319      	orrs	r1, r3
 80036e0:	6311      	str	r1, [r2, #48]	; 0x30
 80036e2:	6b12      	ldr	r2, [r2, #48]	; 0x30
 80036e4:	4013      	ands	r3, r2
 80036e6:	9301      	str	r3, [sp, #4]
 80036e8:	9b01      	ldr	r3, [sp, #4]
  HAL_NVIC_SetPriority(DMA1_Channel2_3_IRQn, 0, 0);
 80036ea:	2200      	movs	r2, #0
 80036ec:	2100      	movs	r1, #0
 80036ee:	200a      	movs	r0, #10
 80036f0:	f7fd feb2 	bl	8001458 <HAL_NVIC_SetPriority>
  HAL_NVIC_EnableIRQ(DMA1_Channel2_3_IRQn);
 80036f4:	200a      	movs	r0, #10
 80036f6:	f7fd fee1 	bl	80014bc <HAL_NVIC_EnableIRQ>
}
 80036fa:	b003      	add	sp, #12
 80036fc:	bd00      	pop	{pc}
 80036fe:	46c0      	nop			; (mov r8, r8)
 8003700:	40021000 	.word	0x40021000

08003704 <MX_TIM6_Init>:
{
 8003704:	b530      	push	{r4, r5, lr}
 8003706:	b083      	sub	sp, #12
  TIM_MasterConfigTypeDef sMasterConfig = {0};
 8003708:	2208      	movs	r2, #8
 800370a:	2100      	movs	r1, #0
 800370c:	4668      	mov	r0, sp
 800370e:	f000 fe79 	bl	8004404 <memset>
  htim6.Instance = TIM6;
 8003712:	4c0b      	ldr	r4, [pc, #44]	; (8003740 <MX_TIM6_Init+0x3c>)
 8003714:	4b0b      	ldr	r3, [pc, #44]	; (8003744 <MX_TIM6_Init+0x40>)
 8003716:	6023      	str	r3, [r4, #0]
  htim6.Init.Prescaler = 320;
 8003718:	23a0      	movs	r3, #160	; 0xa0
 800371a:	005b      	lsls	r3, r3, #1
 800371c:	6063      	str	r3, [r4, #4]
  htim6.Init.CounterMode = TIM_COUNTERMODE_UP;
 800371e:	2500      	movs	r5, #0
 8003720:	60a5      	str	r5, [r4, #8]
  htim6.Init.Period = 65000;
 8003722:	4b09      	ldr	r3, [pc, #36]	; (8003748 <MX_TIM6_Init+0x44>)
 8003724:	60e3      	str	r3, [r4, #12]
  htim6.Init.AutoReloadPreload = TIM_AUTORELOAD_PRELOAD_DISABLE;
 8003726:	6165      	str	r5, [r4, #20]
  if (HAL_TIM_Base_Init(&htim6) != HAL_OK)
 8003728:	0020      	movs	r0, r4
 800372a:	f7fe fea4 	bl	8002476 <HAL_TIM_Base_Init>
  sMasterConfig.MasterOutputTrigger = TIM_TRGO_RESET;
 800372e:	9500      	str	r5, [sp, #0]
  sMasterConfig.MasterSlaveMode = TIM_MASTERSLAVEMODE_DISABLE;
 8003730:	9501      	str	r5, [sp, #4]
  if (HAL_TIMEx_MasterConfigSynchronization(&htim6, &sMasterConfig) != HAL_OK)
 8003732:	4669      	mov	r1, sp
 8003734:	0020      	movs	r0, r4
 8003736:	f7ff f862 	bl	80027fe <HAL_TIMEx_MasterConfigSynchronization>
}
 800373a:	b003      	add	sp, #12
 800373c:	bd30      	pop	{r4, r5, pc}
 800373e:	46c0      	nop			; (mov r8, r8)
 8003740:	200001e8 	.word	0x200001e8
 8003744:	40001000 	.word	0x40001000
 8003748:	0000fde8 	.word	0x0000fde8

0800374c <MX_TIM3_Init>:
{
 800374c:	b530      	push	{r4, r5, lr}
 800374e:	b08b      	sub	sp, #44	; 0x2c
  TIM_ClockConfigTypeDef sClockSourceConfig = {0};
 8003750:	2210      	movs	r2, #16
 8003752:	2100      	movs	r1, #0
 8003754:	a806      	add	r0, sp, #24
 8003756:	f000 fe55 	bl	8004404 <memset>
  TIM_MasterConfigTypeDef sMasterConfig = {0};
 800375a:	2208      	movs	r2, #8
 800375c:	2100      	movs	r1, #0
 800375e:	a804      	add	r0, sp, #16
 8003760:	f000 fe50 	bl	8004404 <memset>
  TIM_OC_InitTypeDef sConfigOC = {0};
 8003764:	2210      	movs	r2, #16
 8003766:	2100      	movs	r1, #0
 8003768:	4668      	mov	r0, sp
 800376a:	f000 fe4b 	bl	8004404 <memset>
  htim3.Instance = TIM3;
 800376e:	4c21      	ldr	r4, [pc, #132]	; (80037f4 <MX_TIM3_Init+0xa8>)
 8003770:	4b21      	ldr	r3, [pc, #132]	; (80037f8 <MX_TIM3_Init+0xac>)
 8003772:	6023      	str	r3, [r4, #0]
  htim3.Init.Prescaler = 320;
 8003774:	23a0      	movs	r3, #160	; 0xa0
 8003776:	005b      	lsls	r3, r3, #1
 8003778:	6063      	str	r3, [r4, #4]
  htim3.Init.CounterMode = TIM_COUNTERMODE_UP;
 800377a:	2500      	movs	r5, #0
 800377c:	60a5      	str	r5, [r4, #8]
  htim3.Init.Period = 1000;
 800377e:	23fa      	movs	r3, #250	; 0xfa
 8003780:	009b      	lsls	r3, r3, #2
 8003782:	60e3      	str	r3, [r4, #12]
  htim3.Init.ClockDivision = TIM_CLOCKDIVISION_DIV1;
 8003784:	6125      	str	r5, [r4, #16]
  htim3.Init.AutoReloadPreload = TIM_AUTORELOAD_PRELOAD_DISABLE;
 8003786:	6165      	str	r5, [r4, #20]
  if (HAL_TIM_Base_Init(&htim3) != HAL_OK)
 8003788:	0020      	movs	r0, r4
 800378a:	f7fe fe74 	bl	8002476 <HAL_TIM_Base_Init>
  sClockSourceConfig.ClockSource = TIM_CLOCKSOURCE_INTERNAL;
 800378e:	2380      	movs	r3, #128	; 0x80
 8003790:	015b      	lsls	r3, r3, #5
 8003792:	9306      	str	r3, [sp, #24]
  if (HAL_TIM_ConfigClockSource(&htim3, &sClockSourceConfig) != HAL_OK)
 8003794:	a906      	add	r1, sp, #24
 8003796:	0020      	movs	r0, r4
 8003798:	f7fe ff2a 	bl	80025f0 <HAL_TIM_ConfigClockSource>
  if (HAL_TIM_PWM_Init(&htim3) != HAL_OK)
 800379c:	0020      	movs	r0, r4
 800379e:	f7fe fe85 	bl	80024ac <HAL_TIM_PWM_Init>
  sMasterConfig.MasterOutputTrigger = TIM_TRGO_RESET;
 80037a2:	9504      	str	r5, [sp, #16]
  sMasterConfig.MasterSlaveMode = TIM_MASTERSLAVEMODE_DISABLE;
 80037a4:	9505      	str	r5, [sp, #20]
  if (HAL_TIMEx_MasterConfigSynchronization(&htim3, &sMasterConfig) != HAL_OK)
 80037a6:	a904      	add	r1, sp, #16
 80037a8:	0020      	movs	r0, r4
 80037aa:	f7ff f828 	bl	80027fe <HAL_TIMEx_MasterConfigSynchronization>
  sConfigOC.OCMode = TIM_OCMODE_PWM1;
 80037ae:	2360      	movs	r3, #96	; 0x60
 80037b0:	9300      	str	r3, [sp, #0]
  sConfigOC.Pulse = 0;
 80037b2:	9501      	str	r5, [sp, #4]
  sConfigOC.OCPolarity = TIM_OCPOLARITY_HIGH;
 80037b4:	9502      	str	r5, [sp, #8]
  sConfigOC.OCFastMode = TIM_OCFAST_DISABLE;
 80037b6:	9503      	str	r5, [sp, #12]
  if (HAL_TIM_PWM_ConfigChannel(&htim3, &sConfigOC, TIM_CHANNEL_1) != HAL_OK)
 80037b8:	2200      	movs	r2, #0
 80037ba:	4669      	mov	r1, sp
 80037bc:	0020      	movs	r0, r4
 80037be:	f7fe fea1 	bl	8002504 <HAL_TIM_PWM_ConfigChannel>
  if (HAL_TIMEx_RemapConfig(&htim3, TIM3_TI1_GPIO) != HAL_OK)
 80037c2:	2104      	movs	r1, #4
 80037c4:	0020      	movs	r0, r4
 80037c6:	f7ff f845 	bl	8002854 <HAL_TIMEx_RemapConfig>
  if (HAL_TIM_PWM_ConfigChannel(&htim3, &sConfigOC, TIM_CHANNEL_2) != HAL_OK)
 80037ca:	2204      	movs	r2, #4
 80037cc:	4669      	mov	r1, sp
 80037ce:	0020      	movs	r0, r4
 80037d0:	f7fe fe98 	bl	8002504 <HAL_TIM_PWM_ConfigChannel>
  if (HAL_TIM_PWM_ConfigChannel(&htim3, &sConfigOC, TIM_CHANNEL_3) != HAL_OK)
 80037d4:	2208      	movs	r2, #8
 80037d6:	4669      	mov	r1, sp
 80037d8:	0020      	movs	r0, r4
 80037da:	f7fe fe93 	bl	8002504 <HAL_TIM_PWM_ConfigChannel>
  if (HAL_TIM_PWM_ConfigChannel(&htim3, &sConfigOC, TIM_CHANNEL_4) != HAL_OK)
 80037de:	220c      	movs	r2, #12
 80037e0:	4669      	mov	r1, sp
 80037e2:	0020      	movs	r0, r4
 80037e4:	f7fe fe8e 	bl	8002504 <HAL_TIM_PWM_ConfigChannel>
  HAL_TIM_MspPostInit(&htim3);
 80037e8:	0020      	movs	r0, r4
 80037ea:	f000 fc67 	bl	80040bc <HAL_TIM_MspPostInit>
}
 80037ee:	b00b      	add	sp, #44	; 0x2c
 80037f0:	bd30      	pop	{r4, r5, pc}
 80037f2:	46c0      	nop			; (mov r8, r8)
 80037f4:	20000060 	.word	0x20000060
 80037f8:	40000400 	.word	0x40000400

080037fc <MX_TIM22_Init>:
{
 80037fc:	b530      	push	{r4, r5, lr}
 80037fe:	b08b      	sub	sp, #44	; 0x2c
  TIM_ClockConfigTypeDef sClockSourceConfig = {0};
 8003800:	2210      	movs	r2, #16
 8003802:	2100      	movs	r1, #0
 8003804:	a806      	add	r0, sp, #24
 8003806:	f000 fdfd 	bl	8004404 <memset>
  TIM_MasterConfigTypeDef sMasterConfig = {0};
 800380a:	2208      	movs	r2, #8
 800380c:	2100      	movs	r1, #0
 800380e:	a804      	add	r0, sp, #16
 8003810:	f000 fdf8 	bl	8004404 <memset>
  TIM_OC_InitTypeDef sConfigOC = {0};
 8003814:	2210      	movs	r2, #16
 8003816:	2100      	movs	r1, #0
 8003818:	4668      	mov	r0, sp
 800381a:	f000 fdf3 	bl	8004404 <memset>
  htim22.Instance = TIM22;
 800381e:	4c19      	ldr	r4, [pc, #100]	; (8003884 <MX_TIM22_Init+0x88>)
 8003820:	4b19      	ldr	r3, [pc, #100]	; (8003888 <MX_TIM22_Init+0x8c>)
 8003822:	6023      	str	r3, [r4, #0]
  htim22.Init.Prescaler = 32;
 8003824:	2320      	movs	r3, #32
 8003826:	6063      	str	r3, [r4, #4]
  htim22.Init.CounterMode = TIM_COUNTERMODE_UP;
 8003828:	2500      	movs	r5, #0
 800382a:	60a5      	str	r5, [r4, #8]
  htim22.Init.Period = 65000;
 800382c:	4b17      	ldr	r3, [pc, #92]	; (800388c <MX_TIM22_Init+0x90>)
 800382e:	60e3      	str	r3, [r4, #12]
  htim22.Init.ClockDivision = TIM_CLOCKDIVISION_DIV1;
 8003830:	6125      	str	r5, [r4, #16]
  htim22.Init.AutoReloadPreload = TIM_AUTORELOAD_PRELOAD_DISABLE;
 8003832:	6165      	str	r5, [r4, #20]
  if (HAL_TIM_Base_Init(&htim22) != HAL_OK)
 8003834:	0020      	movs	r0, r4
 8003836:	f7fe fe1e 	bl	8002476 <HAL_TIM_Base_Init>
  sClockSourceConfig.ClockSource = TIM_CLOCKSOURCE_INTERNAL;
 800383a:	2380      	movs	r3, #128	; 0x80
 800383c:	015b      	lsls	r3, r3, #5
 800383e:	9306      	str	r3, [sp, #24]
  if (HAL_TIM_ConfigClockSource(&htim22, &sClockSourceConfig) != HAL_OK)
 8003840:	a906      	add	r1, sp, #24
 8003842:	0020      	movs	r0, r4
 8003844:	f7fe fed4 	bl	80025f0 <HAL_TIM_ConfigClockSource>
  if (HAL_TIM_PWM_Init(&htim22) != HAL_OK)
 8003848:	0020      	movs	r0, r4
 800384a:	f7fe fe2f 	bl	80024ac <HAL_TIM_PWM_Init>
  sMasterConfig.MasterOutputTrigger = TIM_TRGO_RESET;
 800384e:	9504      	str	r5, [sp, #16]
  sMasterConfig.MasterSlaveMode = TIM_MASTERSLAVEMODE_DISABLE;
 8003850:	9505      	str	r5, [sp, #20]
  if (HAL_TIMEx_MasterConfigSynchronization(&htim22, &sMasterConfig) != HAL_OK)
 8003852:	a904      	add	r1, sp, #16
 8003854:	0020      	movs	r0, r4
 8003856:	f7fe ffd2 	bl	80027fe <HAL_TIMEx_MasterConfigSynchronization>
  sConfigOC.OCMode = TIM_OCMODE_PWM1;
 800385a:	2360      	movs	r3, #96	; 0x60
 800385c:	9300      	str	r3, [sp, #0]
  sConfigOC.Pulse = 15;
 800385e:	3b51      	subs	r3, #81	; 0x51
 8003860:	9301      	str	r3, [sp, #4]
  sConfigOC.OCPolarity = TIM_OCPOLARITY_HIGH;
 8003862:	9502      	str	r5, [sp, #8]
  sConfigOC.OCFastMode = TIM_OCFAST_DISABLE;
 8003864:	9503      	str	r5, [sp, #12]
  if (HAL_TIM_PWM_ConfigChannel(&htim22, &sConfigOC, TIM_CHANNEL_1) != HAL_OK)
 8003866:	2200      	movs	r2, #0
 8003868:	4669      	mov	r1, sp
 800386a:	0020      	movs	r0, r4
 800386c:	f7fe fe4a 	bl	8002504 <HAL_TIM_PWM_ConfigChannel>
  if (HAL_TIMEx_RemapConfig(&htim22, TIM3_TI1_GPIO) != HAL_OK)
 8003870:	2104      	movs	r1, #4
 8003872:	0020      	movs	r0, r4
 8003874:	f7fe ffee 	bl	8002854 <HAL_TIMEx_RemapConfig>
  HAL_TIM_MspPostInit(&htim22);
 8003878:	0020      	movs	r0, r4
 800387a:	f000 fc1f 	bl	80040bc <HAL_TIM_MspPostInit>
}
 800387e:	b00b      	add	sp, #44	; 0x2c
 8003880:	bd30      	pop	{r4, r5, pc}
 8003882:	46c0      	nop			; (mov r8, r8)
 8003884:	2000012c 	.word	0x2000012c
 8003888:	40011400 	.word	0x40011400
 800388c:	0000fde8 	.word	0x0000fde8

08003890 <MX_USART1_UART_Init>:
{
 8003890:	b510      	push	{r4, lr}
  huart1.Instance = USART1;
 8003892:	4809      	ldr	r0, [pc, #36]	; (80038b8 <MX_USART1_UART_Init+0x28>)
 8003894:	4b09      	ldr	r3, [pc, #36]	; (80038bc <MX_USART1_UART_Init+0x2c>)
 8003896:	6003      	str	r3, [r0, #0]
  huart1.Init.BaudRate = 9600;
 8003898:	2396      	movs	r3, #150	; 0x96
 800389a:	019b      	lsls	r3, r3, #6
 800389c:	6043      	str	r3, [r0, #4]
  huart1.Init.WordLength = UART_WORDLENGTH_8B;
 800389e:	2300      	movs	r3, #0
 80038a0:	6083      	str	r3, [r0, #8]
  huart1.Init.StopBits = UART_STOPBITS_1;
 80038a2:	60c3      	str	r3, [r0, #12]
  huart1.Init.Parity = UART_PARITY_NONE;
 80038a4:	6103      	str	r3, [r0, #16]
  huart1.Init.Mode = UART_MODE_TX_RX;
 80038a6:	220c      	movs	r2, #12
 80038a8:	6142      	str	r2, [r0, #20]
  huart1.Init.HwFlowCtl = UART_HWCONTROL_NONE;
 80038aa:	6183      	str	r3, [r0, #24]
  huart1.Init.OverSampling = UART_OVERSAMPLING_16;
 80038ac:	61c3      	str	r3, [r0, #28]
  huart1.Init.OneBitSampling = UART_ONE_BIT_SAMPLE_DISABLE;
 80038ae:	6203      	str	r3, [r0, #32]
  huart1.AdvancedInit.AdvFeatureInit = UART_ADVFEATURE_NO_INIT;
 80038b0:	6243      	str	r3, [r0, #36]	; 0x24
  if (HAL_UART_Init(&huart1) != HAL_OK)
 80038b2:	f7ff fc2f 	bl	8003114 <HAL_UART_Init>
}
 80038b6:	bd10      	pop	{r4, pc}
 80038b8:	20000168 	.word	0x20000168
 80038bc:	40013800 	.word	0x40013800

080038c0 <SystemClock_Config>:
{
 80038c0:	b530      	push	{r4, r5, lr}
 80038c2:	b09f      	sub	sp, #124	; 0x7c
  RCC_OscInitTypeDef RCC_OscInitStruct = {0};
 80038c4:	2238      	movs	r2, #56	; 0x38
 80038c6:	2100      	movs	r1, #0
 80038c8:	a810      	add	r0, sp, #64	; 0x40
 80038ca:	f000 fd9b 	bl	8004404 <memset>
  RCC_ClkInitTypeDef RCC_ClkInitStruct = {0};
 80038ce:	2214      	movs	r2, #20
 80038d0:	2100      	movs	r1, #0
 80038d2:	a80b      	add	r0, sp, #44	; 0x2c
 80038d4:	f000 fd96 	bl	8004404 <memset>
  RCC_PeriphCLKInitTypeDef PeriphClkInit = {0};
 80038d8:	2228      	movs	r2, #40	; 0x28
 80038da:	2100      	movs	r1, #0
 80038dc:	a801      	add	r0, sp, #4
 80038de:	f000 fd91 	bl	8004404 <memset>
  __HAL_PWR_VOLTAGESCALING_CONFIG(PWR_REGULATOR_VOLTAGE_SCALE1);
 80038e2:	4916      	ldr	r1, [pc, #88]	; (800393c <SystemClock_Config+0x7c>)
 80038e4:	680b      	ldr	r3, [r1, #0]
 80038e6:	4a16      	ldr	r2, [pc, #88]	; (8003940 <SystemClock_Config+0x80>)
 80038e8:	401a      	ands	r2, r3
 80038ea:	2380      	movs	r3, #128	; 0x80
 80038ec:	011b      	lsls	r3, r3, #4
 80038ee:	4313      	orrs	r3, r2
 80038f0:	600b      	str	r3, [r1, #0]
  RCC_OscInitStruct.OscillatorType = RCC_OSCILLATORTYPE_HSI;
 80038f2:	2302      	movs	r3, #2
 80038f4:	9310      	str	r3, [sp, #64]	; 0x40
  RCC_OscInitStruct.HSIState = RCC_HSI_ON;
 80038f6:	2501      	movs	r5, #1
 80038f8:	9513      	str	r5, [sp, #76]	; 0x4c
  RCC_OscInitStruct.HSICalibrationValue = RCC_HSICALIBRATION_DEFAULT;
 80038fa:	2210      	movs	r2, #16
 80038fc:	9214      	str	r2, [sp, #80]	; 0x50
  RCC_OscInitStruct.PLL.PLLState = RCC_PLL_ON;
 80038fe:	931a      	str	r3, [sp, #104]	; 0x68
  RCC_OscInitStruct.PLL.PLLSource = RCC_PLLSOURCE_HSI;
 8003900:	2400      	movs	r4, #0
 8003902:	941b      	str	r4, [sp, #108]	; 0x6c
  RCC_OscInitStruct.PLL.PLLMUL = RCC_PLLMUL_4;
 8003904:	2380      	movs	r3, #128	; 0x80
 8003906:	02db      	lsls	r3, r3, #11
 8003908:	931c      	str	r3, [sp, #112]	; 0x70
  RCC_OscInitStruct.PLL.PLLDIV = RCC_PLLDIV_2;
 800390a:	2380      	movs	r3, #128	; 0x80
 800390c:	03db      	lsls	r3, r3, #15
 800390e:	931d      	str	r3, [sp, #116]	; 0x74
  if (HAL_RCC_OscConfig(&RCC_OscInitStruct) != HAL_OK)
 8003910:	a810      	add	r0, sp, #64	; 0x40
 8003912:	f7fe f801 	bl	8001918 <HAL_RCC_OscConfig>
  RCC_ClkInitStruct.ClockType = RCC_CLOCKTYPE_HCLK|RCC_CLOCKTYPE_SYSCLK
 8003916:	230f      	movs	r3, #15
 8003918:	930b      	str	r3, [sp, #44]	; 0x2c
  RCC_ClkInitStruct.SYSCLKSource = RCC_SYSCLKSOURCE_PLLCLK;
 800391a:	3b0c      	subs	r3, #12
 800391c:	930c      	str	r3, [sp, #48]	; 0x30
  RCC_ClkInitStruct.AHBCLKDivider = RCC_SYSCLK_DIV1;
 800391e:	940d      	str	r4, [sp, #52]	; 0x34
  RCC_ClkInitStruct.APB1CLKDivider = RCC_HCLK_DIV1;
 8003920:	940e      	str	r4, [sp, #56]	; 0x38
  RCC_ClkInitStruct.APB2CLKDivider = RCC_HCLK_DIV1;
 8003922:	940f      	str	r4, [sp, #60]	; 0x3c
  if (HAL_RCC_ClockConfig(&RCC_ClkInitStruct, FLASH_LATENCY_1) != HAL_OK)
 8003924:	2101      	movs	r1, #1
 8003926:	a80b      	add	r0, sp, #44	; 0x2c
 8003928:	f7fe fab8 	bl	8001e9c <HAL_RCC_ClockConfig>
  PeriphClkInit.PeriphClockSelection = RCC_PERIPHCLK_USART1;
 800392c:	9501      	str	r5, [sp, #4]
  PeriphClkInit.Usart1ClockSelection = RCC_USART1CLKSOURCE_PCLK2;
 800392e:	9404      	str	r4, [sp, #16]
  if (HAL_RCCEx_PeriphCLKConfig(&PeriphClkInit) != HAL_OK)
 8003930:	a801      	add	r0, sp, #4
 8003932:	f7fe fbad 	bl	8002090 <HAL_RCCEx_PeriphCLKConfig>
}
 8003936:	b01f      	add	sp, #124	; 0x7c
 8003938:	bd30      	pop	{r4, r5, pc}
 800393a:	46c0      	nop			; (mov r8, r8)
 800393c:	40007000 	.word	0x40007000
 8003940:	ffffe7ff 	.word	0xffffe7ff

08003944 <main>:
{
 8003944:	b5f8      	push	{r3, r4, r5, r6, r7, lr}
  HAL_Init();
 8003946:	f7fd fd5f 	bl	8001408 <HAL_Init>
  SystemClock_Config();
 800394a:	f7ff ffb9 	bl	80038c0 <SystemClock_Config>
  MX_GPIO_Init();
 800394e:	f7ff fe15 	bl	800357c <MX_GPIO_Init>
  MX_DMA_Init();
 8003952:	f7ff febf 	bl	80036d4 <MX_DMA_Init>
  MX_TIM3_Init();
 8003956:	f7ff fef9 	bl	800374c <MX_TIM3_Init>
  MX_USART1_UART_Init();
 800395a:	f7ff ff99 	bl	8003890 <MX_USART1_UART_Init>
  MX_TIM6_Init();
 800395e:	f7ff fed1 	bl	8003704 <MX_TIM6_Init>
  MX_TIM22_Init();
 8003962:	f7ff ff4b 	bl	80037fc <MX_TIM22_Init>
  init_ultrasound(&htim22);
 8003966:	482b      	ldr	r0, [pc, #172]	; (8003a14 <main+0xd0>)
 8003968:	f7ff fde8 	bl	800353c <init_ultrasound>
  start_motor_control(&htim3);
 800396c:	4d2a      	ldr	r5, [pc, #168]	; (8003a18 <main+0xd4>)
 800396e:	0028      	movs	r0, r5
 8003970:	f000 f864 	bl	8003a3c <start_motor_control>
  start_cerpadlo_control();
 8003974:	f7ff fd18 	bl	80033a8 <start_cerpadlo_control>
  init_PID();
 8003978:	f000 f996 	bl	8003ca8 <init_PID>
  init_PID_ultrazvuk();
 800397c:	f000 f9c2 	bl	8003d04 <init_PID_ultrazvuk>
  start_encoder();
 8003980:	f000 f9f6 	bl	8003d70 <start_encoder>
  posun_cerpadla(nahoru);
 8003984:	2001      	movs	r0, #1
 8003986:	f7ff fc9b 	bl	80032c0 <posun_cerpadla>
  Travel_rovne(&htim3,10,600);
 800398a:	2796      	movs	r7, #150	; 0x96
 800398c:	00bf      	lsls	r7, r7, #2
 800398e:	4e23      	ldr	r6, [pc, #140]	; (8003a1c <main+0xd8>)
 8003990:	003a      	movs	r2, r7
 8003992:	1c31      	adds	r1, r6, #0
 8003994:	0028      	movs	r0, r5
 8003996:	f000 fa11 	bl	8003dbc <Travel_rovne>
  HAL_Delay(1000);
 800399a:	24fa      	movs	r4, #250	; 0xfa
 800399c:	00a4      	lsls	r4, r4, #2
 800399e:	0020      	movs	r0, r4
 80039a0:	f7fd fd4c 	bl	800143c <HAL_Delay>
  posun_cerpadla(dolu);
 80039a4:	2000      	movs	r0, #0
 80039a6:	f7ff fc8b 	bl	80032c0 <posun_cerpadla>
  HAL_Delay(1000);
 80039aa:	0020      	movs	r0, r4
 80039ac:	f7fd fd46 	bl	800143c <HAL_Delay>
  start_cerpani_v_rameni(800); //10 = 1s
 80039b0:	20c8      	movs	r0, #200	; 0xc8
 80039b2:	0080      	lsls	r0, r0, #2
 80039b4:	f7ff fc48 	bl	8003248 <start_cerpani_v_rameni>
  posun_cerpadla(nahoru);
 80039b8:	2001      	movs	r0, #1
 80039ba:	f7ff fc81 	bl	80032c0 <posun_cerpadla>
  set_stop(0,0);
 80039be:	2100      	movs	r1, #0
 80039c0:	2000      	movs	r0, #0
 80039c2:	f000 f831 	bl	8003a28 <set_stop>
  Travel_rovne(&htim3,0.5,-500);
 80039c6:	4a16      	ldr	r2, [pc, #88]	; (8003a20 <main+0xdc>)
 80039c8:	21fc      	movs	r1, #252	; 0xfc
 80039ca:	0589      	lsls	r1, r1, #22
 80039cc:	0028      	movs	r0, r5
 80039ce:	f000 f9f5 	bl	8003dbc <Travel_rovne>
  HAL_Delay(1000);
 80039d2:	0020      	movs	r0, r4
 80039d4:	f7fd fd32 	bl	800143c <HAL_Delay>
  set_stop(0,0);
 80039d8:	2100      	movs	r1, #0
 80039da:	2000      	movs	r0, #0
 80039dc:	f000 f824 	bl	8003a28 <set_stop>
  Travel_turn(&htim3,80,1000);
 80039e0:	0022      	movs	r2, r4
 80039e2:	2150      	movs	r1, #80	; 0x50
 80039e4:	0028      	movs	r0, r5
 80039e6:	f000 fa6d 	bl	8003ec4 <Travel_turn>
  HAL_Delay(1000);
 80039ea:	0020      	movs	r0, r4
 80039ec:	f7fd fd26 	bl	800143c <HAL_Delay>
  set_stop(0,0);
 80039f0:	2100      	movs	r1, #0
 80039f2:	2000      	movs	r0, #0
 80039f4:	f000 f818 	bl	8003a28 <set_stop>
  Travel_rovne(&htim3,10,600);
 80039f8:	003a      	movs	r2, r7
 80039fa:	1c31      	adds	r1, r6, #0
 80039fc:	0028      	movs	r0, r5
 80039fe:	f000 f9dd 	bl	8003dbc <Travel_rovne>
  HAL_Delay(1000);
 8003a02:	0020      	movs	r0, r4
 8003a04:	f7fd fd1a 	bl	800143c <HAL_Delay>
  start_cerpani_v_nadrzi(800); //10 = 1s
 8003a08:	20c8      	movs	r0, #200	; 0xc8
 8003a0a:	0080      	lsls	r0, r0, #2
 8003a0c:	f7ff fbfc 	bl	8003208 <start_cerpani_v_nadrzi>
 8003a10:	e7fe      	b.n	8003a10 <main+0xcc>
 8003a12:	46c0      	nop			; (mov r8, r8)
 8003a14:	2000012c 	.word	0x2000012c
 8003a18:	20000060 	.word	0x20000060
 8003a1c:	41200000 	.word	0x41200000
 8003a20:	fffffe0c 	.word	0xfffffe0c

08003a24 <Error_Handler>:
{
  /* USER CODE BEGIN Error_Handler_Debug */
  /* User can add his own implementation to report the HAL error return state */

  /* USER CODE END Error_Handler_Debug */
}
 8003a24:	4770      	bx	lr
	...

08003a28 <set_stop>:
int currentdistance;
int currentdistance1;
int currentdistance2;

void set_stop(uint8_t valuestop,uint8_t valuetotal_stop){
	stop = valuestop;
 8003a28:	4b02      	ldr	r3, [pc, #8]	; (8003a34 <set_stop+0xc>)
 8003a2a:	7018      	strb	r0, [r3, #0]
	total_stop=valuetotal_stop;
 8003a2c:	4b02      	ldr	r3, [pc, #8]	; (8003a38 <set_stop+0x10>)
 8003a2e:	7019      	strb	r1, [r3, #0]
}
 8003a30:	4770      	bx	lr
 8003a32:	46c0      	nop			; (mov r8, r8)
 8003a34:	200002bc 	.word	0x200002bc
 8003a38:	200002af 	.word	0x200002af

08003a3c <start_motor_control>:
			timer2= HAL_GetTick()+10; //frequency of PID regulator cca 10ms;
		}

}

void start_motor_control(TIM_HandleTypeDef *htim){
 8003a3c:	b5f0      	push	{r4, r5, r6, r7, lr}
 8003a3e:	b083      	sub	sp, #12
	speed1 = 0;
 8003a40:	4c19      	ldr	r4, [pc, #100]	; (8003aa8 <start_motor_control+0x6c>)
 8003a42:	2300      	movs	r3, #0
 8003a44:	8023      	strh	r3, [r4, #0]
	speed2 = 0;
 8003a46:	4f19      	ldr	r7, [pc, #100]	; (8003aac <start_motor_control+0x70>)
 8003a48:	803b      	strh	r3, [r7, #0]
	speed3 = 0;
 8003a4a:	4e19      	ldr	r6, [pc, #100]	; (8003ab0 <start_motor_control+0x74>)
 8003a4c:	8033      	strh	r3, [r6, #0]
	speed4 = 0;
 8003a4e:	4d19      	ldr	r5, [pc, #100]	; (8003ab4 <start_motor_control+0x78>)
 8003a50:	802b      	strh	r3, [r5, #0]
	speed_cerpadlo_nahoru = 0;
 8003a52:	4a19      	ldr	r2, [pc, #100]	; (8003ab8 <start_motor_control+0x7c>)
 8003a54:	8013      	strh	r3, [r2, #0]
	speed_cerpadlo_dolu = 0;
 8003a56:	4a19      	ldr	r2, [pc, #100]	; (8003abc <start_motor_control+0x80>)
 8003a58:	8013      	strh	r3, [r2, #0]
	HAL_TIM_PWM_Init(htim);
 8003a5a:	9001      	str	r0, [sp, #4]
 8003a5c:	f7fe fd26 	bl	80024ac <HAL_TIM_PWM_Init>
	HAL_TIM_PWM_Start(htim,TIM_CHANNEL_1);
 8003a60:	2100      	movs	r1, #0
 8003a62:	9801      	ldr	r0, [sp, #4]
 8003a64:	f7fe fd3c 	bl	80024e0 <HAL_TIM_PWM_Start>
	HAL_TIM_PWM_Start(htim,TIM_CHANNEL_2);
 8003a68:	2104      	movs	r1, #4
 8003a6a:	9801      	ldr	r0, [sp, #4]
 8003a6c:	f7fe fd38 	bl	80024e0 <HAL_TIM_PWM_Start>
	HAL_TIM_PWM_Start(htim,TIM_CHANNEL_3);
 8003a70:	2108      	movs	r1, #8
 8003a72:	9801      	ldr	r0, [sp, #4]
 8003a74:	f7fe fd34 	bl	80024e0 <HAL_TIM_PWM_Start>
	HAL_TIM_PWM_Start(htim,TIM_CHANNEL_4);
 8003a78:	210c      	movs	r1, #12
 8003a7a:	9801      	ldr	r0, [sp, #4]
 8003a7c:	f7fe fd30 	bl	80024e0 <HAL_TIM_PWM_Start>
	TIM3->CCR1 = speed1;
 8003a80:	2300      	movs	r3, #0
 8003a82:	5ee2      	ldrsh	r2, [r4, r3]
 8003a84:	4b0e      	ldr	r3, [pc, #56]	; (8003ac0 <start_motor_control+0x84>)
 8003a86:	635a      	str	r2, [r3, #52]	; 0x34
    TIM3->CCR2 = speed2;
 8003a88:	2100      	movs	r1, #0
 8003a8a:	5e7a      	ldrsh	r2, [r7, r1]
 8003a8c:	639a      	str	r2, [r3, #56]	; 0x38
    TIM3->CCR3 = speed3;
 8003a8e:	2100      	movs	r1, #0
 8003a90:	5e72      	ldrsh	r2, [r6, r1]
 8003a92:	63da      	str	r2, [r3, #60]	; 0x3c
    TIM3->CCR4 = speed4;
 8003a94:	2100      	movs	r1, #0
 8003a96:	5e6a      	ldrsh	r2, [r5, r1]
 8003a98:	641a      	str	r2, [r3, #64]	; 0x40
    set_stop(0,0);
 8003a9a:	2100      	movs	r1, #0
 8003a9c:	2000      	movs	r0, #0
 8003a9e:	f7ff ffc3 	bl	8003a28 <set_stop>
}
 8003aa2:	b003      	add	sp, #12
 8003aa4:	bdf0      	pop	{r4, r5, r6, r7, pc}
 8003aa6:	46c0      	nop			; (mov r8, r8)
 8003aa8:	200002ac 	.word	0x200002ac
 8003aac:	20000244 	.word	0x20000244
 8003ab0:	2000027a 	.word	0x2000027a
 8003ab4:	20000230 	.word	0x20000230
 8003ab8:	20000270 	.word	0x20000270
 8003abc:	20000294 	.word	0x20000294
 8003ac0:	40000400 	.word	0x40000400

08003ac4 <set_motor_speed>:
	set_speed_rigth = speedrigth;
	set_speed_left = speedleft;
	set_motor_speed(htim,set_speed_rigth,set_speed_left);
}

int set_motor_speed(TIM_HandleTypeDef *htim,int speedrigth,int speedleft){
 8003ac4:	b510      	push	{r4, lr}
	if (speedrigth == 0){
 8003ac6:	2900      	cmp	r1, #0
 8003ac8:	d104      	bne.n	8003ad4 <set_motor_speed+0x10>
		speed1 = 0;
 8003aca:	2300      	movs	r3, #0
 8003acc:	4821      	ldr	r0, [pc, #132]	; (8003b54 <set_motor_speed+0x90>)
 8003ace:	8003      	strh	r3, [r0, #0]
		speed2 = 0;
 8003ad0:	4821      	ldr	r0, [pc, #132]	; (8003b58 <set_motor_speed+0x94>)
 8003ad2:	8003      	strh	r3, [r0, #0]
	}
	if (speedleft ==0){
 8003ad4:	2a00      	cmp	r2, #0
 8003ad6:	d104      	bne.n	8003ae2 <set_motor_speed+0x1e>
		speed3 = 0;
 8003ad8:	2300      	movs	r3, #0
 8003ada:	4820      	ldr	r0, [pc, #128]	; (8003b5c <set_motor_speed+0x98>)
 8003adc:	8003      	strh	r3, [r0, #0]
		speed4 = 0;
 8003ade:	4820      	ldr	r0, [pc, #128]	; (8003b60 <set_motor_speed+0x9c>)
 8003ae0:	8003      	strh	r3, [r0, #0]
	}
	if(speedrigth >0){
 8003ae2:	2900      	cmp	r1, #0
 8003ae4:	dd04      	ble.n	8003af0 <set_motor_speed+0x2c>
		speed1 = speedrigth;
 8003ae6:	4b1b      	ldr	r3, [pc, #108]	; (8003b54 <set_motor_speed+0x90>)
 8003ae8:	8019      	strh	r1, [r3, #0]
	    speed2 = 0;
 8003aea:	2000      	movs	r0, #0
 8003aec:	4b1a      	ldr	r3, [pc, #104]	; (8003b58 <set_motor_speed+0x94>)
 8003aee:	8018      	strh	r0, [r3, #0]
	}
	if (speedleft >0){
 8003af0:	2a00      	cmp	r2, #0
 8003af2:	dd04      	ble.n	8003afe <set_motor_speed+0x3a>
	    speed3 = speedleft;
 8003af4:	4b19      	ldr	r3, [pc, #100]	; (8003b5c <set_motor_speed+0x98>)
 8003af6:	801a      	strh	r2, [r3, #0]
		speed4 = 0;
 8003af8:	2000      	movs	r0, #0
 8003afa:	4b19      	ldr	r3, [pc, #100]	; (8003b60 <set_motor_speed+0x9c>)
 8003afc:	8018      	strh	r0, [r3, #0]
	}
	if (speedrigth <0){
 8003afe:	2900      	cmp	r1, #0
 8003b00:	db19      	blt.n	8003b36 <set_motor_speed+0x72>
		speed1 = 0;
	    speed2 = (-speedrigth);
	}
	if (speedleft<0){
 8003b02:	2a00      	cmp	r2, #0
 8003b04:	db1e      	blt.n	8003b44 <set_motor_speed+0x80>
	    speed3 = 0;
	    speed4 = (-speedleft);
	}
	TIM3->CCR1 = speed2;
 8003b06:	4b14      	ldr	r3, [pc, #80]	; (8003b58 <set_motor_speed+0x94>)
 8003b08:	2200      	movs	r2, #0
 8003b0a:	5e9a      	ldrsh	r2, [r3, r2]
 8003b0c:	4b15      	ldr	r3, [pc, #84]	; (8003b64 <set_motor_speed+0xa0>)
 8003b0e:	635a      	str	r2, [r3, #52]	; 0x34
	TIM3->CCR2 = speed1;
 8003b10:	4a10      	ldr	r2, [pc, #64]	; (8003b54 <set_motor_speed+0x90>)
 8003b12:	2100      	movs	r1, #0
 8003b14:	5e52      	ldrsh	r2, [r2, r1]
 8003b16:	639a      	str	r2, [r3, #56]	; 0x38
	TIM3->CCR3 = speed4;
 8003b18:	4a11      	ldr	r2, [pc, #68]	; (8003b60 <set_motor_speed+0x9c>)
 8003b1a:	2100      	movs	r1, #0
 8003b1c:	5e52      	ldrsh	r2, [r2, r1]
 8003b1e:	63da      	str	r2, [r3, #60]	; 0x3c
	TIM3->CCR4 = speed3;
 8003b20:	4a0e      	ldr	r2, [pc, #56]	; (8003b5c <set_motor_speed+0x98>)
 8003b22:	2100      	movs	r1, #0
 8003b24:	5e52      	ldrsh	r2, [r2, r1]
 8003b26:	641a      	str	r2, [r3, #64]	; 0x40
	timer= HAL_GetTick()+10; //gives time for engines to start working
 8003b28:	f7fd fc82 	bl	8001430 <HAL_GetTick>
 8003b2c:	300a      	adds	r0, #10
 8003b2e:	4b0e      	ldr	r3, [pc, #56]	; (8003b68 <set_motor_speed+0xa4>)
 8003b30:	6018      	str	r0, [r3, #0]
	return 1; //set
}
 8003b32:	2001      	movs	r0, #1
 8003b34:	bd10      	pop	{r4, pc}
		speed1 = 0;
 8003b36:	2000      	movs	r0, #0
 8003b38:	4b06      	ldr	r3, [pc, #24]	; (8003b54 <set_motor_speed+0x90>)
 8003b3a:	8018      	strh	r0, [r3, #0]
	    speed2 = (-speedrigth);
 8003b3c:	4249      	negs	r1, r1
 8003b3e:	4b06      	ldr	r3, [pc, #24]	; (8003b58 <set_motor_speed+0x94>)
 8003b40:	8019      	strh	r1, [r3, #0]
 8003b42:	e7de      	b.n	8003b02 <set_motor_speed+0x3e>
	    speed3 = 0;
 8003b44:	2100      	movs	r1, #0
 8003b46:	4b05      	ldr	r3, [pc, #20]	; (8003b5c <set_motor_speed+0x98>)
 8003b48:	8019      	strh	r1, [r3, #0]
	    speed4 = (-speedleft);
 8003b4a:	4252      	negs	r2, r2
 8003b4c:	4b04      	ldr	r3, [pc, #16]	; (8003b60 <set_motor_speed+0x9c>)
 8003b4e:	801a      	strh	r2, [r3, #0]
 8003b50:	e7d9      	b.n	8003b06 <set_motor_speed+0x42>
 8003b52:	46c0      	nop			; (mov r8, r8)
 8003b54:	200002ac 	.word	0x200002ac
 8003b58:	20000244 	.word	0x20000244
 8003b5c:	2000027a 	.word	0x2000027a
 8003b60:	20000230 	.word	0x20000230
 8003b64:	40000400 	.word	0x40000400
 8003b68:	20000248 	.word	0x20000248

08003b6c <set_speed>:
void set_speed(TIM_HandleTypeDef *htim,int speedrigth,int speedleft){
 8003b6c:	b510      	push	{r4, lr}
	set_speed_rigth = speedrigth;
 8003b6e:	4b03      	ldr	r3, [pc, #12]	; (8003b7c <set_speed+0x10>)
 8003b70:	6019      	str	r1, [r3, #0]
	set_speed_left = speedleft;
 8003b72:	4b03      	ldr	r3, [pc, #12]	; (8003b80 <set_speed+0x14>)
 8003b74:	601a      	str	r2, [r3, #0]
	set_motor_speed(htim,set_speed_rigth,set_speed_left);
 8003b76:	f7ff ffa5 	bl	8003ac4 <set_motor_speed>
}
 8003b7a:	bd10      	pop	{r4, pc}
 8003b7c:	20000268 	.word	0x20000268
 8003b80:	20000288 	.word	0x20000288

08003b84 <saturation>:
		}
	}
}

int saturation(int variable){
	if (variable>1000){
 8003b84:	23fa      	movs	r3, #250	; 0xfa
 8003b86:	009b      	lsls	r3, r3, #2
 8003b88:	4298      	cmp	r0, r3
 8003b8a:	dd00      	ble.n	8003b8e <saturation+0xa>
		variable=1000;
 8003b8c:	0018      	movs	r0, r3
    }
	if (variable<0 || variable>90000){
 8003b8e:	4b02      	ldr	r3, [pc, #8]	; (8003b98 <saturation+0x14>)
 8003b90:	4298      	cmp	r0, r3
 8003b92:	d900      	bls.n	8003b96 <saturation+0x12>
		variable=0;
 8003b94:	2000      	movs	r0, #0
	}
	return variable;
}
 8003b96:	4770      	bx	lr
 8003b98:	00015f90 	.word	0x00015f90

08003b9c <PID_regularor>:
void PID_regularor(TIM_HandleTypeDef *htim){
 8003b9c:	b5f0      	push	{r4, r5, r6, r7, lr}
 8003b9e:	b083      	sub	sp, #12
 8003ba0:	9000      	str	r0, [sp, #0]
	if (timer<HAL_GetTick()){
 8003ba2:	f7fd fc45 	bl	8001430 <HAL_GetTick>
 8003ba6:	4b30      	ldr	r3, [pc, #192]	; (8003c68 <PID_regularor+0xcc>)
 8003ba8:	681b      	ldr	r3, [r3, #0]
 8003baa:	4298      	cmp	r0, r3
 8003bac:	d801      	bhi.n	8003bb2 <PID_regularor+0x16>
}
 8003bae:	b003      	add	sp, #12
 8003bb0:	bdf0      	pop	{r4, r5, r6, r7, pc}
		error = (distance1-distance2);
 8003bb2:	4b2e      	ldr	r3, [pc, #184]	; (8003c6c <PID_regularor+0xd0>)
 8003bb4:	6818      	ldr	r0, [r3, #0]
 8003bb6:	4b2e      	ldr	r3, [pc, #184]	; (8003c70 <PID_regularor+0xd4>)
 8003bb8:	681b      	ldr	r3, [r3, #0]
 8003bba:	1ac0      	subs	r0, r0, r3
 8003bbc:	f7fd fb92 	bl	80012e4 <__aeabi_i2f>
 8003bc0:	1c04      	adds	r4, r0, #0
 8003bc2:	4b2c      	ldr	r3, [pc, #176]	; (8003c74 <PID_regularor+0xd8>)
 8003bc4:	6018      	str	r0, [r3, #0]
		Integral = Integral + error;
 8003bc6:	4e2c      	ldr	r6, [pc, #176]	; (8003c78 <PID_regularor+0xdc>)
 8003bc8:	6831      	ldr	r1, [r6, #0]
 8003bca:	f7fc fd2d 	bl	8000628 <__aeabi_fadd>
 8003bce:	1c07      	adds	r7, r0, #0
 8003bd0:	6030      	str	r0, [r6, #0]
		Derivate = error-LastError;
 8003bd2:	4d2a      	ldr	r5, [pc, #168]	; (8003c7c <PID_regularor+0xe0>)
 8003bd4:	6829      	ldr	r1, [r5, #0]
 8003bd6:	1c20      	adds	r0, r4, #0
 8003bd8:	f7fd f9c8 	bl	8000f6c <__aeabi_fsub>
 8003bdc:	1c06      	adds	r6, r0, #0
 8003bde:	4b28      	ldr	r3, [pc, #160]	; (8003c80 <PID_regularor+0xe4>)
 8003be0:	6018      	str	r0, [r3, #0]
		Turn = (Kp * error+Ki*Integral + Kd*Derivate)/100;
 8003be2:	4b28      	ldr	r3, [pc, #160]	; (8003c84 <PID_regularor+0xe8>)
 8003be4:	6818      	ldr	r0, [r3, #0]
 8003be6:	f7fd fb7d 	bl	80012e4 <__aeabi_i2f>
 8003bea:	1c21      	adds	r1, r4, #0
 8003bec:	f7fd f89e 	bl	8000d2c <__aeabi_fmul>
 8003bf0:	9001      	str	r0, [sp, #4]
 8003bf2:	4b25      	ldr	r3, [pc, #148]	; (8003c88 <PID_regularor+0xec>)
 8003bf4:	6819      	ldr	r1, [r3, #0]
 8003bf6:	1c38      	adds	r0, r7, #0
 8003bf8:	f7fd f898 	bl	8000d2c <__aeabi_fmul>
 8003bfc:	1c01      	adds	r1, r0, #0
 8003bfe:	9801      	ldr	r0, [sp, #4]
 8003c00:	f7fc fd12 	bl	8000628 <__aeabi_fadd>
 8003c04:	1c07      	adds	r7, r0, #0
 8003c06:	4b21      	ldr	r3, [pc, #132]	; (8003c8c <PID_regularor+0xf0>)
 8003c08:	6818      	ldr	r0, [r3, #0]
 8003c0a:	f7fd fb6b 	bl	80012e4 <__aeabi_i2f>
 8003c0e:	1c31      	adds	r1, r6, #0
 8003c10:	f7fd f88c 	bl	8000d2c <__aeabi_fmul>
 8003c14:	1c01      	adds	r1, r0, #0
 8003c16:	1c38      	adds	r0, r7, #0
 8003c18:	f7fc fd06 	bl	8000628 <__aeabi_fadd>
 8003c1c:	491c      	ldr	r1, [pc, #112]	; (8003c90 <PID_regularor+0xf4>)
 8003c1e:	f7fc fe95 	bl	800094c <__aeabi_fdiv>
 8003c22:	1c07      	adds	r7, r0, #0
 8003c24:	4b1b      	ldr	r3, [pc, #108]	; (8003c94 <PID_regularor+0xf8>)
 8003c26:	6018      	str	r0, [r3, #0]
		pow1 = saturation(set_speed_rigth);
 8003c28:	4b1b      	ldr	r3, [pc, #108]	; (8003c98 <PID_regularor+0xfc>)
 8003c2a:	6818      	ldr	r0, [r3, #0]
 8003c2c:	f7ff ffaa 	bl	8003b84 <saturation>
 8003c30:	0006      	movs	r6, r0
 8003c32:	4b1a      	ldr	r3, [pc, #104]	; (8003c9c <PID_regularor+0x100>)
 8003c34:	6018      	str	r0, [r3, #0]
		pow2 = saturation(set_speed_left-Turn);
 8003c36:	4b1a      	ldr	r3, [pc, #104]	; (8003ca0 <PID_regularor+0x104>)
 8003c38:	6818      	ldr	r0, [r3, #0]
 8003c3a:	f7fd fb53 	bl	80012e4 <__aeabi_i2f>
 8003c3e:	1c39      	adds	r1, r7, #0
 8003c40:	f7fd f994 	bl	8000f6c <__aeabi_fsub>
 8003c44:	f7fd fb2e 	bl	80012a4 <__aeabi_f2iz>
 8003c48:	f7ff ff9c 	bl	8003b84 <saturation>
 8003c4c:	0002      	movs	r2, r0
 8003c4e:	4b15      	ldr	r3, [pc, #84]	; (8003ca4 <PID_regularor+0x108>)
 8003c50:	6018      	str	r0, [r3, #0]
		LastError = error;
 8003c52:	602c      	str	r4, [r5, #0]
		set_motor_speed(htim,pow1,pow2);
 8003c54:	0031      	movs	r1, r6
 8003c56:	9800      	ldr	r0, [sp, #0]
 8003c58:	f7ff ff34 	bl	8003ac4 <set_motor_speed>
		timer= HAL_GetTick()+10; //frequency of PID regulator cca 10ms;
 8003c5c:	f7fd fbe8 	bl	8001430 <HAL_GetTick>
 8003c60:	300a      	adds	r0, #10
 8003c62:	4b01      	ldr	r3, [pc, #4]	; (8003c68 <PID_regularor+0xcc>)
 8003c64:	6018      	str	r0, [r3, #0]
}
 8003c66:	e7a2      	b.n	8003bae <PID_regularor+0x12>
 8003c68:	20000248 	.word	0x20000248
 8003c6c:	20000038 	.word	0x20000038
 8003c70:	2000003c 	.word	0x2000003c
 8003c74:	20000298 	.word	0x20000298
 8003c78:	200002a0 	.word	0x200002a0
 8003c7c:	2000025c 	.word	0x2000025c
 8003c80:	20000228 	.word	0x20000228
 8003c84:	200002a4 	.word	0x200002a4
 8003c88:	2000024c 	.word	0x2000024c
 8003c8c:	20000290 	.word	0x20000290
 8003c90:	42c80000 	.word	0x42c80000
 8003c94:	20000280 	.word	0x20000280
 8003c98:	20000268 	.word	0x20000268
 8003c9c:	20000260 	.word	0x20000260
 8003ca0:	20000288 	.word	0x20000288
 8003ca4:	200002c0 	.word	0x200002c0

08003ca8 <init_PID>:

void init_PID(void){
	chan1 = 0; //cas za jaky se posunulo kolo o hel...pjde zpesnit kdy pidme 4 kanly ale zatm snad sta tak
 8003ca8:	2300      	movs	r3, #0
 8003caa:	4a0c      	ldr	r2, [pc, #48]	; (8003cdc <init_PID+0x34>)
 8003cac:	8013      	strh	r3, [r2, #0]
	chan2 = 0; //cas za jaky se posunulo kolo o hel...pjde zpesnit kdy pidme 4 kanly ale zatm snad sta tak
 8003cae:	4a0c      	ldr	r2, [pc, #48]	; (8003ce0 <init_PID+0x38>)
 8003cb0:	8013      	strh	r3, [r2, #0]
	Kp = 400;
 8003cb2:	21c8      	movs	r1, #200	; 0xc8
 8003cb4:	0049      	lsls	r1, r1, #1
 8003cb6:	4a0b      	ldr	r2, [pc, #44]	; (8003ce4 <init_PID+0x3c>)
 8003cb8:	6011      	str	r1, [r2, #0]
	Ki = 0.02;
 8003cba:	490b      	ldr	r1, [pc, #44]	; (8003ce8 <init_PID+0x40>)
 8003cbc:	4a0b      	ldr	r2, [pc, #44]	; (8003cec <init_PID+0x44>)
 8003cbe:	6011      	str	r1, [r2, #0]
	Kd = 10;
 8003cc0:	210a      	movs	r1, #10
 8003cc2:	4a0b      	ldr	r2, [pc, #44]	; (8003cf0 <init_PID+0x48>)
 8003cc4:	6011      	str	r1, [r2, #0]
	Integral = 0;
 8003cc6:	2200      	movs	r2, #0
 8003cc8:	490a      	ldr	r1, [pc, #40]	; (8003cf4 <init_PID+0x4c>)
 8003cca:	600a      	str	r2, [r1, #0]
	LastError = 0;
 8003ccc:	490a      	ldr	r1, [pc, #40]	; (8003cf8 <init_PID+0x50>)
 8003cce:	600a      	str	r2, [r1, #0]
	Derivate = 0;
 8003cd0:	490a      	ldr	r1, [pc, #40]	; (8003cfc <init_PID+0x54>)
 8003cd2:	600a      	str	r2, [r1, #0]
    timer = 0;
 8003cd4:	4a0a      	ldr	r2, [pc, #40]	; (8003d00 <init_PID+0x58>)
 8003cd6:	6013      	str	r3, [r2, #0]
}
 8003cd8:	4770      	bx	lr
 8003cda:	46c0      	nop			; (mov r8, r8)
 8003cdc:	20000278 	.word	0x20000278
 8003ce0:	200002b4 	.word	0x200002b4
 8003ce4:	200002a4 	.word	0x200002a4
 8003ce8:	3ca3d70a 	.word	0x3ca3d70a
 8003cec:	2000024c 	.word	0x2000024c
 8003cf0:	20000290 	.word	0x20000290
 8003cf4:	200002a0 	.word	0x200002a0
 8003cf8:	2000025c 	.word	0x2000025c
 8003cfc:	20000228 	.word	0x20000228
 8003d00:	20000248 	.word	0x20000248

08003d04 <init_PID_ultrazvuk>:

void init_PID_ultrazvuk(void){
	chan1 = 0; //cas za jaky se posunulo kolo o hel...pjde zpesnit kdy pidme 4 kanly ale zatm snad sta tak
 8003d04:	2300      	movs	r3, #0
 8003d06:	4a0d      	ldr	r2, [pc, #52]	; (8003d3c <init_PID_ultrazvuk+0x38>)
 8003d08:	8013      	strh	r3, [r2, #0]
	chan2 = 0; //cas za jaky se posunulo kolo o hel...pjde zpesnit kdy pidme 4 kanly ale zatm snad sta tak
 8003d0a:	4a0d      	ldr	r2, [pc, #52]	; (8003d40 <init_PID_ultrazvuk+0x3c>)
 8003d0c:	8013      	strh	r3, [r2, #0]
	Kp2 = 400;
 8003d0e:	490d      	ldr	r1, [pc, #52]	; (8003d44 <init_PID_ultrazvuk+0x40>)
 8003d10:	4a0d      	ldr	r2, [pc, #52]	; (8003d48 <init_PID_ultrazvuk+0x44>)
 8003d12:	6011      	str	r1, [r2, #0]
	Ki2 = 0.02;
 8003d14:	490d      	ldr	r1, [pc, #52]	; (8003d4c <init_PID_ultrazvuk+0x48>)
 8003d16:	4a0e      	ldr	r2, [pc, #56]	; (8003d50 <init_PID_ultrazvuk+0x4c>)
 8003d18:	6011      	str	r1, [r2, #0]
	Kd2 = 10 ;
 8003d1a:	490e      	ldr	r1, [pc, #56]	; (8003d54 <init_PID_ultrazvuk+0x50>)
 8003d1c:	4a0e      	ldr	r2, [pc, #56]	; (8003d58 <init_PID_ultrazvuk+0x54>)
 8003d1e:	6011      	str	r1, [r2, #0]
	Integral2 = 0;
 8003d20:	2200      	movs	r2, #0
 8003d22:	490e      	ldr	r1, [pc, #56]	; (8003d5c <init_PID_ultrazvuk+0x58>)
 8003d24:	600a      	str	r2, [r1, #0]
	LastError2 = 0;
 8003d26:	490e      	ldr	r1, [pc, #56]	; (8003d60 <init_PID_ultrazvuk+0x5c>)
 8003d28:	600a      	str	r2, [r1, #0]
	Derivate2 = 0;
 8003d2a:	490e      	ldr	r1, [pc, #56]	; (8003d64 <init_PID_ultrazvuk+0x60>)
 8003d2c:	600a      	str	r2, [r1, #0]
    timer2 = 0;
 8003d2e:	4a0e      	ldr	r2, [pc, #56]	; (8003d68 <init_PID_ultrazvuk+0x64>)
 8003d30:	6013      	str	r3, [r2, #0]
    etalon=500;
 8003d32:	22fa      	movs	r2, #250	; 0xfa
 8003d34:	0052      	lsls	r2, r2, #1
 8003d36:	4b0d      	ldr	r3, [pc, #52]	; (8003d6c <init_PID_ultrazvuk+0x68>)
 8003d38:	601a      	str	r2, [r3, #0]
}
 8003d3a:	4770      	bx	lr
 8003d3c:	20000278 	.word	0x20000278
 8003d40:	200002b4 	.word	0x200002b4
 8003d44:	43c80000 	.word	0x43c80000
 8003d48:	200002a8 	.word	0x200002a8
 8003d4c:	3ca3d70a 	.word	0x3ca3d70a
 8003d50:	2000029c 	.word	0x2000029c
 8003d54:	41200000 	.word	0x41200000
 8003d58:	20000240 	.word	0x20000240
 8003d5c:	20000254 	.word	0x20000254
 8003d60:	20000234 	.word	0x20000234
 8003d64:	2000022c 	.word	0x2000022c
 8003d68:	20000250 	.word	0x20000250
 8003d6c:	2000027c 	.word	0x2000027c

08003d70 <start_encoder>:

void start_encoder(void){
    distance1 = 0;
 8003d70:	2300      	movs	r3, #0
 8003d72:	4a02      	ldr	r2, [pc, #8]	; (8003d7c <start_encoder+0xc>)
 8003d74:	6013      	str	r3, [r2, #0]
    distance2 = 0;
 8003d76:	4a02      	ldr	r2, [pc, #8]	; (8003d80 <start_encoder+0x10>)
 8003d78:	6013      	str	r3, [r2, #0]
}
 8003d7a:	4770      	bx	lr
 8003d7c:	20000038 	.word	0x20000038
 8003d80:	2000003c 	.word	0x2000003c

08003d84 <reset_distance>:
void reset_distance(void){
	distance1 = 0;
 8003d84:	2300      	movs	r3, #0
 8003d86:	4a02      	ldr	r2, [pc, #8]	; (8003d90 <reset_distance+0xc>)
 8003d88:	6013      	str	r3, [r2, #0]
	distance2 = 0;
 8003d8a:	4a02      	ldr	r2, [pc, #8]	; (8003d94 <reset_distance+0x10>)
 8003d8c:	6013      	str	r3, [r2, #0]
}
 8003d8e:	4770      	bx	lr
 8003d90:	20000038 	.word	0x20000038
 8003d94:	2000003c 	.word	0x2000003c

08003d98 <distance_traveled>:
int distance_traveled(int wheel){
	if (wheel ==1){
 8003d98:	2801      	cmp	r0, #1
 8003d9a:	d004      	beq.n	8003da6 <distance_traveled+0xe>
		return distance1;
	}
	if (wheel ==2){
 8003d9c:	2802      	cmp	r0, #2
 8003d9e:	d005      	beq.n	8003dac <distance_traveled+0x14>
	   return distance2;
	}
	return distance1;
 8003da0:	4b04      	ldr	r3, [pc, #16]	; (8003db4 <distance_traveled+0x1c>)
 8003da2:	6818      	ldr	r0, [r3, #0]
}
 8003da4:	4770      	bx	lr
		return distance1;
 8003da6:	4b03      	ldr	r3, [pc, #12]	; (8003db4 <distance_traveled+0x1c>)
 8003da8:	6818      	ldr	r0, [r3, #0]
 8003daa:	e7fb      	b.n	8003da4 <distance_traveled+0xc>
	   return distance2;
 8003dac:	4b02      	ldr	r3, [pc, #8]	; (8003db8 <distance_traveled+0x20>)
 8003dae:	6818      	ldr	r0, [r3, #0]
 8003db0:	e7f8      	b.n	8003da4 <distance_traveled+0xc>
 8003db2:	46c0      	nop			; (mov r8, r8)
 8003db4:	20000038 	.word	0x20000038
 8003db8:	2000003c 	.word	0x2000003c

08003dbc <Travel_rovne>:
int Travel_rovne(TIM_HandleTypeDef *htim,float vzdalenost,int power){
 8003dbc:	b570      	push	{r4, r5, r6, lr}
 8003dbe:	0004      	movs	r4, r0
 8003dc0:	1c0e      	adds	r6, r1, #0
 8003dc2:	0015      	movs	r5, r2
	  rigth = power; //speed of rigth engine
 8003dc4:	4b37      	ldr	r3, [pc, #220]	; (8003ea4 <Travel_rovne+0xe8>)
 8003dc6:	601a      	str	r2, [r3, #0]
	  left = power; //speed of left engine
 8003dc8:	4b37      	ldr	r3, [pc, #220]	; (8003ea8 <Travel_rovne+0xec>)
 8003dca:	601a      	str	r2, [r3, #0]
	  set_speed(htim,rigth,left);
 8003dcc:	0011      	movs	r1, r2
 8003dce:	f7ff fecd 	bl	8003b6c <set_speed>
	  maxdistance =1587*vzdalenost;
 8003dd2:	4936      	ldr	r1, [pc, #216]	; (8003eac <Travel_rovne+0xf0>)
 8003dd4:	1c30      	adds	r0, r6, #0
 8003dd6:	f7fc ffa9 	bl	8000d2c <__aeabi_fmul>
 8003dda:	4b35      	ldr	r3, [pc, #212]	; (8003eb0 <Travel_rovne+0xf4>)
 8003ddc:	6018      	str	r0, [r3, #0]
 8003dde:	e018      	b.n	8003e12 <Travel_rovne+0x56>
		  if (stop==1)
 8003de0:	4b34      	ldr	r3, [pc, #208]	; (8003eb4 <Travel_rovne+0xf8>)
 8003de2:	781b      	ldrb	r3, [r3, #0]
 8003de4:	2b01      	cmp	r3, #1
 8003de6:	d01c      	beq.n	8003e22 <Travel_rovne+0x66>
		  	 if (stop==2)
 8003de8:	4b32      	ldr	r3, [pc, #200]	; (8003eb4 <Travel_rovne+0xf8>)
 8003dea:	781b      	ldrb	r3, [r3, #0]
 8003dec:	2b02      	cmp	r3, #2
 8003dee:	d026      	beq.n	8003e3e <Travel_rovne+0x82>
		 if (power>0){
 8003df0:	2d00      	cmp	r5, #0
 8003df2:	dd03      	ble.n	8003dfc <Travel_rovne+0x40>
		 if (total_stop==1)
 8003df4:	4b30      	ldr	r3, [pc, #192]	; (8003eb8 <Travel_rovne+0xfc>)
 8003df6:	781b      	ldrb	r3, [r3, #0]
 8003df8:	2b01      	cmp	r3, #1
 8003dfa:	d02d      	beq.n	8003e58 <Travel_rovne+0x9c>
		if (distance_traveled(1)>maxdistance)
 8003dfc:	2001      	movs	r0, #1
 8003dfe:	f7ff ffcb 	bl	8003d98 <distance_traveled>
 8003e02:	f7fd fa6f 	bl	80012e4 <__aeabi_i2f>
 8003e06:	4b2a      	ldr	r3, [pc, #168]	; (8003eb0 <Travel_rovne+0xf4>)
 8003e08:	6819      	ldr	r1, [r3, #0]
 8003e0a:	f7fc fb19 	bl	8000440 <__aeabi_fcmpgt>
 8003e0e:	2800      	cmp	r0, #0
 8003e10:	d135      	bne.n	8003e7e <Travel_rovne+0xc2>
		 if (rigth>0){
 8003e12:	4b24      	ldr	r3, [pc, #144]	; (8003ea4 <Travel_rovne+0xe8>)
 8003e14:	681b      	ldr	r3, [r3, #0]
 8003e16:	2b00      	cmp	r3, #0
 8003e18:	dde2      	ble.n	8003de0 <Travel_rovne+0x24>
			 PID_regularor(htim); //call PID regulator with its own frequency 100Hz
 8003e1a:	0020      	movs	r0, r4
 8003e1c:	f7ff febe 	bl	8003b9c <PID_regularor>
 8003e20:	e7de      	b.n	8003de0 <Travel_rovne+0x24>
		  	 				 rigth = 0; //speed of rigth engine
 8003e22:	2300      	movs	r3, #0
 8003e24:	4a1f      	ldr	r2, [pc, #124]	; (8003ea4 <Travel_rovne+0xe8>)
 8003e26:	6013      	str	r3, [r2, #0]
		  	 				 left = 0; //speed of left engine
 8003e28:	4a1f      	ldr	r2, [pc, #124]	; (8003ea8 <Travel_rovne+0xec>)
 8003e2a:	6013      	str	r3, [r2, #0]
		  	 				 logic=1;
 8003e2c:	2201      	movs	r2, #1
 8003e2e:	4b23      	ldr	r3, [pc, #140]	; (8003ebc <Travel_rovne+0x100>)
 8003e30:	601a      	str	r2, [r3, #0]
		  	 				 set_speed(htim,rigth,left);
 8003e32:	2200      	movs	r2, #0
 8003e34:	2100      	movs	r1, #0
 8003e36:	0020      	movs	r0, r4
 8003e38:	f7ff fe98 	bl	8003b6c <set_speed>
 8003e3c:	e7d4      	b.n	8003de8 <Travel_rovne+0x2c>
		  	 				  rigth = power; //speed of rigth engine
 8003e3e:	4b19      	ldr	r3, [pc, #100]	; (8003ea4 <Travel_rovne+0xe8>)
 8003e40:	601d      	str	r5, [r3, #0]
		  	 				  left = power; //speed of left engine
 8003e42:	4b19      	ldr	r3, [pc, #100]	; (8003ea8 <Travel_rovne+0xec>)
 8003e44:	601d      	str	r5, [r3, #0]
		  	 				  logic=0;
 8003e46:	2200      	movs	r2, #0
 8003e48:	4b1c      	ldr	r3, [pc, #112]	; (8003ebc <Travel_rovne+0x100>)
 8003e4a:	601a      	str	r2, [r3, #0]
		  	 				set_speed(htim,rigth,left);
 8003e4c:	002a      	movs	r2, r5
 8003e4e:	0029      	movs	r1, r5
 8003e50:	0020      	movs	r0, r4
 8003e52:	f7ff fe8b 	bl	8003b6c <set_speed>
 8003e56:	e7cb      	b.n	8003df0 <Travel_rovne+0x34>
			rigth = 0; //speed of rigth engine
 8003e58:	2300      	movs	r3, #0
 8003e5a:	4a12      	ldr	r2, [pc, #72]	; (8003ea4 <Travel_rovne+0xe8>)
 8003e5c:	6013      	str	r3, [r2, #0]
			left = 0; //speed of left engine
 8003e5e:	4a12      	ldr	r2, [pc, #72]	; (8003ea8 <Travel_rovne+0xec>)
 8003e60:	6013      	str	r3, [r2, #0]
			 				  set_speed(htim,rigth,left);
 8003e62:	2200      	movs	r2, #0
 8003e64:	2100      	movs	r1, #0
 8003e66:	0020      	movs	r0, r4
 8003e68:	f7ff fe80 	bl	8003b6c <set_speed>
			 				  distance=distance_traveled(1);
 8003e6c:	2001      	movs	r0, #1
 8003e6e:	f7ff ff93 	bl	8003d98 <distance_traveled>
 8003e72:	4c13      	ldr	r4, [pc, #76]	; (8003ec0 <Travel_rovne+0x104>)
 8003e74:	6020      	str	r0, [r4, #0]
			 				  			reset_distance();
 8003e76:	f7ff ff85 	bl	8003d84 <reset_distance>
			 				  			return distance;
 8003e7a:	6820      	ldr	r0, [r4, #0]
 8003e7c:	e011      	b.n	8003ea2 <Travel_rovne+0xe6>
				 rigth = 0; //speed of rigth engine
 8003e7e:	2300      	movs	r3, #0
 8003e80:	4a08      	ldr	r2, [pc, #32]	; (8003ea4 <Travel_rovne+0xe8>)
 8003e82:	6013      	str	r3, [r2, #0]
				 left = 0; //speed of left engine
 8003e84:	4a08      	ldr	r2, [pc, #32]	; (8003ea8 <Travel_rovne+0xec>)
 8003e86:	6013      	str	r3, [r2, #0]
				  set_speed(htim,rigth,left);
 8003e88:	2200      	movs	r2, #0
 8003e8a:	2100      	movs	r1, #0
 8003e8c:	0020      	movs	r0, r4
 8003e8e:	f7ff fe6d 	bl	8003b6c <set_speed>
				  distance=distance_traveled(1);
 8003e92:	2001      	movs	r0, #1
 8003e94:	f7ff ff80 	bl	8003d98 <distance_traveled>
 8003e98:	4c09      	ldr	r4, [pc, #36]	; (8003ec0 <Travel_rovne+0x104>)
 8003e9a:	6020      	str	r0, [r4, #0]
				  			 reset_distance();
 8003e9c:	f7ff ff72 	bl	8003d84 <reset_distance>
				  			return distance;
 8003ea0:	6820      	ldr	r0, [r4, #0]
}
 8003ea2:	bd70      	pop	{r4, r5, r6, pc}
 8003ea4:	20000284 	.word	0x20000284
 8003ea8:	2000026c 	.word	0x2000026c
 8003eac:	44c66000 	.word	0x44c66000
 8003eb0:	20000224 	.word	0x20000224
 8003eb4:	200002bc 	.word	0x200002bc
 8003eb8:	200002af 	.word	0x200002af
 8003ebc:	200002b0 	.word	0x200002b0
 8003ec0:	20000264 	.word	0x20000264

08003ec4 <Travel_turn>:
int Travel_turn(TIM_HandleTypeDef *htim2,int uhel,int power){
 8003ec4:	b570      	push	{r4, r5, r6, lr}
 8003ec6:	0005      	movs	r5, r0
 8003ec8:	000c      	movs	r4, r1
 8003eca:	0016      	movs	r6, r2
	if (uhel>=0){
 8003ecc:	2900      	cmp	r1, #0
 8003ece:	db18      	blt.n	8003f02 <Travel_turn+0x3e>
		rigth = power; //speed of rigth engine
 8003ed0:	4b49      	ldr	r3, [pc, #292]	; (8003ff8 <Travel_turn+0x134>)
 8003ed2:	601a      	str	r2, [r3, #0]
		left =-power; //speed of left engine
 8003ed4:	4253      	negs	r3, r2
 8003ed6:	4a49      	ldr	r2, [pc, #292]	; (8003ffc <Travel_turn+0x138>)
 8003ed8:	6013      	str	r3, [r2, #0]
	set_speed(htim2,rigth,left);
 8003eda:	4b48      	ldr	r3, [pc, #288]	; (8003ffc <Travel_turn+0x138>)
 8003edc:	681a      	ldr	r2, [r3, #0]
 8003ede:	4b46      	ldr	r3, [pc, #280]	; (8003ff8 <Travel_turn+0x134>)
 8003ee0:	6819      	ldr	r1, [r3, #0]
 8003ee2:	0028      	movs	r0, r5
 8003ee4:	f7ff fe42 	bl	8003b6c <set_speed>
	if (uhel>=0){
 8003ee8:	2c00      	cmp	r4, #0
 8003eea:	db10      	blt.n	8003f0e <Travel_turn+0x4a>
		maxdistance = 310*uhel/90;
 8003eec:	209b      	movs	r0, #155	; 0x9b
 8003eee:	0040      	lsls	r0, r0, #1
 8003ef0:	4360      	muls	r0, r4
 8003ef2:	215a      	movs	r1, #90	; 0x5a
 8003ef4:	f7fc f992 	bl	800021c <__divsi3>
 8003ef8:	f7fd f9f4 	bl	80012e4 <__aeabi_i2f>
 8003efc:	4b40      	ldr	r3, [pc, #256]	; (8004000 <Travel_turn+0x13c>)
 8003efe:	6018      	str	r0, [r3, #0]
 8003f00:	e04b      	b.n	8003f9a <Travel_turn+0xd6>
		rigth = -power; //speed of rigth engine
 8003f02:	4253      	negs	r3, r2
 8003f04:	4a3c      	ldr	r2, [pc, #240]	; (8003ff8 <Travel_turn+0x134>)
 8003f06:	6013      	str	r3, [r2, #0]
		left = power; //speed of left engine
 8003f08:	4b3c      	ldr	r3, [pc, #240]	; (8003ffc <Travel_turn+0x138>)
 8003f0a:	601e      	str	r6, [r3, #0]
 8003f0c:	e7e5      	b.n	8003eda <Travel_turn+0x16>
		maxdistance = 310*(-uhel)/90;
 8003f0e:	483d      	ldr	r0, [pc, #244]	; (8004004 <Travel_turn+0x140>)
 8003f10:	4360      	muls	r0, r4
 8003f12:	215a      	movs	r1, #90	; 0x5a
 8003f14:	f7fc f982 	bl	800021c <__divsi3>
 8003f18:	f7fd f9e4 	bl	80012e4 <__aeabi_i2f>
 8003f1c:	4b38      	ldr	r3, [pc, #224]	; (8004000 <Travel_turn+0x13c>)
 8003f1e:	6018      	str	r0, [r3, #0]
 8003f20:	e03b      	b.n	8003f9a <Travel_turn+0xd6>
		  	 rigth = 0; //speed of rigth engine
 8003f22:	2300      	movs	r3, #0
 8003f24:	4a34      	ldr	r2, [pc, #208]	; (8003ff8 <Travel_turn+0x134>)
 8003f26:	6013      	str	r3, [r2, #0]
		  	 left = 0; //speed of left engine
 8003f28:	4a34      	ldr	r2, [pc, #208]	; (8003ffc <Travel_turn+0x138>)
 8003f2a:	6013      	str	r3, [r2, #0]
		  	 logic=1;
 8003f2c:	2201      	movs	r2, #1
 8003f2e:	4b36      	ldr	r3, [pc, #216]	; (8004008 <Travel_turn+0x144>)
 8003f30:	601a      	str	r2, [r3, #0]
		  	 set_speed(htim2,rigth,left);
 8003f32:	2200      	movs	r2, #0
 8003f34:	2100      	movs	r1, #0
 8003f36:	0028      	movs	r0, r5
 8003f38:	f7ff fe18 	bl	8003b6c <set_speed>
 8003f3c:	e031      	b.n	8003fa2 <Travel_turn+0xde>
		  	 rigth = power; //speed of rigth engine
 8003f3e:	4b2e      	ldr	r3, [pc, #184]	; (8003ff8 <Travel_turn+0x134>)
 8003f40:	601e      	str	r6, [r3, #0]
		  	 left = -power; //speed of left engine
 8003f42:	4272      	negs	r2, r6
 8003f44:	4b2d      	ldr	r3, [pc, #180]	; (8003ffc <Travel_turn+0x138>)
 8003f46:	601a      	str	r2, [r3, #0]
		  	 logic=0;
 8003f48:	2300      	movs	r3, #0
 8003f4a:	492f      	ldr	r1, [pc, #188]	; (8004008 <Travel_turn+0x144>)
 8003f4c:	600b      	str	r3, [r1, #0]
		  	 stop = 0;
 8003f4e:	492f      	ldr	r1, [pc, #188]	; (800400c <Travel_turn+0x148>)
 8003f50:	700b      	strb	r3, [r1, #0]
		  	 set_speed(htim2,rigth,left);
 8003f52:	0031      	movs	r1, r6
 8003f54:	0028      	movs	r0, r5
 8003f56:	f7ff fe09 	bl	8003b6c <set_speed>
 8003f5a:	e026      	b.n	8003faa <Travel_turn+0xe6>
				rigth = 0; //speed of rigth engine
 8003f5c:	2300      	movs	r3, #0
 8003f5e:	4a26      	ldr	r2, [pc, #152]	; (8003ff8 <Travel_turn+0x134>)
 8003f60:	6013      	str	r3, [r2, #0]
				left = 0; //speed of left engine
 8003f62:	4a26      	ldr	r2, [pc, #152]	; (8003ffc <Travel_turn+0x138>)
 8003f64:	6013      	str	r3, [r2, #0]
				set_speed(htim2,rigth,left);
 8003f66:	2200      	movs	r2, #0
 8003f68:	2100      	movs	r1, #0
 8003f6a:	0028      	movs	r0, r5
 8003f6c:	f7ff fdfe 	bl	8003b6c <set_speed>
				distance=distance_traveled(1);
 8003f70:	2001      	movs	r0, #1
 8003f72:	f7ff ff11 	bl	8003d98 <distance_traveled>
 8003f76:	4c26      	ldr	r4, [pc, #152]	; (8004010 <Travel_turn+0x14c>)
 8003f78:	6020      	str	r0, [r4, #0]
				reset_distance();
 8003f7a:	f7ff ff03 	bl	8003d84 <reset_distance>
				return distance;
 8003f7e:	6820      	ldr	r0, [r4, #0]
}
 8003f80:	bd70      	pop	{r4, r5, r6, pc}
			 currentdistance = currentdistance2;
 8003f82:	4b24      	ldr	r3, [pc, #144]	; (8004014 <Travel_turn+0x150>)
 8003f84:	6018      	str	r0, [r3, #0]
		 if (currentdistance>maxdistance)
 8003f86:	4b23      	ldr	r3, [pc, #140]	; (8004014 <Travel_turn+0x150>)
 8003f88:	6818      	ldr	r0, [r3, #0]
 8003f8a:	f7fd f9ab 	bl	80012e4 <__aeabi_i2f>
 8003f8e:	4b1c      	ldr	r3, [pc, #112]	; (8004000 <Travel_turn+0x13c>)
 8003f90:	6819      	ldr	r1, [r3, #0]
 8003f92:	f7fc fa55 	bl	8000440 <__aeabi_fcmpgt>
 8003f96:	2800      	cmp	r0, #0
 8003f98:	d11b      	bne.n	8003fd2 <Travel_turn+0x10e>
		if (stop==1)
 8003f9a:	4b1c      	ldr	r3, [pc, #112]	; (800400c <Travel_turn+0x148>)
 8003f9c:	781b      	ldrb	r3, [r3, #0]
 8003f9e:	2b01      	cmp	r3, #1
 8003fa0:	d0bf      	beq.n	8003f22 <Travel_turn+0x5e>
		if (stop==2)
 8003fa2:	4b1a      	ldr	r3, [pc, #104]	; (800400c <Travel_turn+0x148>)
 8003fa4:	781b      	ldrb	r3, [r3, #0]
 8003fa6:	2b02      	cmp	r3, #2
 8003fa8:	d0c9      	beq.n	8003f3e <Travel_turn+0x7a>
		if (total_stop==1)
 8003faa:	4b1b      	ldr	r3, [pc, #108]	; (8004018 <Travel_turn+0x154>)
 8003fac:	781b      	ldrb	r3, [r3, #0]
 8003fae:	2b01      	cmp	r3, #1
 8003fb0:	d0d4      	beq.n	8003f5c <Travel_turn+0x98>
		 currentdistance1 = distance_traveled(1);
 8003fb2:	2001      	movs	r0, #1
 8003fb4:	f7ff fef0 	bl	8003d98 <distance_traveled>
 8003fb8:	0004      	movs	r4, r0
 8003fba:	4b18      	ldr	r3, [pc, #96]	; (800401c <Travel_turn+0x158>)
 8003fbc:	6018      	str	r0, [r3, #0]
		 currentdistance2 = distance_traveled(2);
 8003fbe:	2002      	movs	r0, #2
 8003fc0:	f7ff feea 	bl	8003d98 <distance_traveled>
 8003fc4:	4b16      	ldr	r3, [pc, #88]	; (8004020 <Travel_turn+0x15c>)
 8003fc6:	6018      	str	r0, [r3, #0]
		 if (currentdistance1>currentdistance2){
 8003fc8:	4284      	cmp	r4, r0
 8003fca:	ddda      	ble.n	8003f82 <Travel_turn+0xbe>
			 currentdistance = currentdistance1;
 8003fcc:	4b11      	ldr	r3, [pc, #68]	; (8004014 <Travel_turn+0x150>)
 8003fce:	601c      	str	r4, [r3, #0]
 8003fd0:	e7d9      	b.n	8003f86 <Travel_turn+0xc2>
		    rigth = 0; //speed of rigth engine
 8003fd2:	2300      	movs	r3, #0
 8003fd4:	4a08      	ldr	r2, [pc, #32]	; (8003ff8 <Travel_turn+0x134>)
 8003fd6:	6013      	str	r3, [r2, #0]
			left = 0; //speed of left engine
 8003fd8:	4a08      	ldr	r2, [pc, #32]	; (8003ffc <Travel_turn+0x138>)
 8003fda:	6013      	str	r3, [r2, #0]
			set_speed(htim2,rigth,left);
 8003fdc:	2200      	movs	r2, #0
 8003fde:	2100      	movs	r1, #0
 8003fe0:	0028      	movs	r0, r5
 8003fe2:	f7ff fdc3 	bl	8003b6c <set_speed>
			distance=distance_traveled((int)1);
 8003fe6:	2001      	movs	r0, #1
 8003fe8:	f7ff fed6 	bl	8003d98 <distance_traveled>
 8003fec:	4c08      	ldr	r4, [pc, #32]	; (8004010 <Travel_turn+0x14c>)
 8003fee:	6020      	str	r0, [r4, #0]
			reset_distance();
 8003ff0:	f7ff fec8 	bl	8003d84 <reset_distance>
			return distance;
 8003ff4:	6820      	ldr	r0, [r4, #0]
 8003ff6:	e7c3      	b.n	8003f80 <Travel_turn+0xbc>
 8003ff8:	20000284 	.word	0x20000284
 8003ffc:	2000026c 	.word	0x2000026c
 8004000:	20000224 	.word	0x20000224
 8004004:	fffffeca 	.word	0xfffffeca
 8004008:	200002b0 	.word	0x200002b0
 800400c:	200002bc 	.word	0x200002bc
 8004010:	20000264 	.word	0x20000264
 8004014:	200002b8 	.word	0x200002b8
 8004018:	200002af 	.word	0x200002af
 800401c:	2000028c 	.word	0x2000028c
 8004020:	200002c4 	.word	0x200002c4

08004024 <HAL_MspInit>:
{
  /* USER CODE BEGIN MspInit 0 */

  /* USER CODE END MspInit 0 */

  __HAL_RCC_SYSCFG_CLK_ENABLE();
 8004024:	4b05      	ldr	r3, [pc, #20]	; (800403c <HAL_MspInit+0x18>)
 8004026:	6b5a      	ldr	r2, [r3, #52]	; 0x34
 8004028:	2101      	movs	r1, #1
 800402a:	430a      	orrs	r2, r1
 800402c:	635a      	str	r2, [r3, #52]	; 0x34
  __HAL_RCC_PWR_CLK_ENABLE();
 800402e:	6b99      	ldr	r1, [r3, #56]	; 0x38
 8004030:	2280      	movs	r2, #128	; 0x80
 8004032:	0552      	lsls	r2, r2, #21
 8004034:	430a      	orrs	r2, r1
 8004036:	639a      	str	r2, [r3, #56]	; 0x38
  /* System interrupt init*/

  /* USER CODE BEGIN MspInit 1 */

  /* USER CODE END MspInit 1 */
}
 8004038:	4770      	bx	lr
 800403a:	46c0      	nop			; (mov r8, r8)
 800403c:	40021000 	.word	0x40021000

08004040 <HAL_TIM_Base_MspInit>:
* This function configures the hardware resources used in this example
* @param htim_base: TIM_Base handle pointer
* @retval None
*/
void HAL_TIM_Base_MspInit(TIM_HandleTypeDef* htim_base)
{
 8004040:	b510      	push	{r4, lr}

  if(htim_base->Instance==TIM3)
 8004042:	6803      	ldr	r3, [r0, #0]
 8004044:	4a19      	ldr	r2, [pc, #100]	; (80040ac <HAL_TIM_Base_MspInit+0x6c>)
 8004046:	4293      	cmp	r3, r2
 8004048:	d006      	beq.n	8004058 <HAL_TIM_Base_MspInit+0x18>
    HAL_NVIC_EnableIRQ(TIM3_IRQn);
  /* USER CODE BEGIN TIM3_MspInit 1 */

  /* USER CODE END TIM3_MspInit 1 */
  }
  else if(htim_base->Instance==TIM6)
 800404a:	4a19      	ldr	r2, [pc, #100]	; (80040b0 <HAL_TIM_Base_MspInit+0x70>)
 800404c:	4293      	cmp	r3, r2
 800404e:	d011      	beq.n	8004074 <HAL_TIM_Base_MspInit+0x34>
    HAL_NVIC_EnableIRQ(TIM6_DAC_IRQn);
  /* USER CODE BEGIN TIM6_MspInit 1 */

  /* USER CODE END TIM6_MspInit 1 */
  }
  else if(htim_base->Instance==TIM22)
 8004050:	4a18      	ldr	r2, [pc, #96]	; (80040b4 <HAL_TIM_Base_MspInit+0x74>)
 8004052:	4293      	cmp	r3, r2
 8004054:	d01c      	beq.n	8004090 <HAL_TIM_Base_MspInit+0x50>
  /* USER CODE BEGIN TIM22_MspInit 1 */

  /* USER CODE END TIM22_MspInit 1 */
  }

}
 8004056:	bd10      	pop	{r4, pc}
    __HAL_RCC_TIM3_CLK_ENABLE();
 8004058:	4a17      	ldr	r2, [pc, #92]	; (80040b8 <HAL_TIM_Base_MspInit+0x78>)
 800405a:	6b93      	ldr	r3, [r2, #56]	; 0x38
 800405c:	2102      	movs	r1, #2
 800405e:	430b      	orrs	r3, r1
 8004060:	6393      	str	r3, [r2, #56]	; 0x38
    HAL_NVIC_SetPriority(TIM3_IRQn, 0, 0);
 8004062:	2200      	movs	r2, #0
 8004064:	2100      	movs	r1, #0
 8004066:	2010      	movs	r0, #16
 8004068:	f7fd f9f6 	bl	8001458 <HAL_NVIC_SetPriority>
    HAL_NVIC_EnableIRQ(TIM3_IRQn);
 800406c:	2010      	movs	r0, #16
 800406e:	f7fd fa25 	bl	80014bc <HAL_NVIC_EnableIRQ>
 8004072:	e7f0      	b.n	8004056 <HAL_TIM_Base_MspInit+0x16>
    __HAL_RCC_TIM6_CLK_ENABLE();
 8004074:	4a10      	ldr	r2, [pc, #64]	; (80040b8 <HAL_TIM_Base_MspInit+0x78>)
 8004076:	6b93      	ldr	r3, [r2, #56]	; 0x38
 8004078:	2110      	movs	r1, #16
 800407a:	430b      	orrs	r3, r1
 800407c:	6393      	str	r3, [r2, #56]	; 0x38
    HAL_NVIC_SetPriority(TIM6_DAC_IRQn, 0, 0);
 800407e:	2200      	movs	r2, #0
 8004080:	2100      	movs	r1, #0
 8004082:	2011      	movs	r0, #17
 8004084:	f7fd f9e8 	bl	8001458 <HAL_NVIC_SetPriority>
    HAL_NVIC_EnableIRQ(TIM6_DAC_IRQn);
 8004088:	2011      	movs	r0, #17
 800408a:	f7fd fa17 	bl	80014bc <HAL_NVIC_EnableIRQ>
 800408e:	e7e2      	b.n	8004056 <HAL_TIM_Base_MspInit+0x16>
    __HAL_RCC_TIM22_CLK_ENABLE();
 8004090:	4a09      	ldr	r2, [pc, #36]	; (80040b8 <HAL_TIM_Base_MspInit+0x78>)
 8004092:	6b53      	ldr	r3, [r2, #52]	; 0x34
 8004094:	2120      	movs	r1, #32
 8004096:	430b      	orrs	r3, r1
 8004098:	6353      	str	r3, [r2, #52]	; 0x34
    HAL_NVIC_SetPriority(TIM22_IRQn, 0, 0);
 800409a:	2200      	movs	r2, #0
 800409c:	2100      	movs	r1, #0
 800409e:	2016      	movs	r0, #22
 80040a0:	f7fd f9da 	bl	8001458 <HAL_NVIC_SetPriority>
    HAL_NVIC_EnableIRQ(TIM22_IRQn);
 80040a4:	2016      	movs	r0, #22
 80040a6:	f7fd fa09 	bl	80014bc <HAL_NVIC_EnableIRQ>
}
 80040aa:	e7d4      	b.n	8004056 <HAL_TIM_Base_MspInit+0x16>
 80040ac:	40000400 	.word	0x40000400
 80040b0:	40001000 	.word	0x40001000
 80040b4:	40011400 	.word	0x40011400
 80040b8:	40021000 	.word	0x40021000

080040bc <HAL_TIM_MspPostInit>:

void HAL_TIM_MspPostInit(TIM_HandleTypeDef* htim)
{
 80040bc:	b510      	push	{r4, lr}
 80040be:	b088      	sub	sp, #32
 80040c0:	0004      	movs	r4, r0

  GPIO_InitTypeDef GPIO_InitStruct = {0};
 80040c2:	2214      	movs	r2, #20
 80040c4:	2100      	movs	r1, #0
 80040c6:	a803      	add	r0, sp, #12
 80040c8:	f000 f99c 	bl	8004404 <memset>
  if(htim->Instance==TIM3)
 80040cc:	6823      	ldr	r3, [r4, #0]
 80040ce:	4a20      	ldr	r2, [pc, #128]	; (8004150 <HAL_TIM_MspPostInit+0x94>)
 80040d0:	4293      	cmp	r3, r2
 80040d2:	d004      	beq.n	80040de <HAL_TIM_MspPostInit+0x22>

  /* USER CODE BEGIN TIM3_MspPostInit 1 */

  /* USER CODE END TIM3_MspPostInit 1 */
  }
  else if(htim->Instance==TIM22)
 80040d4:	4a1f      	ldr	r2, [pc, #124]	; (8004154 <HAL_TIM_MspPostInit+0x98>)
 80040d6:	4293      	cmp	r3, r2
 80040d8:	d027      	beq.n	800412a <HAL_TIM_MspPostInit+0x6e>
  /* USER CODE BEGIN TIM22_MspPostInit 1 */

  /* USER CODE END TIM22_MspPostInit 1 */
  }

}
 80040da:	b008      	add	sp, #32
 80040dc:	bd10      	pop	{r4, pc}
    __HAL_RCC_GPIOA_CLK_ENABLE();
 80040de:	4b1e      	ldr	r3, [pc, #120]	; (8004158 <HAL_TIM_MspPostInit+0x9c>)
 80040e0:	6ad9      	ldr	r1, [r3, #44]	; 0x2c
 80040e2:	2201      	movs	r2, #1
 80040e4:	4311      	orrs	r1, r2
 80040e6:	62d9      	str	r1, [r3, #44]	; 0x2c
 80040e8:	6ad9      	ldr	r1, [r3, #44]	; 0x2c
 80040ea:	400a      	ands	r2, r1
 80040ec:	9200      	str	r2, [sp, #0]
 80040ee:	9a00      	ldr	r2, [sp, #0]
    __HAL_RCC_GPIOB_CLK_ENABLE();
 80040f0:	6ada      	ldr	r2, [r3, #44]	; 0x2c
 80040f2:	2402      	movs	r4, #2
 80040f4:	4322      	orrs	r2, r4
 80040f6:	62da      	str	r2, [r3, #44]	; 0x2c
 80040f8:	6adb      	ldr	r3, [r3, #44]	; 0x2c
 80040fa:	4023      	ands	r3, r4
 80040fc:	9301      	str	r3, [sp, #4]
 80040fe:	9b01      	ldr	r3, [sp, #4]
    GPIO_InitStruct.Pin = PWMmotorRight1_Pin|PWMmotorRight2_Pin;
 8004100:	23c0      	movs	r3, #192	; 0xc0
 8004102:	9303      	str	r3, [sp, #12]
    GPIO_InitStruct.Mode = GPIO_MODE_AF_PP;
 8004104:	9404      	str	r4, [sp, #16]
    GPIO_InitStruct.Alternate = GPIO_AF2_TIM3;
 8004106:	9407      	str	r4, [sp, #28]
    HAL_GPIO_Init(GPIOA, &GPIO_InitStruct);
 8004108:	a903      	add	r1, sp, #12
 800410a:	20a0      	movs	r0, #160	; 0xa0
 800410c:	05c0      	lsls	r0, r0, #23
 800410e:	f7fd facb 	bl	80016a8 <HAL_GPIO_Init>
    GPIO_InitStruct.Pin = PWMmotorLeft1_Pin|PWMmotorLeft2_Pin;
 8004112:	2303      	movs	r3, #3
 8004114:	9303      	str	r3, [sp, #12]
    GPIO_InitStruct.Mode = GPIO_MODE_AF_PP;
 8004116:	9404      	str	r4, [sp, #16]
    GPIO_InitStruct.Pull = GPIO_NOPULL;
 8004118:	2300      	movs	r3, #0
 800411a:	9305      	str	r3, [sp, #20]
    GPIO_InitStruct.Speed = GPIO_SPEED_FREQ_LOW;
 800411c:	9306      	str	r3, [sp, #24]
    GPIO_InitStruct.Alternate = GPIO_AF2_TIM3;
 800411e:	9407      	str	r4, [sp, #28]
    HAL_GPIO_Init(GPIOB, &GPIO_InitStruct);
 8004120:	a903      	add	r1, sp, #12
 8004122:	480e      	ldr	r0, [pc, #56]	; (800415c <HAL_TIM_MspPostInit+0xa0>)
 8004124:	f7fd fac0 	bl	80016a8 <HAL_GPIO_Init>
 8004128:	e7d7      	b.n	80040da <HAL_TIM_MspPostInit+0x1e>
    __HAL_RCC_GPIOC_CLK_ENABLE();
 800412a:	4a0b      	ldr	r2, [pc, #44]	; (8004158 <HAL_TIM_MspPostInit+0x9c>)
 800412c:	6ad1      	ldr	r1, [r2, #44]	; 0x2c
 800412e:	2304      	movs	r3, #4
 8004130:	4319      	orrs	r1, r3
 8004132:	62d1      	str	r1, [r2, #44]	; 0x2c
 8004134:	6ad2      	ldr	r2, [r2, #44]	; 0x2c
 8004136:	4013      	ands	r3, r2
 8004138:	9302      	str	r3, [sp, #8]
 800413a:	9b02      	ldr	r3, [sp, #8]
    GPIO_InitStruct.Pin = Ultrasound_PWM_Pin;
 800413c:	2340      	movs	r3, #64	; 0x40
 800413e:	9303      	str	r3, [sp, #12]
    GPIO_InitStruct.Mode = GPIO_MODE_AF_PP;
 8004140:	3b3e      	subs	r3, #62	; 0x3e
 8004142:	9304      	str	r3, [sp, #16]
    HAL_GPIO_Init(Ultrasound_PWM_GPIO_Port, &GPIO_InitStruct);
 8004144:	a903      	add	r1, sp, #12
 8004146:	4806      	ldr	r0, [pc, #24]	; (8004160 <HAL_TIM_MspPostInit+0xa4>)
 8004148:	f7fd faae 	bl	80016a8 <HAL_GPIO_Init>
}
 800414c:	e7c5      	b.n	80040da <HAL_TIM_MspPostInit+0x1e>
 800414e:	46c0      	nop			; (mov r8, r8)
 8004150:	40000400 	.word	0x40000400
 8004154:	40011400 	.word	0x40011400
 8004158:	40021000 	.word	0x40021000
 800415c:	50000400 	.word	0x50000400
 8004160:	50000800 	.word	0x50000800

08004164 <HAL_UART_MspInit>:
* This function configures the hardware resources used in this example
* @param huart: UART handle pointer
* @retval None
*/
void HAL_UART_MspInit(UART_HandleTypeDef* huart)
{
 8004164:	b530      	push	{r4, r5, lr}
 8004166:	b087      	sub	sp, #28
 8004168:	0004      	movs	r4, r0

  GPIO_InitTypeDef GPIO_InitStruct = {0};
 800416a:	2214      	movs	r2, #20
 800416c:	2100      	movs	r1, #0
 800416e:	a801      	add	r0, sp, #4
 8004170:	f000 f948 	bl	8004404 <memset>
  if(huart->Instance==USART1)
 8004174:	4b2d      	ldr	r3, [pc, #180]	; (800422c <HAL_UART_MspInit+0xc8>)
 8004176:	6822      	ldr	r2, [r4, #0]
 8004178:	429a      	cmp	r2, r3
 800417a:	d001      	beq.n	8004180 <HAL_UART_MspInit+0x1c>
  /* USER CODE BEGIN USART1_MspInit 1 */

  /* USER CODE END USART1_MspInit 1 */
  }

}
 800417c:	b007      	add	sp, #28
 800417e:	bd30      	pop	{r4, r5, pc}
    __HAL_RCC_USART1_CLK_ENABLE();
 8004180:	4b2b      	ldr	r3, [pc, #172]	; (8004230 <HAL_UART_MspInit+0xcc>)
 8004182:	6b59      	ldr	r1, [r3, #52]	; 0x34
 8004184:	2280      	movs	r2, #128	; 0x80
 8004186:	01d2      	lsls	r2, r2, #7
 8004188:	430a      	orrs	r2, r1
 800418a:	635a      	str	r2, [r3, #52]	; 0x34
    __HAL_RCC_GPIOA_CLK_ENABLE();
 800418c:	6ad9      	ldr	r1, [r3, #44]	; 0x2c
 800418e:	2201      	movs	r2, #1
 8004190:	4311      	orrs	r1, r2
 8004192:	62d9      	str	r1, [r3, #44]	; 0x2c
 8004194:	6adb      	ldr	r3, [r3, #44]	; 0x2c
 8004196:	401a      	ands	r2, r3
 8004198:	9200      	str	r2, [sp, #0]
 800419a:	9b00      	ldr	r3, [sp, #0]
    GPIO_InitStruct.Pin = GPIO_PIN_9|GPIO_PIN_10;
 800419c:	23c0      	movs	r3, #192	; 0xc0
 800419e:	00db      	lsls	r3, r3, #3
 80041a0:	9301      	str	r3, [sp, #4]
    GPIO_InitStruct.Mode = GPIO_MODE_AF_PP;
 80041a2:	2302      	movs	r3, #2
 80041a4:	9302      	str	r3, [sp, #8]
    GPIO_InitStruct.Speed = GPIO_SPEED_FREQ_VERY_HIGH;
 80041a6:	2503      	movs	r5, #3
 80041a8:	9504      	str	r5, [sp, #16]
    GPIO_InitStruct.Alternate = GPIO_AF4_USART1;
 80041aa:	3302      	adds	r3, #2
 80041ac:	9305      	str	r3, [sp, #20]
    HAL_GPIO_Init(GPIOA, &GPIO_InitStruct);
 80041ae:	a901      	add	r1, sp, #4
 80041b0:	20a0      	movs	r0, #160	; 0xa0
 80041b2:	05c0      	lsls	r0, r0, #23
 80041b4:	f7fd fa78 	bl	80016a8 <HAL_GPIO_Init>
    hdma_usart1_tx.Instance = DMA1_Channel2;
 80041b8:	481e      	ldr	r0, [pc, #120]	; (8004234 <HAL_UART_MspInit+0xd0>)
 80041ba:	4b1f      	ldr	r3, [pc, #124]	; (8004238 <HAL_UART_MspInit+0xd4>)
 80041bc:	6003      	str	r3, [r0, #0]
    hdma_usart1_tx.Init.Request = DMA_REQUEST_3;
 80041be:	6045      	str	r5, [r0, #4]
    hdma_usart1_tx.Init.Direction = DMA_MEMORY_TO_PERIPH;
 80041c0:	2310      	movs	r3, #16
 80041c2:	6083      	str	r3, [r0, #8]
    hdma_usart1_tx.Init.PeriphInc = DMA_PINC_DISABLE;
 80041c4:	2300      	movs	r3, #0
 80041c6:	60c3      	str	r3, [r0, #12]
    hdma_usart1_tx.Init.MemInc = DMA_MINC_ENABLE;
 80041c8:	2280      	movs	r2, #128	; 0x80
 80041ca:	6102      	str	r2, [r0, #16]
    hdma_usart1_tx.Init.PeriphDataAlignment = DMA_PDATAALIGN_BYTE;
 80041cc:	6143      	str	r3, [r0, #20]
    hdma_usart1_tx.Init.MemDataAlignment = DMA_MDATAALIGN_BYTE;
 80041ce:	6183      	str	r3, [r0, #24]
    hdma_usart1_tx.Init.Mode = DMA_NORMAL;
 80041d0:	61c3      	str	r3, [r0, #28]
    hdma_usart1_tx.Init.Priority = DMA_PRIORITY_LOW;
 80041d2:	6203      	str	r3, [r0, #32]
    if (HAL_DMA_Init(&hdma_usart1_tx) != HAL_OK)
 80041d4:	f7fd f998 	bl	8001508 <HAL_DMA_Init>
 80041d8:	2800      	cmp	r0, #0
 80041da:	d120      	bne.n	800421e <HAL_UART_MspInit+0xba>
    __HAL_LINKDMA(huart,hdmatx,hdma_usart1_tx);
 80041dc:	4b15      	ldr	r3, [pc, #84]	; (8004234 <HAL_UART_MspInit+0xd0>)
 80041de:	66a3      	str	r3, [r4, #104]	; 0x68
 80041e0:	629c      	str	r4, [r3, #40]	; 0x28
    hdma_usart1_rx.Instance = DMA1_Channel3;
 80041e2:	4816      	ldr	r0, [pc, #88]	; (800423c <HAL_UART_MspInit+0xd8>)
 80041e4:	4b16      	ldr	r3, [pc, #88]	; (8004240 <HAL_UART_MspInit+0xdc>)
 80041e6:	6003      	str	r3, [r0, #0]
    hdma_usart1_rx.Init.Request = DMA_REQUEST_3;
 80041e8:	2303      	movs	r3, #3
 80041ea:	6043      	str	r3, [r0, #4]
    hdma_usart1_rx.Init.Direction = DMA_PERIPH_TO_MEMORY;
 80041ec:	2300      	movs	r3, #0
 80041ee:	6083      	str	r3, [r0, #8]
    hdma_usart1_rx.Init.PeriphInc = DMA_PINC_DISABLE;
 80041f0:	60c3      	str	r3, [r0, #12]
    hdma_usart1_rx.Init.MemInc = DMA_MINC_ENABLE;
 80041f2:	2280      	movs	r2, #128	; 0x80
 80041f4:	6102      	str	r2, [r0, #16]
    hdma_usart1_rx.Init.PeriphDataAlignment = DMA_PDATAALIGN_BYTE;
 80041f6:	6143      	str	r3, [r0, #20]
    hdma_usart1_rx.Init.MemDataAlignment = DMA_MDATAALIGN_BYTE;
 80041f8:	6183      	str	r3, [r0, #24]
    hdma_usart1_rx.Init.Mode = DMA_NORMAL;
 80041fa:	61c3      	str	r3, [r0, #28]
    hdma_usart1_rx.Init.Priority = DMA_PRIORITY_LOW;
 80041fc:	6203      	str	r3, [r0, #32]
    if (HAL_DMA_Init(&hdma_usart1_rx) != HAL_OK)
 80041fe:	f7fd f983 	bl	8001508 <HAL_DMA_Init>
 8004202:	2800      	cmp	r0, #0
 8004204:	d10e      	bne.n	8004224 <HAL_UART_MspInit+0xc0>
    __HAL_LINKDMA(huart,hdmarx,hdma_usart1_rx);
 8004206:	4b0d      	ldr	r3, [pc, #52]	; (800423c <HAL_UART_MspInit+0xd8>)
 8004208:	66e3      	str	r3, [r4, #108]	; 0x6c
 800420a:	629c      	str	r4, [r3, #40]	; 0x28
    HAL_NVIC_SetPriority(USART1_IRQn, 0, 0);
 800420c:	2200      	movs	r2, #0
 800420e:	2100      	movs	r1, #0
 8004210:	201b      	movs	r0, #27
 8004212:	f7fd f921 	bl	8001458 <HAL_NVIC_SetPriority>
    HAL_NVIC_EnableIRQ(USART1_IRQn);
 8004216:	201b      	movs	r0, #27
 8004218:	f7fd f950 	bl	80014bc <HAL_NVIC_EnableIRQ>
}
 800421c:	e7ae      	b.n	800417c <HAL_UART_MspInit+0x18>
      Error_Handler();
 800421e:	f7ff fc01 	bl	8003a24 <Error_Handler>
 8004222:	e7db      	b.n	80041dc <HAL_UART_MspInit+0x78>
      Error_Handler();
 8004224:	f7ff fbfe 	bl	8003a24 <Error_Handler>
 8004228:	e7ed      	b.n	8004206 <HAL_UART_MspInit+0xa2>
 800422a:	46c0      	nop			; (mov r8, r8)
 800422c:	40013800 	.word	0x40013800
 8004230:	40021000 	.word	0x40021000
 8004234:	2000009c 	.word	0x2000009c
 8004238:	4002001c 	.word	0x4002001c
 800423c:	200000e4 	.word	0x200000e4
 8004240:	40020030 	.word	0x40020030

08004244 <NMI_Handler>:

  /* USER CODE END NonMaskableInt_IRQn 0 */
  /* USER CODE BEGIN NonMaskableInt_IRQn 1 */

  /* USER CODE END NonMaskableInt_IRQn 1 */
}
 8004244:	4770      	bx	lr

08004246 <HardFault_Handler>:

/**
  * @brief This function handles Hard fault interrupt.
  */
void HardFault_Handler(void)
{
 8004246:	e7fe      	b.n	8004246 <HardFault_Handler>

08004248 <SVC_Handler>:

  /* USER CODE END SVC_IRQn 0 */
  /* USER CODE BEGIN SVC_IRQn 1 */

  /* USER CODE END SVC_IRQn 1 */
}
 8004248:	4770      	bx	lr

0800424a <PendSV_Handler>:

  /* USER CODE END PendSV_IRQn 0 */
  /* USER CODE BEGIN PendSV_IRQn 1 */

  /* USER CODE END PendSV_IRQn 1 */
}
 800424a:	4770      	bx	lr

0800424c <SysTick_Handler>:

/**
  * @brief This function handles System tick timer.
  */
void SysTick_Handler(void)
{
 800424c:	b510      	push	{r4, lr}
  /* USER CODE BEGIN SysTick_IRQn 0 */

  /* USER CODE END SysTick_IRQn 0 */
  HAL_IncTick();
 800424e:	f7fe ff9d 	bl	800318c <HAL_IncTick>
  /* USER CODE BEGIN SysTick_IRQn 1 */

  /* USER CODE END SysTick_IRQn 1 */
}
 8004252:	bd10      	pop	{r4, pc}

08004254 <EXTI4_15_IRQHandler>:

/**
  * @brief This function handles EXTI line 4 to 15 interrupts.
  */
void EXTI4_15_IRQHandler(void)
{
 8004254:	b510      	push	{r4, lr}
  /* USER CODE BEGIN EXTI4_15_IRQn 0 */

  /* USER CODE END EXTI4_15_IRQn 0 */
  HAL_GPIO_EXTI_IRQHandler(GPIO_PIN_4);
 8004256:	2010      	movs	r0, #16
 8004258:	f7fd fb06 	bl	8001868 <HAL_GPIO_EXTI_IRQHandler>
  HAL_GPIO_EXTI_IRQHandler(GPIO_PIN_7);
 800425c:	2080      	movs	r0, #128	; 0x80
 800425e:	f7fd fb03 	bl	8001868 <HAL_GPIO_EXTI_IRQHandler>
  HAL_GPIO_EXTI_IRQHandler(GPIO_PIN_8);
 8004262:	2080      	movs	r0, #128	; 0x80
 8004264:	0040      	lsls	r0, r0, #1
 8004266:	f7fd faff 	bl	8001868 <HAL_GPIO_EXTI_IRQHandler>
  HAL_GPIO_EXTI_IRQHandler(GPIO_PIN_9);
 800426a:	2080      	movs	r0, #128	; 0x80
 800426c:	0080      	lsls	r0, r0, #2
 800426e:	f7fd fafb 	bl	8001868 <HAL_GPIO_EXTI_IRQHandler>
  HAL_GPIO_EXTI_IRQHandler(GPIO_PIN_10);
 8004272:	2080      	movs	r0, #128	; 0x80
 8004274:	00c0      	lsls	r0, r0, #3
 8004276:	f7fd faf7 	bl	8001868 <HAL_GPIO_EXTI_IRQHandler>
  HAL_GPIO_EXTI_IRQHandler(GPIO_PIN_11);
 800427a:	2080      	movs	r0, #128	; 0x80
 800427c:	0100      	lsls	r0, r0, #4
 800427e:	f7fd faf3 	bl	8001868 <HAL_GPIO_EXTI_IRQHandler>
  HAL_GPIO_EXTI_IRQHandler(GPIO_PIN_12);
 8004282:	2080      	movs	r0, #128	; 0x80
 8004284:	0140      	lsls	r0, r0, #5
 8004286:	f7fd faef 	bl	8001868 <HAL_GPIO_EXTI_IRQHandler>
  HAL_GPIO_EXTI_IRQHandler(GPIO_PIN_13);
 800428a:	2080      	movs	r0, #128	; 0x80
 800428c:	0180      	lsls	r0, r0, #6
 800428e:	f7fd faeb 	bl	8001868 <HAL_GPIO_EXTI_IRQHandler>
  HAL_GPIO_EXTI_IRQHandler(GPIO_PIN_14);
 8004292:	2080      	movs	r0, #128	; 0x80
 8004294:	01c0      	lsls	r0, r0, #7
 8004296:	f7fd fae7 	bl	8001868 <HAL_GPIO_EXTI_IRQHandler>
  HAL_GPIO_EXTI_IRQHandler(GPIO_PIN_15);
 800429a:	2080      	movs	r0, #128	; 0x80
 800429c:	0200      	lsls	r0, r0, #8
 800429e:	f7fd fae3 	bl	8001868 <HAL_GPIO_EXTI_IRQHandler>
  /* USER CODE BEGIN EXTI4_15_IRQn 1 */

  /* USER CODE END EXTI4_15_IRQn 1 */
}
 80042a2:	bd10      	pop	{r4, pc}

080042a4 <DMA1_Channel2_3_IRQHandler>:

/**
  * @brief This function handles DMA1 channel 2 and channel 3 interrupts.
  */
void DMA1_Channel2_3_IRQHandler(void)
{
 80042a4:	b510      	push	{r4, lr}
  /* USER CODE BEGIN DMA1_Channel2_3_IRQn 0 */

  /* USER CODE END DMA1_Channel2_3_IRQn 0 */
  HAL_DMA_IRQHandler(&hdma_usart1_tx);
 80042a6:	4803      	ldr	r0, [pc, #12]	; (80042b4 <DMA1_Channel2_3_IRQHandler+0x10>)
 80042a8:	f7fd f9a1 	bl	80015ee <HAL_DMA_IRQHandler>
  HAL_DMA_IRQHandler(&hdma_usart1_rx);
 80042ac:	4802      	ldr	r0, [pc, #8]	; (80042b8 <DMA1_Channel2_3_IRQHandler+0x14>)
 80042ae:	f7fd f99e 	bl	80015ee <HAL_DMA_IRQHandler>
  /* USER CODE BEGIN DMA1_Channel2_3_IRQn 1 */

  /* USER CODE END DMA1_Channel2_3_IRQn 1 */
}
 80042b2:	bd10      	pop	{r4, pc}
 80042b4:	2000009c 	.word	0x2000009c
 80042b8:	200000e4 	.word	0x200000e4

080042bc <TIM3_IRQHandler>:

/**
  * @brief This function handles TIM3 global interrupt.
  */
void TIM3_IRQHandler(void)
{
 80042bc:	b510      	push	{r4, lr}
  /* USER CODE BEGIN TIM3_IRQn 0 */

  /* USER CODE END TIM3_IRQn 0 */
  HAL_TIM_IRQHandler(&htim3);
 80042be:	4802      	ldr	r0, [pc, #8]	; (80042c8 <TIM3_IRQHandler+0xc>)
 80042c0:	f7fe fa0c 	bl	80026dc <HAL_TIM_IRQHandler>
  /* USER CODE BEGIN TIM3_IRQn 1 */

  /* USER CODE END TIM3_IRQn 1 */
}
 80042c4:	bd10      	pop	{r4, pc}
 80042c6:	46c0      	nop			; (mov r8, r8)
 80042c8:	20000060 	.word	0x20000060

080042cc <TIM6_DAC_IRQHandler>:

/**
  * @brief This function handles TIM6 global interrupt and DAC1/DAC2 underrun error interrupts.
  */
void TIM6_DAC_IRQHandler(void)
{
 80042cc:	b510      	push	{r4, lr}
  /* USER CODE BEGIN TIM6_DAC_IRQn 0 */

  /* USER CODE END TIM6_DAC_IRQn 0 */
  HAL_TIM_IRQHandler(&htim6);
 80042ce:	4802      	ldr	r0, [pc, #8]	; (80042d8 <TIM6_DAC_IRQHandler+0xc>)
 80042d0:	f7fe fa04 	bl	80026dc <HAL_TIM_IRQHandler>
  /* USER CODE BEGIN TIM6_DAC_IRQn 1 */

  /* USER CODE END TIM6_DAC_IRQn 1 */
}
 80042d4:	bd10      	pop	{r4, pc}
 80042d6:	46c0      	nop			; (mov r8, r8)
 80042d8:	200001e8 	.word	0x200001e8

080042dc <TIM22_IRQHandler>:

/**
  * @brief This function handles TIM22 global interrupt.
  */
void TIM22_IRQHandler(void)
{
 80042dc:	b510      	push	{r4, lr}
  /* USER CODE BEGIN TIM22_IRQn 0 */

  /* USER CODE END TIM22_IRQn 0 */
  HAL_TIM_IRQHandler(&htim22);
 80042de:	4802      	ldr	r0, [pc, #8]	; (80042e8 <TIM22_IRQHandler+0xc>)
 80042e0:	f7fe f9fc 	bl	80026dc <HAL_TIM_IRQHandler>
  /* USER CODE BEGIN TIM22_IRQn 1 */

  /* USER CODE END TIM22_IRQn 1 */
}
 80042e4:	bd10      	pop	{r4, pc}
 80042e6:	46c0      	nop			; (mov r8, r8)
 80042e8:	2000012c 	.word	0x2000012c

080042ec <USART1_IRQHandler>:

/**
  * @brief This function handles USART1 global interrupt / USART1 wake-up interrupt through EXTI line 25.
  */
void USART1_IRQHandler(void)
{
 80042ec:	b510      	push	{r4, lr}
  /* USER CODE BEGIN USART1_IRQn 0 */

  /* USER CODE END USART1_IRQn 0 */
  HAL_UART_IRQHandler(&huart1);
 80042ee:	4c06      	ldr	r4, [pc, #24]	; (8004308 <USART1_IRQHandler+0x1c>)
 80042f0:	0020      	movs	r0, r4
 80042f2:	f7fe fbc3 	bl	8002a7c <HAL_UART_IRQHandler>
  /* USER CODE BEGIN USART1_IRQn 1 */
  HAL_UART_Receive_IT(&huart1,interupt_bluetooth_return(),1);
 80042f6:	f7fe ff45 	bl	8003184 <interupt_bluetooth_return>
 80042fa:	0001      	movs	r1, r0
 80042fc:	2201      	movs	r2, #1
 80042fe:	0020      	movs	r0, r4
 8004300:	f7fe fac8 	bl	8002894 <HAL_UART_Receive_IT>
  /* USER CODE END USART1_IRQn 1 */
}
 8004304:	bd10      	pop	{r4, pc}
 8004306:	46c0      	nop			; (mov r8, r8)
 8004308:	20000168 	.word	0x20000168

0800430c <SystemInit>:
  * @retval None
  */
void SystemInit (void)
{
/*!< Set MSION bit */
  RCC->CR |= (uint32_t)0x00000100U;
 800430c:	4b10      	ldr	r3, [pc, #64]	; (8004350 <SystemInit+0x44>)
 800430e:	6819      	ldr	r1, [r3, #0]
 8004310:	2280      	movs	r2, #128	; 0x80
 8004312:	0052      	lsls	r2, r2, #1
 8004314:	430a      	orrs	r2, r1
 8004316:	601a      	str	r2, [r3, #0]

  /*!< Reset SW[1:0], HPRE[3:0], PPRE1[2:0], PPRE2[2:0], MCOSEL[2:0] and MCOPRE[2:0] bits */
  RCC->CFGR &= (uint32_t) 0x88FF400CU;
 8004318:	68da      	ldr	r2, [r3, #12]
 800431a:	490e      	ldr	r1, [pc, #56]	; (8004354 <SystemInit+0x48>)
 800431c:	400a      	ands	r2, r1
 800431e:	60da      	str	r2, [r3, #12]

  /*!< Reset HSION, HSIDIVEN, HSEON, CSSON and PLLON bits */
  RCC->CR &= (uint32_t)0xFEF6FFF6U;
 8004320:	681a      	ldr	r2, [r3, #0]
 8004322:	490d      	ldr	r1, [pc, #52]	; (8004358 <SystemInit+0x4c>)
 8004324:	400a      	ands	r2, r1
 8004326:	601a      	str	r2, [r3, #0]

  /*!< Reset HSI48ON  bit */
  RCC->CRRCR &= (uint32_t)0xFFFFFFFEU;
 8004328:	689a      	ldr	r2, [r3, #8]
 800432a:	2101      	movs	r1, #1
 800432c:	438a      	bics	r2, r1
 800432e:	609a      	str	r2, [r3, #8]

  /*!< Reset HSEBYP bit */
  RCC->CR &= (uint32_t)0xFFFBFFFFU;
 8004330:	681a      	ldr	r2, [r3, #0]
 8004332:	490a      	ldr	r1, [pc, #40]	; (800435c <SystemInit+0x50>)
 8004334:	400a      	ands	r2, r1
 8004336:	601a      	str	r2, [r3, #0]

  /*!< Reset PLLSRC, PLLMUL[3:0] and PLLDIV[1:0] bits */
  RCC->CFGR &= (uint32_t)0xFF02FFFFU;
 8004338:	68da      	ldr	r2, [r3, #12]
 800433a:	4909      	ldr	r1, [pc, #36]	; (8004360 <SystemInit+0x54>)
 800433c:	400a      	ands	r2, r1
 800433e:	60da      	str	r2, [r3, #12]

  /*!< Disable all interrupts */
  RCC->CIER = 0x00000000U;
 8004340:	2200      	movs	r2, #0
 8004342:	611a      	str	r2, [r3, #16]

  /* Configure the Vector Table location add offset address ------------------*/
#ifdef VECT_TAB_SRAM
  SCB->VTOR = SRAM_BASE | VECT_TAB_OFFSET; /* Vector Table Relocation in Internal SRAM */
#else
  SCB->VTOR = FLASH_BASE | VECT_TAB_OFFSET; /* Vector Table Relocation in Internal FLASH */
 8004344:	2280      	movs	r2, #128	; 0x80
 8004346:	0512      	lsls	r2, r2, #20
 8004348:	4b06      	ldr	r3, [pc, #24]	; (8004364 <SystemInit+0x58>)
 800434a:	609a      	str	r2, [r3, #8]
#endif
}
 800434c:	4770      	bx	lr
 800434e:	46c0      	nop			; (mov r8, r8)
 8004350:	40021000 	.word	0x40021000
 8004354:	88ff400c 	.word	0x88ff400c
 8004358:	fef6fff6 	.word	0xfef6fff6
 800435c:	fffbffff 	.word	0xfffbffff
 8004360:	ff02ffff 	.word	0xff02ffff
 8004364:	e000ed00 	.word	0xe000ed00

08004368 <Reset_Handler>:

    .section  .text.Reset_Handler
  .weak  Reset_Handler
  .type  Reset_Handler, %function
Reset_Handler:  
   ldr   r0, =_estack
 8004368:	480d      	ldr	r0, [pc, #52]	; (80043a0 <LoopForever+0x2>)
   mov   sp, r0          /* set stack pointer */
 800436a:	4685      	mov	sp, r0

/* Copy the data segment initializers from flash to SRAM */
  movs  r1, #0
 800436c:	2100      	movs	r1, #0
  b  LoopCopyDataInit
 800436e:	e003      	b.n	8004378 <LoopCopyDataInit>

08004370 <CopyDataInit>:

CopyDataInit:
  ldr  r3, =_sidata
 8004370:	4b0c      	ldr	r3, [pc, #48]	; (80043a4 <LoopForever+0x6>)
  ldr  r3, [r3, r1]
 8004372:	585b      	ldr	r3, [r3, r1]
  str  r3, [r0, r1]
 8004374:	5043      	str	r3, [r0, r1]
  adds  r1, r1, #4
 8004376:	3104      	adds	r1, #4

08004378 <LoopCopyDataInit>:

LoopCopyDataInit:
  ldr  r0, =_sdata
 8004378:	480b      	ldr	r0, [pc, #44]	; (80043a8 <LoopForever+0xa>)
  ldr  r3, =_edata
 800437a:	4b0c      	ldr	r3, [pc, #48]	; (80043ac <LoopForever+0xe>)
  adds  r2, r0, r1
 800437c:	1842      	adds	r2, r0, r1
  cmp  r2, r3
 800437e:	429a      	cmp	r2, r3
  bcc  CopyDataInit
 8004380:	d3f6      	bcc.n	8004370 <CopyDataInit>
  ldr  r2, =_sbss
 8004382:	4a0b      	ldr	r2, [pc, #44]	; (80043b0 <LoopForever+0x12>)
  b  LoopFillZerobss
 8004384:	e002      	b.n	800438c <LoopFillZerobss>

08004386 <FillZerobss>:
/* Zero fill the bss segment. */
FillZerobss:
  movs  r3, #0
 8004386:	2300      	movs	r3, #0
  str  r3, [r2]
 8004388:	6013      	str	r3, [r2, #0]
  adds r2, r2, #4
 800438a:	3204      	adds	r2, #4

0800438c <LoopFillZerobss>:


LoopFillZerobss:
  ldr  r3, = _ebss
 800438c:	4b09      	ldr	r3, [pc, #36]	; (80043b4 <LoopForever+0x16>)
  cmp  r2, r3
 800438e:	429a      	cmp	r2, r3
  bcc  FillZerobss
 8004390:	d3f9      	bcc.n	8004386 <FillZerobss>

/* Call the clock system intitialization function.*/
  bl  SystemInit
 8004392:	f7ff ffbb 	bl	800430c <SystemInit>
/* Call static constructors */
    bl __libc_init_array
 8004396:	f000 f811 	bl	80043bc <__libc_init_array>
/* Call the application's entry point.*/
  bl  main
 800439a:	f7ff fad3 	bl	8003944 <main>

0800439e <LoopForever>:

LoopForever:
    b LoopForever
 800439e:	e7fe      	b.n	800439e <LoopForever>
   ldr   r0, =_estack
 80043a0:	20005000 	.word	0x20005000
  ldr  r3, =_sidata
 80043a4:	08004568 	.word	0x08004568
  ldr  r0, =_sdata
 80043a8:	20000000 	.word	0x20000000
  ldr  r3, =_edata
 80043ac:	20000004 	.word	0x20000004
  ldr  r2, =_sbss
 80043b0:	20000004 	.word	0x20000004
  ldr  r3, = _ebss
 80043b4:	200002c8 	.word	0x200002c8

080043b8 <ADC1_COMP_IRQHandler>:
 * @retval : None
*/
    .section  .text.Default_Handler,"ax",%progbits
Default_Handler:
Infinite_Loop:
  b  Infinite_Loop
 80043b8:	e7fe      	b.n	80043b8 <ADC1_COMP_IRQHandler>
	...

080043bc <__libc_init_array>:
 80043bc:	b570      	push	{r4, r5, r6, lr}
 80043be:	2600      	movs	r6, #0
 80043c0:	4d0c      	ldr	r5, [pc, #48]	; (80043f4 <__libc_init_array+0x38>)
 80043c2:	4c0d      	ldr	r4, [pc, #52]	; (80043f8 <__libc_init_array+0x3c>)
 80043c4:	1b64      	subs	r4, r4, r5
 80043c6:	10a4      	asrs	r4, r4, #2
 80043c8:	42a6      	cmp	r6, r4
 80043ca:	d109      	bne.n	80043e0 <__libc_init_array+0x24>
 80043cc:	2600      	movs	r6, #0
 80043ce:	f000 f821 	bl	8004414 <_init>
 80043d2:	4d0a      	ldr	r5, [pc, #40]	; (80043fc <__libc_init_array+0x40>)
 80043d4:	4c0a      	ldr	r4, [pc, #40]	; (8004400 <__libc_init_array+0x44>)
 80043d6:	1b64      	subs	r4, r4, r5
 80043d8:	10a4      	asrs	r4, r4, #2
 80043da:	42a6      	cmp	r6, r4
 80043dc:	d105      	bne.n	80043ea <__libc_init_array+0x2e>
 80043de:	bd70      	pop	{r4, r5, r6, pc}
 80043e0:	00b3      	lsls	r3, r6, #2
 80043e2:	58eb      	ldr	r3, [r5, r3]
 80043e4:	4798      	blx	r3
 80043e6:	3601      	adds	r6, #1
 80043e8:	e7ee      	b.n	80043c8 <__libc_init_array+0xc>
 80043ea:	00b3      	lsls	r3, r6, #2
 80043ec:	58eb      	ldr	r3, [r5, r3]
 80043ee:	4798      	blx	r3
 80043f0:	3601      	adds	r6, #1
 80043f2:	e7f2      	b.n	80043da <__libc_init_array+0x1e>
 80043f4:	08004560 	.word	0x08004560
 80043f8:	08004560 	.word	0x08004560
 80043fc:	08004560 	.word	0x08004560
 8004400:	08004564 	.word	0x08004564

08004404 <memset>:
 8004404:	0003      	movs	r3, r0
 8004406:	1882      	adds	r2, r0, r2
 8004408:	4293      	cmp	r3, r2
 800440a:	d100      	bne.n	800440e <memset+0xa>
 800440c:	4770      	bx	lr
 800440e:	7019      	strb	r1, [r3, #0]
 8004410:	3301      	adds	r3, #1
 8004412:	e7f9      	b.n	8004408 <memset+0x4>

08004414 <_init>:
 8004414:	b5f8      	push	{r3, r4, r5, r6, r7, lr}
 8004416:	46c0      	nop			; (mov r8, r8)
 8004418:	bcf8      	pop	{r3, r4, r5, r6, r7}
 800441a:	bc08      	pop	{r3}
 800441c:	469e      	mov	lr, r3
 800441e:	4770      	bx	lr

08004420 <_fini>:
 8004420:	b5f8      	push	{r3, r4, r5, r6, r7, lr}
 8004422:	46c0      	nop			; (mov r8, r8)
 8004424:	bcf8      	pop	{r3, r4, r5, r6, r7}
 8004426:	bc08      	pop	{r3}
 8004428:	469e      	mov	lr, r3
 800442a:	4770      	bx	lr
